
OCT21_SmartHome.elf:     file format elf32-avr

Sections:
Idx Name          Size      VMA       LMA       File off  Algn
  0 .text         0000796e  00000000  00000000  00000094  2**1
                  CONTENTS, ALLOC, LOAD, READONLY, CODE
  1 .data         000003e2  00800060  0000796e  00007a02  2**0
                  CONTENTS, ALLOC, LOAD, DATA
  2 .bss          00000001  00800442  00800442  00007de4  2**0
                  ALLOC
  3 .stab         0000798c  00000000  00000000  00007de4  2**2
                  CONTENTS, READONLY, DEBUGGING
  4 .stabstr      00002e82  00000000  00000000  0000f770  2**0
                  CONTENTS, READONLY, DEBUGGING
  5 .debug_aranges 000001a0  00000000  00000000  000125f2  2**0
                  CONTENTS, READONLY, DEBUGGING
  6 .debug_pubnames 000001f2  00000000  00000000  00012792  2**0
                  CONTENTS, READONLY, DEBUGGING
  7 .debug_info   0000240b  00000000  00000000  00012984  2**0
                  CONTENTS, READONLY, DEBUGGING
  8 .debug_abbrev 00001386  00000000  00000000  00014d8f  2**0
                  CONTENTS, READONLY, DEBUGGING
  9 .debug_line   000011d6  00000000  00000000  00016115  2**0
                  CONTENTS, READONLY, DEBUGGING
 10 .debug_frame  000001c0  00000000  00000000  000172ec  2**2
                  CONTENTS, READONLY, DEBUGGING
 11 .debug_str    000002f6  00000000  00000000  000174ac  2**0
                  CONTENTS, READONLY, DEBUGGING
 12 .debug_loc    0000096e  00000000  00000000  000177a2  2**0
                  CONTENTS, READONLY, DEBUGGING
 13 .debug_ranges 00000050  00000000  00000000  00018110  2**0
                  CONTENTS, READONLY, DEBUGGING

Disassembly of section .text:

00000000 <__vectors>:
       0:	0c 94 a7 00 	jmp	0x14e	; 0x14e <__ctors_end>
       4:	0c 94 c4 00 	jmp	0x188	; 0x188 <__bad_interrupt>
       8:	0c 94 c4 00 	jmp	0x188	; 0x188 <__bad_interrupt>
       c:	0c 94 c4 00 	jmp	0x188	; 0x188 <__bad_interrupt>
      10:	0c 94 c4 00 	jmp	0x188	; 0x188 <__bad_interrupt>
      14:	0c 94 c4 00 	jmp	0x188	; 0x188 <__bad_interrupt>
      18:	0c 94 c4 00 	jmp	0x188	; 0x188 <__bad_interrupt>
      1c:	0c 94 c4 00 	jmp	0x188	; 0x188 <__bad_interrupt>
      20:	0c 94 c4 00 	jmp	0x188	; 0x188 <__bad_interrupt>
      24:	0c 94 c4 00 	jmp	0x188	; 0x188 <__bad_interrupt>
      28:	0c 94 c4 00 	jmp	0x188	; 0x188 <__bad_interrupt>
      2c:	0c 94 c4 00 	jmp	0x188	; 0x188 <__bad_interrupt>
      30:	0c 94 c4 00 	jmp	0x188	; 0x188 <__bad_interrupt>
      34:	0c 94 c4 00 	jmp	0x188	; 0x188 <__bad_interrupt>
      38:	0c 94 c4 00 	jmp	0x188	; 0x188 <__bad_interrupt>
      3c:	0c 94 c4 00 	jmp	0x188	; 0x188 <__bad_interrupt>
      40:	0c 94 c4 00 	jmp	0x188	; 0x188 <__bad_interrupt>
      44:	0c 94 c4 00 	jmp	0x188	; 0x188 <__bad_interrupt>
      48:	0c 94 c4 00 	jmp	0x188	; 0x188 <__bad_interrupt>
      4c:	0c 94 c4 00 	jmp	0x188	; 0x188 <__bad_interrupt>
      50:	0c 94 c4 00 	jmp	0x188	; 0x188 <__bad_interrupt>
      54:	00 40       	sbci	r16, 0x00	; 0
      56:	7a 10       	cpse	r7, r10
      58:	f3 5a       	subi	r31, 0xA3	; 163
      5a:	00 a0       	ldd	r0, Z+32	; 0x20
      5c:	72 4e       	sbci	r23, 0xE2	; 226
      5e:	18 09       	sbc	r17, r8
      60:	00 10       	cpse	r0, r0
      62:	a5 d4       	rcall	.+2378   	; 0x9ae <__fixsfsi+0xa>
      64:	e8 00       	.word	0x00e8	; ????
      66:	00 e8       	ldi	r16, 0x80	; 128
      68:	76 48       	sbci	r23, 0x86	; 134
      6a:	17 00       	.word	0x0017	; ????
      6c:	00 e4       	ldi	r16, 0x40	; 64
      6e:	0b 54       	subi	r16, 0x4B	; 75
      70:	02 00       	.word	0x0002	; ????
      72:	00 ca       	rjmp	.-3072   	; 0xfffff474 <__eeprom_end+0xff7ef474>
      74:	9a 3b       	cpi	r25, 0xBA	; 186
      76:	00 00       	nop
      78:	00 e1       	ldi	r16, 0x10	; 16
      7a:	f5 05       	cpc	r31, r5
      7c:	00 00       	nop
      7e:	80 96       	adiw	r24, 0x20	; 32
      80:	98 00       	.word	0x0098	; ????
      82:	00 00       	nop
      84:	40 42       	sbci	r20, 0x20	; 32
      86:	0f 00       	.word	0x000f	; ????
      88:	00 00       	nop
      8a:	a0 86       	std	Z+8, r10	; 0x08
      8c:	01 00       	.word	0x0001	; ????
      8e:	00 00       	nop
      90:	10 27       	eor	r17, r16
      92:	00 00       	nop
      94:	00 00       	nop
      96:	e8 03       	fmulsu	r22, r16
      98:	00 00       	nop
      9a:	00 00       	nop
      9c:	64 00       	.word	0x0064	; ????
      9e:	00 00       	nop
      a0:	00 00       	nop
      a2:	0a 00       	.word	0x000a	; ????
      a4:	00 00       	nop
      a6:	00 00       	nop
      a8:	01 00       	.word	0x0001	; ????
      aa:	00 00       	nop
      ac:	00 00       	nop
      ae:	2c 76       	andi	r18, 0x6C	; 108
      b0:	d8 88       	ldd	r13, Y+16	; 0x10
      b2:	dc 67       	ori	r29, 0x7C	; 124
      b4:	4f 08       	sbc	r4, r15
      b6:	23 df       	rcall	.-442    	; 0xfffffefe <__eeprom_end+0xff7efefe>
      b8:	c1 df       	rcall	.-126    	; 0x3c <__CCP__+0x8>
      ba:	ae 59       	subi	r26, 0x9E	; 158
      bc:	e1 b1       	in	r30, 0x01	; 1
      be:	b7 96       	adiw	r30, 0x27	; 39
      c0:	e5 e3       	ldi	r30, 0x35	; 53
      c2:	e4 53       	subi	r30, 0x34	; 52
      c4:	c6 3a       	cpi	r28, 0xA6	; 166
      c6:	e6 51       	subi	r30, 0x16	; 22
      c8:	99 76       	andi	r25, 0x69	; 105
      ca:	96 e8       	ldi	r25, 0x86	; 134
      cc:	e6 c2       	rjmp	.+1484   	; 0x69a <__mulsf3+0x162>
      ce:	84 26       	eor	r8, r20
      d0:	eb 89       	ldd	r30, Y+19	; 0x13
      d2:	8c 9b       	sbis	0x11, 4	; 17
      d4:	62 ed       	ldi	r22, 0xD2	; 210
      d6:	40 7c       	andi	r20, 0xC0	; 192
      d8:	6f fc       	.word	0xfc6f	; ????
      da:	ef bc       	out	0x2f, r14	; 47
      dc:	9c 9f       	mul	r25, r28
      de:	40 f2       	brcs	.-112    	; 0x70 <__SREG__+0x31>
      e0:	ba a5       	ldd	r27, Y+42	; 0x2a
      e2:	6f a5       	ldd	r22, Y+47	; 0x2f
      e4:	f4 90       	lpm	r15, Z+
      e6:	05 5a       	subi	r16, 0xA5	; 165
      e8:	2a f7       	brpl	.-54     	; 0xb4 <__SREG__+0x75>
      ea:	5c 93       	st	X, r21
      ec:	6b 6c       	ori	r22, 0xCB	; 203
      ee:	f9 67       	ori	r31, 0x79	; 121
      f0:	6d c1       	rjmp	.+730    	; 0x3cc <_fpadd_parts+0x1e8>
      f2:	1b fc       	.word	0xfc1b	; ????
      f4:	e0 e4       	ldi	r30, 0x40	; 64
      f6:	0d 47       	sbci	r16, 0x7D	; 125
      f8:	fe f5       	brtc	.+126    	; 0x178 <.do_clear_bss_loop>
      fa:	20 e6       	ldi	r18, 0x60	; 96
      fc:	b5 00       	.word	0x00b5	; ????
      fe:	d0 ed       	ldi	r29, 0xD0	; 208
     100:	90 2e       	mov	r9, r16
     102:	03 00       	.word	0x0003	; ????
     104:	94 35       	cpi	r25, 0x54	; 84
     106:	77 05       	cpc	r23, r7
     108:	00 80       	ld	r0, Z
     10a:	84 1e       	adc	r8, r20
     10c:	08 00       	.word	0x0008	; ????
     10e:	00 20       	and	r0, r0
     110:	4e 0a       	sbc	r4, r30
     112:	00 00       	nop
     114:	00 c8       	rjmp	.-4096   	; 0xfffff116 <__eeprom_end+0xff7ef116>
     116:	0c 33       	cpi	r16, 0x3C	; 60
     118:	33 33       	cpi	r19, 0x33	; 51
     11a:	33 0f       	add	r19, r19
     11c:	98 6e       	ori	r25, 0xE8	; 232
     11e:	12 83       	std	Z+2, r17	; 0x02
     120:	11 41       	sbci	r17, 0x11	; 17
     122:	ef 8d       	ldd	r30, Y+31	; 0x1f
     124:	21 14       	cp	r2, r1
     126:	89 3b       	cpi	r24, 0xB9	; 185
     128:	e6 55       	subi	r30, 0x56	; 86
     12a:	16 cf       	rjmp	.-468    	; 0xffffff58 <__eeprom_end+0xff7eff58>
     12c:	fe e6       	ldi	r31, 0x6E	; 110
     12e:	db 18       	sub	r13, r11
     130:	d1 84       	ldd	r13, Z+9	; 0x09
     132:	4b 38       	cpi	r20, 0x8B	; 139
     134:	1b f7       	brvc	.-58     	; 0xfc <__SREG__+0xbd>
     136:	7c 1d       	adc	r23, r12
     138:	90 1d       	adc	r25, r0
     13a:	a4 bb       	out	0x14, r26	; 20
     13c:	e4 24       	eor	r14, r4
     13e:	20 32       	cpi	r18, 0x20	; 32
     140:	84 72       	andi	r24, 0x24	; 36
     142:	5e 22       	and	r5, r30
     144:	81 00       	.word	0x0081	; ????
     146:	c9 f1       	breq	.+114    	; 0x1ba <__fixunssfsi+0x2e>
     148:	24 ec       	ldi	r18, 0xC4	; 196
     14a:	a1 e5       	ldi	r26, 0x51	; 81
     14c:	3d 27       	eor	r19, r29

0000014e <__ctors_end>:
     14e:	11 24       	eor	r1, r1
     150:	1f be       	out	0x3f, r1	; 63
     152:	cf e5       	ldi	r28, 0x5F	; 95
     154:	d8 e0       	ldi	r29, 0x08	; 8
     156:	de bf       	out	0x3e, r29	; 62
     158:	cd bf       	out	0x3d, r28	; 61

0000015a <__do_copy_data>:
     15a:	14 e0       	ldi	r17, 0x04	; 4
     15c:	a0 e6       	ldi	r26, 0x60	; 96
     15e:	b0 e0       	ldi	r27, 0x00	; 0
     160:	ee e6       	ldi	r30, 0x6E	; 110
     162:	f9 e7       	ldi	r31, 0x79	; 121
     164:	02 c0       	rjmp	.+4      	; 0x16a <.do_copy_data_start>

00000166 <.do_copy_data_loop>:
     166:	05 90       	lpm	r0, Z+
     168:	0d 92       	st	X+, r0

0000016a <.do_copy_data_start>:
     16a:	a2 34       	cpi	r26, 0x42	; 66
     16c:	b1 07       	cpc	r27, r17
     16e:	d9 f7       	brne	.-10     	; 0x166 <.do_copy_data_loop>

00000170 <__do_clear_bss>:
     170:	14 e0       	ldi	r17, 0x04	; 4
     172:	a2 e4       	ldi	r26, 0x42	; 66
     174:	b4 e0       	ldi	r27, 0x04	; 4
     176:	01 c0       	rjmp	.+2      	; 0x17a <.do_clear_bss_start>

00000178 <.do_clear_bss_loop>:
     178:	1d 92       	st	X+, r1

0000017a <.do_clear_bss_start>:
     17a:	a3 34       	cpi	r26, 0x43	; 67
     17c:	b1 07       	cpc	r27, r17
     17e:	e1 f7       	brne	.-8      	; 0x178 <.do_clear_bss_loop>
     180:	0e 94 94 07 	call	0xf28	; 0xf28 <main>
     184:	0c 94 b5 3c 	jmp	0x796a	; 0x796a <_exit>

00000188 <__bad_interrupt>:
     188:	0c 94 00 00 	jmp	0	; 0x0 <__vectors>

0000018c <__fixunssfsi>:
     18c:	ef 92       	push	r14
     18e:	ff 92       	push	r15
     190:	0f 93       	push	r16
     192:	1f 93       	push	r17
     194:	7b 01       	movw	r14, r22
     196:	8c 01       	movw	r16, r24
     198:	20 e0       	ldi	r18, 0x00	; 0
     19a:	30 e0       	ldi	r19, 0x00	; 0
     19c:	40 e0       	ldi	r20, 0x00	; 0
     19e:	5f e4       	ldi	r21, 0x4F	; 79
     1a0:	0e 94 72 04 	call	0x8e4	; 0x8e4 <__gesf2>
     1a4:	88 23       	and	r24, r24
     1a6:	8c f0       	brlt	.+34     	; 0x1ca <__fixunssfsi+0x3e>
     1a8:	c8 01       	movw	r24, r16
     1aa:	b7 01       	movw	r22, r14
     1ac:	20 e0       	ldi	r18, 0x00	; 0
     1ae:	30 e0       	ldi	r19, 0x00	; 0
     1b0:	40 e0       	ldi	r20, 0x00	; 0
     1b2:	5f e4       	ldi	r21, 0x4F	; 79
     1b4:	0e 94 3e 02 	call	0x47c	; 0x47c <__subsf3>
     1b8:	0e 94 d2 04 	call	0x9a4	; 0x9a4 <__fixsfsi>
     1bc:	9b 01       	movw	r18, r22
     1be:	ac 01       	movw	r20, r24
     1c0:	20 50       	subi	r18, 0x00	; 0
     1c2:	30 40       	sbci	r19, 0x00	; 0
     1c4:	40 40       	sbci	r20, 0x00	; 0
     1c6:	50 48       	sbci	r21, 0x80	; 128
     1c8:	06 c0       	rjmp	.+12     	; 0x1d6 <__fixunssfsi+0x4a>
     1ca:	c8 01       	movw	r24, r16
     1cc:	b7 01       	movw	r22, r14
     1ce:	0e 94 d2 04 	call	0x9a4	; 0x9a4 <__fixsfsi>
     1d2:	9b 01       	movw	r18, r22
     1d4:	ac 01       	movw	r20, r24
     1d6:	b9 01       	movw	r22, r18
     1d8:	ca 01       	movw	r24, r20
     1da:	1f 91       	pop	r17
     1dc:	0f 91       	pop	r16
     1de:	ff 90       	pop	r15
     1e0:	ef 90       	pop	r14
     1e2:	08 95       	ret

000001e4 <_fpadd_parts>:
     1e4:	a0 e0       	ldi	r26, 0x00	; 0
     1e6:	b0 e0       	ldi	r27, 0x00	; 0
     1e8:	e8 ef       	ldi	r30, 0xF8	; 248
     1ea:	f0 e0       	ldi	r31, 0x00	; 0
     1ec:	0c 94 82 37 	jmp	0x6f04	; 0x6f04 <__prologue_saves__>
     1f0:	dc 01       	movw	r26, r24
     1f2:	2b 01       	movw	r4, r22
     1f4:	fa 01       	movw	r30, r20
     1f6:	9c 91       	ld	r25, X
     1f8:	92 30       	cpi	r25, 0x02	; 2
     1fa:	08 f4       	brcc	.+2      	; 0x1fe <_fpadd_parts+0x1a>
     1fc:	39 c1       	rjmp	.+626    	; 0x470 <_fpadd_parts+0x28c>
     1fe:	eb 01       	movw	r28, r22
     200:	88 81       	ld	r24, Y
     202:	82 30       	cpi	r24, 0x02	; 2
     204:	08 f4       	brcc	.+2      	; 0x208 <_fpadd_parts+0x24>
     206:	33 c1       	rjmp	.+614    	; 0x46e <_fpadd_parts+0x28a>
     208:	94 30       	cpi	r25, 0x04	; 4
     20a:	69 f4       	brne	.+26     	; 0x226 <_fpadd_parts+0x42>
     20c:	84 30       	cpi	r24, 0x04	; 4
     20e:	09 f0       	breq	.+2      	; 0x212 <_fpadd_parts+0x2e>
     210:	2f c1       	rjmp	.+606    	; 0x470 <_fpadd_parts+0x28c>
     212:	11 96       	adiw	r26, 0x01	; 1
     214:	9c 91       	ld	r25, X
     216:	11 97       	sbiw	r26, 0x01	; 1
     218:	89 81       	ldd	r24, Y+1	; 0x01
     21a:	98 17       	cp	r25, r24
     21c:	09 f4       	brne	.+2      	; 0x220 <_fpadd_parts+0x3c>
     21e:	28 c1       	rjmp	.+592    	; 0x470 <_fpadd_parts+0x28c>
     220:	a7 e2       	ldi	r26, 0x27	; 39
     222:	b3 e0       	ldi	r27, 0x03	; 3
     224:	25 c1       	rjmp	.+586    	; 0x470 <_fpadd_parts+0x28c>
     226:	84 30       	cpi	r24, 0x04	; 4
     228:	09 f4       	brne	.+2      	; 0x22c <_fpadd_parts+0x48>
     22a:	21 c1       	rjmp	.+578    	; 0x46e <_fpadd_parts+0x28a>
     22c:	82 30       	cpi	r24, 0x02	; 2
     22e:	a9 f4       	brne	.+42     	; 0x25a <_fpadd_parts+0x76>
     230:	92 30       	cpi	r25, 0x02	; 2
     232:	09 f0       	breq	.+2      	; 0x236 <_fpadd_parts+0x52>
     234:	1d c1       	rjmp	.+570    	; 0x470 <_fpadd_parts+0x28c>
     236:	9a 01       	movw	r18, r20
     238:	ad 01       	movw	r20, r26
     23a:	88 e0       	ldi	r24, 0x08	; 8
     23c:	ea 01       	movw	r28, r20
     23e:	09 90       	ld	r0, Y+
     240:	ae 01       	movw	r20, r28
     242:	e9 01       	movw	r28, r18
     244:	09 92       	st	Y+, r0
     246:	9e 01       	movw	r18, r28
     248:	81 50       	subi	r24, 0x01	; 1
     24a:	c1 f7       	brne	.-16     	; 0x23c <_fpadd_parts+0x58>
     24c:	e2 01       	movw	r28, r4
     24e:	89 81       	ldd	r24, Y+1	; 0x01
     250:	11 96       	adiw	r26, 0x01	; 1
     252:	9c 91       	ld	r25, X
     254:	89 23       	and	r24, r25
     256:	81 83       	std	Z+1, r24	; 0x01
     258:	08 c1       	rjmp	.+528    	; 0x46a <_fpadd_parts+0x286>
     25a:	92 30       	cpi	r25, 0x02	; 2
     25c:	09 f4       	brne	.+2      	; 0x260 <_fpadd_parts+0x7c>
     25e:	07 c1       	rjmp	.+526    	; 0x46e <_fpadd_parts+0x28a>
     260:	12 96       	adiw	r26, 0x02	; 2
     262:	2d 90       	ld	r2, X+
     264:	3c 90       	ld	r3, X
     266:	13 97       	sbiw	r26, 0x03	; 3
     268:	eb 01       	movw	r28, r22
     26a:	8a 81       	ldd	r24, Y+2	; 0x02
     26c:	9b 81       	ldd	r25, Y+3	; 0x03
     26e:	14 96       	adiw	r26, 0x04	; 4
     270:	ad 90       	ld	r10, X+
     272:	bd 90       	ld	r11, X+
     274:	cd 90       	ld	r12, X+
     276:	dc 90       	ld	r13, X
     278:	17 97       	sbiw	r26, 0x07	; 7
     27a:	ec 80       	ldd	r14, Y+4	; 0x04
     27c:	fd 80       	ldd	r15, Y+5	; 0x05
     27e:	0e 81       	ldd	r16, Y+6	; 0x06
     280:	1f 81       	ldd	r17, Y+7	; 0x07
     282:	91 01       	movw	r18, r2
     284:	28 1b       	sub	r18, r24
     286:	39 0b       	sbc	r19, r25
     288:	b9 01       	movw	r22, r18
     28a:	37 ff       	sbrs	r19, 7
     28c:	04 c0       	rjmp	.+8      	; 0x296 <_fpadd_parts+0xb2>
     28e:	66 27       	eor	r22, r22
     290:	77 27       	eor	r23, r23
     292:	62 1b       	sub	r22, r18
     294:	73 0b       	sbc	r23, r19
     296:	60 32       	cpi	r22, 0x20	; 32
     298:	71 05       	cpc	r23, r1
     29a:	0c f0       	brlt	.+2      	; 0x29e <_fpadd_parts+0xba>
     29c:	61 c0       	rjmp	.+194    	; 0x360 <_fpadd_parts+0x17c>
     29e:	12 16       	cp	r1, r18
     2a0:	13 06       	cpc	r1, r19
     2a2:	6c f5       	brge	.+90     	; 0x2fe <_fpadd_parts+0x11a>
     2a4:	37 01       	movw	r6, r14
     2a6:	48 01       	movw	r8, r16
     2a8:	06 2e       	mov	r0, r22
     2aa:	04 c0       	rjmp	.+8      	; 0x2b4 <_fpadd_parts+0xd0>
     2ac:	96 94       	lsr	r9
     2ae:	87 94       	ror	r8
     2b0:	77 94       	ror	r7
     2b2:	67 94       	ror	r6
     2b4:	0a 94       	dec	r0
     2b6:	d2 f7       	brpl	.-12     	; 0x2ac <_fpadd_parts+0xc8>
     2b8:	21 e0       	ldi	r18, 0x01	; 1
     2ba:	30 e0       	ldi	r19, 0x00	; 0
     2bc:	40 e0       	ldi	r20, 0x00	; 0
     2be:	50 e0       	ldi	r21, 0x00	; 0
     2c0:	04 c0       	rjmp	.+8      	; 0x2ca <_fpadd_parts+0xe6>
     2c2:	22 0f       	add	r18, r18
     2c4:	33 1f       	adc	r19, r19
     2c6:	44 1f       	adc	r20, r20
     2c8:	55 1f       	adc	r21, r21
     2ca:	6a 95       	dec	r22
     2cc:	d2 f7       	brpl	.-12     	; 0x2c2 <_fpadd_parts+0xde>
     2ce:	21 50       	subi	r18, 0x01	; 1
     2d0:	30 40       	sbci	r19, 0x00	; 0
     2d2:	40 40       	sbci	r20, 0x00	; 0
     2d4:	50 40       	sbci	r21, 0x00	; 0
     2d6:	2e 21       	and	r18, r14
     2d8:	3f 21       	and	r19, r15
     2da:	40 23       	and	r20, r16
     2dc:	51 23       	and	r21, r17
     2de:	21 15       	cp	r18, r1
     2e0:	31 05       	cpc	r19, r1
     2e2:	41 05       	cpc	r20, r1
     2e4:	51 05       	cpc	r21, r1
     2e6:	21 f0       	breq	.+8      	; 0x2f0 <_fpadd_parts+0x10c>
     2e8:	21 e0       	ldi	r18, 0x01	; 1
     2ea:	30 e0       	ldi	r19, 0x00	; 0
     2ec:	40 e0       	ldi	r20, 0x00	; 0
     2ee:	50 e0       	ldi	r21, 0x00	; 0
     2f0:	79 01       	movw	r14, r18
     2f2:	8a 01       	movw	r16, r20
     2f4:	e6 28       	or	r14, r6
     2f6:	f7 28       	or	r15, r7
     2f8:	08 29       	or	r16, r8
     2fa:	19 29       	or	r17, r9
     2fc:	3c c0       	rjmp	.+120    	; 0x376 <_fpadd_parts+0x192>
     2fe:	23 2b       	or	r18, r19
     300:	d1 f1       	breq	.+116    	; 0x376 <_fpadd_parts+0x192>
     302:	26 0e       	add	r2, r22
     304:	37 1e       	adc	r3, r23
     306:	35 01       	movw	r6, r10
     308:	46 01       	movw	r8, r12
     30a:	06 2e       	mov	r0, r22
     30c:	04 c0       	rjmp	.+8      	; 0x316 <_fpadd_parts+0x132>
     30e:	96 94       	lsr	r9
     310:	87 94       	ror	r8
     312:	77 94       	ror	r7
     314:	67 94       	ror	r6
     316:	0a 94       	dec	r0
     318:	d2 f7       	brpl	.-12     	; 0x30e <_fpadd_parts+0x12a>
     31a:	21 e0       	ldi	r18, 0x01	; 1
     31c:	30 e0       	ldi	r19, 0x00	; 0
     31e:	40 e0       	ldi	r20, 0x00	; 0
     320:	50 e0       	ldi	r21, 0x00	; 0
     322:	04 c0       	rjmp	.+8      	; 0x32c <_fpadd_parts+0x148>
     324:	22 0f       	add	r18, r18
     326:	33 1f       	adc	r19, r19
     328:	44 1f       	adc	r20, r20
     32a:	55 1f       	adc	r21, r21
     32c:	6a 95       	dec	r22
     32e:	d2 f7       	brpl	.-12     	; 0x324 <_fpadd_parts+0x140>
     330:	21 50       	subi	r18, 0x01	; 1
     332:	30 40       	sbci	r19, 0x00	; 0
     334:	40 40       	sbci	r20, 0x00	; 0
     336:	50 40       	sbci	r21, 0x00	; 0
     338:	2a 21       	and	r18, r10
     33a:	3b 21       	and	r19, r11
     33c:	4c 21       	and	r20, r12
     33e:	5d 21       	and	r21, r13
     340:	21 15       	cp	r18, r1
     342:	31 05       	cpc	r19, r1
     344:	41 05       	cpc	r20, r1
     346:	51 05       	cpc	r21, r1
     348:	21 f0       	breq	.+8      	; 0x352 <_fpadd_parts+0x16e>
     34a:	21 e0       	ldi	r18, 0x01	; 1
     34c:	30 e0       	ldi	r19, 0x00	; 0
     34e:	40 e0       	ldi	r20, 0x00	; 0
     350:	50 e0       	ldi	r21, 0x00	; 0
     352:	59 01       	movw	r10, r18
     354:	6a 01       	movw	r12, r20
     356:	a6 28       	or	r10, r6
     358:	b7 28       	or	r11, r7
     35a:	c8 28       	or	r12, r8
     35c:	d9 28       	or	r13, r9
     35e:	0b c0       	rjmp	.+22     	; 0x376 <_fpadd_parts+0x192>
     360:	82 15       	cp	r24, r2
     362:	93 05       	cpc	r25, r3
     364:	2c f0       	brlt	.+10     	; 0x370 <_fpadd_parts+0x18c>
     366:	1c 01       	movw	r2, r24
     368:	aa 24       	eor	r10, r10
     36a:	bb 24       	eor	r11, r11
     36c:	65 01       	movw	r12, r10
     36e:	03 c0       	rjmp	.+6      	; 0x376 <_fpadd_parts+0x192>
     370:	ee 24       	eor	r14, r14
     372:	ff 24       	eor	r15, r15
     374:	87 01       	movw	r16, r14
     376:	11 96       	adiw	r26, 0x01	; 1
     378:	9c 91       	ld	r25, X
     37a:	d2 01       	movw	r26, r4
     37c:	11 96       	adiw	r26, 0x01	; 1
     37e:	8c 91       	ld	r24, X
     380:	98 17       	cp	r25, r24
     382:	09 f4       	brne	.+2      	; 0x386 <_fpadd_parts+0x1a2>
     384:	45 c0       	rjmp	.+138    	; 0x410 <_fpadd_parts+0x22c>
     386:	99 23       	and	r25, r25
     388:	39 f0       	breq	.+14     	; 0x398 <_fpadd_parts+0x1b4>
     38a:	a8 01       	movw	r20, r16
     38c:	97 01       	movw	r18, r14
     38e:	2a 19       	sub	r18, r10
     390:	3b 09       	sbc	r19, r11
     392:	4c 09       	sbc	r20, r12
     394:	5d 09       	sbc	r21, r13
     396:	06 c0       	rjmp	.+12     	; 0x3a4 <_fpadd_parts+0x1c0>
     398:	a6 01       	movw	r20, r12
     39a:	95 01       	movw	r18, r10
     39c:	2e 19       	sub	r18, r14
     39e:	3f 09       	sbc	r19, r15
     3a0:	40 0b       	sbc	r20, r16
     3a2:	51 0b       	sbc	r21, r17
     3a4:	57 fd       	sbrc	r21, 7
     3a6:	08 c0       	rjmp	.+16     	; 0x3b8 <_fpadd_parts+0x1d4>
     3a8:	11 82       	std	Z+1, r1	; 0x01
     3aa:	33 82       	std	Z+3, r3	; 0x03
     3ac:	22 82       	std	Z+2, r2	; 0x02
     3ae:	24 83       	std	Z+4, r18	; 0x04
     3b0:	35 83       	std	Z+5, r19	; 0x05
     3b2:	46 83       	std	Z+6, r20	; 0x06
     3b4:	57 83       	std	Z+7, r21	; 0x07
     3b6:	1d c0       	rjmp	.+58     	; 0x3f2 <_fpadd_parts+0x20e>
     3b8:	81 e0       	ldi	r24, 0x01	; 1
     3ba:	81 83       	std	Z+1, r24	; 0x01
     3bc:	33 82       	std	Z+3, r3	; 0x03
     3be:	22 82       	std	Z+2, r2	; 0x02
     3c0:	88 27       	eor	r24, r24
     3c2:	99 27       	eor	r25, r25
     3c4:	dc 01       	movw	r26, r24
     3c6:	82 1b       	sub	r24, r18
     3c8:	93 0b       	sbc	r25, r19
     3ca:	a4 0b       	sbc	r26, r20
     3cc:	b5 0b       	sbc	r27, r21
     3ce:	84 83       	std	Z+4, r24	; 0x04
     3d0:	95 83       	std	Z+5, r25	; 0x05
     3d2:	a6 83       	std	Z+6, r26	; 0x06
     3d4:	b7 83       	std	Z+7, r27	; 0x07
     3d6:	0d c0       	rjmp	.+26     	; 0x3f2 <_fpadd_parts+0x20e>
     3d8:	22 0f       	add	r18, r18
     3da:	33 1f       	adc	r19, r19
     3dc:	44 1f       	adc	r20, r20
     3de:	55 1f       	adc	r21, r21
     3e0:	24 83       	std	Z+4, r18	; 0x04
     3e2:	35 83       	std	Z+5, r19	; 0x05
     3e4:	46 83       	std	Z+6, r20	; 0x06
     3e6:	57 83       	std	Z+7, r21	; 0x07
     3e8:	82 81       	ldd	r24, Z+2	; 0x02
     3ea:	93 81       	ldd	r25, Z+3	; 0x03
     3ec:	01 97       	sbiw	r24, 0x01	; 1
     3ee:	93 83       	std	Z+3, r25	; 0x03
     3f0:	82 83       	std	Z+2, r24	; 0x02
     3f2:	24 81       	ldd	r18, Z+4	; 0x04
     3f4:	35 81       	ldd	r19, Z+5	; 0x05
     3f6:	46 81       	ldd	r20, Z+6	; 0x06
     3f8:	57 81       	ldd	r21, Z+7	; 0x07
     3fa:	da 01       	movw	r26, r20
     3fc:	c9 01       	movw	r24, r18
     3fe:	01 97       	sbiw	r24, 0x01	; 1
     400:	a1 09       	sbc	r26, r1
     402:	b1 09       	sbc	r27, r1
     404:	8f 5f       	subi	r24, 0xFF	; 255
     406:	9f 4f       	sbci	r25, 0xFF	; 255
     408:	af 4f       	sbci	r26, 0xFF	; 255
     40a:	bf 43       	sbci	r27, 0x3F	; 63
     40c:	28 f3       	brcs	.-54     	; 0x3d8 <_fpadd_parts+0x1f4>
     40e:	0b c0       	rjmp	.+22     	; 0x426 <_fpadd_parts+0x242>
     410:	91 83       	std	Z+1, r25	; 0x01
     412:	33 82       	std	Z+3, r3	; 0x03
     414:	22 82       	std	Z+2, r2	; 0x02
     416:	ea 0c       	add	r14, r10
     418:	fb 1c       	adc	r15, r11
     41a:	0c 1d       	adc	r16, r12
     41c:	1d 1d       	adc	r17, r13
     41e:	e4 82       	std	Z+4, r14	; 0x04
     420:	f5 82       	std	Z+5, r15	; 0x05
     422:	06 83       	std	Z+6, r16	; 0x06
     424:	17 83       	std	Z+7, r17	; 0x07
     426:	83 e0       	ldi	r24, 0x03	; 3
     428:	80 83       	st	Z, r24
     42a:	24 81       	ldd	r18, Z+4	; 0x04
     42c:	35 81       	ldd	r19, Z+5	; 0x05
     42e:	46 81       	ldd	r20, Z+6	; 0x06
     430:	57 81       	ldd	r21, Z+7	; 0x07
     432:	57 ff       	sbrs	r21, 7
     434:	1a c0       	rjmp	.+52     	; 0x46a <_fpadd_parts+0x286>
     436:	c9 01       	movw	r24, r18
     438:	aa 27       	eor	r26, r26
     43a:	97 fd       	sbrc	r25, 7
     43c:	a0 95       	com	r26
     43e:	ba 2f       	mov	r27, r26
     440:	81 70       	andi	r24, 0x01	; 1
     442:	90 70       	andi	r25, 0x00	; 0
     444:	a0 70       	andi	r26, 0x00	; 0
     446:	b0 70       	andi	r27, 0x00	; 0
     448:	56 95       	lsr	r21
     44a:	47 95       	ror	r20
     44c:	37 95       	ror	r19
     44e:	27 95       	ror	r18
     450:	82 2b       	or	r24, r18
     452:	93 2b       	or	r25, r19
     454:	a4 2b       	or	r26, r20
     456:	b5 2b       	or	r27, r21
     458:	84 83       	std	Z+4, r24	; 0x04
     45a:	95 83       	std	Z+5, r25	; 0x05
     45c:	a6 83       	std	Z+6, r26	; 0x06
     45e:	b7 83       	std	Z+7, r27	; 0x07
     460:	82 81       	ldd	r24, Z+2	; 0x02
     462:	93 81       	ldd	r25, Z+3	; 0x03
     464:	01 96       	adiw	r24, 0x01	; 1
     466:	93 83       	std	Z+3, r25	; 0x03
     468:	82 83       	std	Z+2, r24	; 0x02
     46a:	df 01       	movw	r26, r30
     46c:	01 c0       	rjmp	.+2      	; 0x470 <_fpadd_parts+0x28c>
     46e:	d2 01       	movw	r26, r4
     470:	cd 01       	movw	r24, r26
     472:	cd b7       	in	r28, 0x3d	; 61
     474:	de b7       	in	r29, 0x3e	; 62
     476:	e2 e1       	ldi	r30, 0x12	; 18
     478:	0c 94 9e 37 	jmp	0x6f3c	; 0x6f3c <__epilogue_restores__>

0000047c <__subsf3>:
     47c:	a0 e2       	ldi	r26, 0x20	; 32
     47e:	b0 e0       	ldi	r27, 0x00	; 0
     480:	e4 e4       	ldi	r30, 0x44	; 68
     482:	f2 e0       	ldi	r31, 0x02	; 2
     484:	0c 94 8e 37 	jmp	0x6f1c	; 0x6f1c <__prologue_saves__+0x18>
     488:	69 83       	std	Y+1, r22	; 0x01
     48a:	7a 83       	std	Y+2, r23	; 0x02
     48c:	8b 83       	std	Y+3, r24	; 0x03
     48e:	9c 83       	std	Y+4, r25	; 0x04
     490:	2d 83       	std	Y+5, r18	; 0x05
     492:	3e 83       	std	Y+6, r19	; 0x06
     494:	4f 83       	std	Y+7, r20	; 0x07
     496:	58 87       	std	Y+8, r21	; 0x08
     498:	e9 e0       	ldi	r30, 0x09	; 9
     49a:	ee 2e       	mov	r14, r30
     49c:	f1 2c       	mov	r15, r1
     49e:	ec 0e       	add	r14, r28
     4a0:	fd 1e       	adc	r15, r29
     4a2:	ce 01       	movw	r24, r28
     4a4:	01 96       	adiw	r24, 0x01	; 1
     4a6:	b7 01       	movw	r22, r14
     4a8:	0e 94 c3 06 	call	0xd86	; 0xd86 <__unpack_f>
     4ac:	8e 01       	movw	r16, r28
     4ae:	0f 5e       	subi	r16, 0xEF	; 239
     4b0:	1f 4f       	sbci	r17, 0xFF	; 255
     4b2:	ce 01       	movw	r24, r28
     4b4:	05 96       	adiw	r24, 0x05	; 5
     4b6:	b8 01       	movw	r22, r16
     4b8:	0e 94 c3 06 	call	0xd86	; 0xd86 <__unpack_f>
     4bc:	8a 89       	ldd	r24, Y+18	; 0x12
     4be:	91 e0       	ldi	r25, 0x01	; 1
     4c0:	89 27       	eor	r24, r25
     4c2:	8a 8b       	std	Y+18, r24	; 0x12
     4c4:	c7 01       	movw	r24, r14
     4c6:	b8 01       	movw	r22, r16
     4c8:	ae 01       	movw	r20, r28
     4ca:	47 5e       	subi	r20, 0xE7	; 231
     4cc:	5f 4f       	sbci	r21, 0xFF	; 255
     4ce:	0e 94 f2 00 	call	0x1e4	; 0x1e4 <_fpadd_parts>
     4d2:	0e 94 ee 05 	call	0xbdc	; 0xbdc <__pack_f>
     4d6:	a0 96       	adiw	r28, 0x20	; 32
     4d8:	e6 e0       	ldi	r30, 0x06	; 6
     4da:	0c 94 aa 37 	jmp	0x6f54	; 0x6f54 <__epilogue_restores__+0x18>

000004de <__addsf3>:
     4de:	a0 e2       	ldi	r26, 0x20	; 32
     4e0:	b0 e0       	ldi	r27, 0x00	; 0
     4e2:	e5 e7       	ldi	r30, 0x75	; 117
     4e4:	f2 e0       	ldi	r31, 0x02	; 2
     4e6:	0c 94 8e 37 	jmp	0x6f1c	; 0x6f1c <__prologue_saves__+0x18>
     4ea:	69 83       	std	Y+1, r22	; 0x01
     4ec:	7a 83       	std	Y+2, r23	; 0x02
     4ee:	8b 83       	std	Y+3, r24	; 0x03
     4f0:	9c 83       	std	Y+4, r25	; 0x04
     4f2:	2d 83       	std	Y+5, r18	; 0x05
     4f4:	3e 83       	std	Y+6, r19	; 0x06
     4f6:	4f 83       	std	Y+7, r20	; 0x07
     4f8:	58 87       	std	Y+8, r21	; 0x08
     4fa:	f9 e0       	ldi	r31, 0x09	; 9
     4fc:	ef 2e       	mov	r14, r31
     4fe:	f1 2c       	mov	r15, r1
     500:	ec 0e       	add	r14, r28
     502:	fd 1e       	adc	r15, r29
     504:	ce 01       	movw	r24, r28
     506:	01 96       	adiw	r24, 0x01	; 1
     508:	b7 01       	movw	r22, r14
     50a:	0e 94 c3 06 	call	0xd86	; 0xd86 <__unpack_f>
     50e:	8e 01       	movw	r16, r28
     510:	0f 5e       	subi	r16, 0xEF	; 239
     512:	1f 4f       	sbci	r17, 0xFF	; 255
     514:	ce 01       	movw	r24, r28
     516:	05 96       	adiw	r24, 0x05	; 5
     518:	b8 01       	movw	r22, r16
     51a:	0e 94 c3 06 	call	0xd86	; 0xd86 <__unpack_f>
     51e:	c7 01       	movw	r24, r14
     520:	b8 01       	movw	r22, r16
     522:	ae 01       	movw	r20, r28
     524:	47 5e       	subi	r20, 0xE7	; 231
     526:	5f 4f       	sbci	r21, 0xFF	; 255
     528:	0e 94 f2 00 	call	0x1e4	; 0x1e4 <_fpadd_parts>
     52c:	0e 94 ee 05 	call	0xbdc	; 0xbdc <__pack_f>
     530:	a0 96       	adiw	r28, 0x20	; 32
     532:	e6 e0       	ldi	r30, 0x06	; 6
     534:	0c 94 aa 37 	jmp	0x6f54	; 0x6f54 <__epilogue_restores__+0x18>

00000538 <__mulsf3>:
     538:	a0 e2       	ldi	r26, 0x20	; 32
     53a:	b0 e0       	ldi	r27, 0x00	; 0
     53c:	e2 ea       	ldi	r30, 0xA2	; 162
     53e:	f2 e0       	ldi	r31, 0x02	; 2
     540:	0c 94 82 37 	jmp	0x6f04	; 0x6f04 <__prologue_saves__>
     544:	69 83       	std	Y+1, r22	; 0x01
     546:	7a 83       	std	Y+2, r23	; 0x02
     548:	8b 83       	std	Y+3, r24	; 0x03
     54a:	9c 83       	std	Y+4, r25	; 0x04
     54c:	2d 83       	std	Y+5, r18	; 0x05
     54e:	3e 83       	std	Y+6, r19	; 0x06
     550:	4f 83       	std	Y+7, r20	; 0x07
     552:	58 87       	std	Y+8, r21	; 0x08
     554:	ce 01       	movw	r24, r28
     556:	01 96       	adiw	r24, 0x01	; 1
     558:	be 01       	movw	r22, r28
     55a:	67 5f       	subi	r22, 0xF7	; 247
     55c:	7f 4f       	sbci	r23, 0xFF	; 255
     55e:	0e 94 c3 06 	call	0xd86	; 0xd86 <__unpack_f>
     562:	ce 01       	movw	r24, r28
     564:	05 96       	adiw	r24, 0x05	; 5
     566:	be 01       	movw	r22, r28
     568:	6f 5e       	subi	r22, 0xEF	; 239
     56a:	7f 4f       	sbci	r23, 0xFF	; 255
     56c:	0e 94 c3 06 	call	0xd86	; 0xd86 <__unpack_f>
     570:	99 85       	ldd	r25, Y+9	; 0x09
     572:	92 30       	cpi	r25, 0x02	; 2
     574:	88 f0       	brcs	.+34     	; 0x598 <__mulsf3+0x60>
     576:	89 89       	ldd	r24, Y+17	; 0x11
     578:	82 30       	cpi	r24, 0x02	; 2
     57a:	c8 f0       	brcs	.+50     	; 0x5ae <__mulsf3+0x76>
     57c:	94 30       	cpi	r25, 0x04	; 4
     57e:	19 f4       	brne	.+6      	; 0x586 <__mulsf3+0x4e>
     580:	82 30       	cpi	r24, 0x02	; 2
     582:	51 f4       	brne	.+20     	; 0x598 <__mulsf3+0x60>
     584:	04 c0       	rjmp	.+8      	; 0x58e <__mulsf3+0x56>
     586:	84 30       	cpi	r24, 0x04	; 4
     588:	29 f4       	brne	.+10     	; 0x594 <__mulsf3+0x5c>
     58a:	92 30       	cpi	r25, 0x02	; 2
     58c:	81 f4       	brne	.+32     	; 0x5ae <__mulsf3+0x76>
     58e:	87 e2       	ldi	r24, 0x27	; 39
     590:	93 e0       	ldi	r25, 0x03	; 3
     592:	c6 c0       	rjmp	.+396    	; 0x720 <__mulsf3+0x1e8>
     594:	92 30       	cpi	r25, 0x02	; 2
     596:	49 f4       	brne	.+18     	; 0x5aa <__mulsf3+0x72>
     598:	20 e0       	ldi	r18, 0x00	; 0
     59a:	9a 85       	ldd	r25, Y+10	; 0x0a
     59c:	8a 89       	ldd	r24, Y+18	; 0x12
     59e:	98 13       	cpse	r25, r24
     5a0:	21 e0       	ldi	r18, 0x01	; 1
     5a2:	2a 87       	std	Y+10, r18	; 0x0a
     5a4:	ce 01       	movw	r24, r28
     5a6:	09 96       	adiw	r24, 0x09	; 9
     5a8:	bb c0       	rjmp	.+374    	; 0x720 <__mulsf3+0x1e8>
     5aa:	82 30       	cpi	r24, 0x02	; 2
     5ac:	49 f4       	brne	.+18     	; 0x5c0 <__mulsf3+0x88>
     5ae:	20 e0       	ldi	r18, 0x00	; 0
     5b0:	9a 85       	ldd	r25, Y+10	; 0x0a
     5b2:	8a 89       	ldd	r24, Y+18	; 0x12
     5b4:	98 13       	cpse	r25, r24
     5b6:	21 e0       	ldi	r18, 0x01	; 1
     5b8:	2a 8b       	std	Y+18, r18	; 0x12
     5ba:	ce 01       	movw	r24, r28
     5bc:	41 96       	adiw	r24, 0x11	; 17
     5be:	b0 c0       	rjmp	.+352    	; 0x720 <__mulsf3+0x1e8>
     5c0:	2d 84       	ldd	r2, Y+13	; 0x0d
     5c2:	3e 84       	ldd	r3, Y+14	; 0x0e
     5c4:	4f 84       	ldd	r4, Y+15	; 0x0f
     5c6:	58 88       	ldd	r5, Y+16	; 0x10
     5c8:	6d 88       	ldd	r6, Y+21	; 0x15
     5ca:	7e 88       	ldd	r7, Y+22	; 0x16
     5cc:	8f 88       	ldd	r8, Y+23	; 0x17
     5ce:	98 8c       	ldd	r9, Y+24	; 0x18
     5d0:	ee 24       	eor	r14, r14
     5d2:	ff 24       	eor	r15, r15
     5d4:	87 01       	movw	r16, r14
     5d6:	aa 24       	eor	r10, r10
     5d8:	bb 24       	eor	r11, r11
     5da:	65 01       	movw	r12, r10
     5dc:	40 e0       	ldi	r20, 0x00	; 0
     5de:	50 e0       	ldi	r21, 0x00	; 0
     5e0:	60 e0       	ldi	r22, 0x00	; 0
     5e2:	70 e0       	ldi	r23, 0x00	; 0
     5e4:	e0 e0       	ldi	r30, 0x00	; 0
     5e6:	f0 e0       	ldi	r31, 0x00	; 0
     5e8:	c1 01       	movw	r24, r2
     5ea:	81 70       	andi	r24, 0x01	; 1
     5ec:	90 70       	andi	r25, 0x00	; 0
     5ee:	89 2b       	or	r24, r25
     5f0:	e9 f0       	breq	.+58     	; 0x62c <__mulsf3+0xf4>
     5f2:	e6 0c       	add	r14, r6
     5f4:	f7 1c       	adc	r15, r7
     5f6:	08 1d       	adc	r16, r8
     5f8:	19 1d       	adc	r17, r9
     5fa:	9a 01       	movw	r18, r20
     5fc:	ab 01       	movw	r20, r22
     5fe:	2a 0d       	add	r18, r10
     600:	3b 1d       	adc	r19, r11
     602:	4c 1d       	adc	r20, r12
     604:	5d 1d       	adc	r21, r13
     606:	80 e0       	ldi	r24, 0x00	; 0
     608:	90 e0       	ldi	r25, 0x00	; 0
     60a:	a0 e0       	ldi	r26, 0x00	; 0
     60c:	b0 e0       	ldi	r27, 0x00	; 0
     60e:	e6 14       	cp	r14, r6
     610:	f7 04       	cpc	r15, r7
     612:	08 05       	cpc	r16, r8
     614:	19 05       	cpc	r17, r9
     616:	20 f4       	brcc	.+8      	; 0x620 <__mulsf3+0xe8>
     618:	81 e0       	ldi	r24, 0x01	; 1
     61a:	90 e0       	ldi	r25, 0x00	; 0
     61c:	a0 e0       	ldi	r26, 0x00	; 0
     61e:	b0 e0       	ldi	r27, 0x00	; 0
     620:	ba 01       	movw	r22, r20
     622:	a9 01       	movw	r20, r18
     624:	48 0f       	add	r20, r24
     626:	59 1f       	adc	r21, r25
     628:	6a 1f       	adc	r22, r26
     62a:	7b 1f       	adc	r23, r27
     62c:	aa 0c       	add	r10, r10
     62e:	bb 1c       	adc	r11, r11
     630:	cc 1c       	adc	r12, r12
     632:	dd 1c       	adc	r13, r13
     634:	97 fe       	sbrs	r9, 7
     636:	08 c0       	rjmp	.+16     	; 0x648 <__mulsf3+0x110>
     638:	81 e0       	ldi	r24, 0x01	; 1
     63a:	90 e0       	ldi	r25, 0x00	; 0
     63c:	a0 e0       	ldi	r26, 0x00	; 0
     63e:	b0 e0       	ldi	r27, 0x00	; 0
     640:	a8 2a       	or	r10, r24
     642:	b9 2a       	or	r11, r25
     644:	ca 2a       	or	r12, r26
     646:	db 2a       	or	r13, r27
     648:	31 96       	adiw	r30, 0x01	; 1
     64a:	e0 32       	cpi	r30, 0x20	; 32
     64c:	f1 05       	cpc	r31, r1
     64e:	49 f0       	breq	.+18     	; 0x662 <__mulsf3+0x12a>
     650:	66 0c       	add	r6, r6
     652:	77 1c       	adc	r7, r7
     654:	88 1c       	adc	r8, r8
     656:	99 1c       	adc	r9, r9
     658:	56 94       	lsr	r5
     65a:	47 94       	ror	r4
     65c:	37 94       	ror	r3
     65e:	27 94       	ror	r2
     660:	c3 cf       	rjmp	.-122    	; 0x5e8 <__mulsf3+0xb0>
     662:	fa 85       	ldd	r31, Y+10	; 0x0a
     664:	ea 89       	ldd	r30, Y+18	; 0x12
     666:	2b 89       	ldd	r18, Y+19	; 0x13
     668:	3c 89       	ldd	r19, Y+20	; 0x14
     66a:	8b 85       	ldd	r24, Y+11	; 0x0b
     66c:	9c 85       	ldd	r25, Y+12	; 0x0c
     66e:	28 0f       	add	r18, r24
     670:	39 1f       	adc	r19, r25
     672:	2e 5f       	subi	r18, 0xFE	; 254
     674:	3f 4f       	sbci	r19, 0xFF	; 255
     676:	17 c0       	rjmp	.+46     	; 0x6a6 <__mulsf3+0x16e>
     678:	ca 01       	movw	r24, r20
     67a:	81 70       	andi	r24, 0x01	; 1
     67c:	90 70       	andi	r25, 0x00	; 0
     67e:	89 2b       	or	r24, r25
     680:	61 f0       	breq	.+24     	; 0x69a <__mulsf3+0x162>
     682:	16 95       	lsr	r17
     684:	07 95       	ror	r16
     686:	f7 94       	ror	r15
     688:	e7 94       	ror	r14
     68a:	80 e0       	ldi	r24, 0x00	; 0
     68c:	90 e0       	ldi	r25, 0x00	; 0
     68e:	a0 e0       	ldi	r26, 0x00	; 0
     690:	b0 e8       	ldi	r27, 0x80	; 128
     692:	e8 2a       	or	r14, r24
     694:	f9 2a       	or	r15, r25
     696:	0a 2b       	or	r16, r26
     698:	1b 2b       	or	r17, r27
     69a:	76 95       	lsr	r23
     69c:	67 95       	ror	r22
     69e:	57 95       	ror	r21
     6a0:	47 95       	ror	r20
     6a2:	2f 5f       	subi	r18, 0xFF	; 255
     6a4:	3f 4f       	sbci	r19, 0xFF	; 255
     6a6:	77 fd       	sbrc	r23, 7
     6a8:	e7 cf       	rjmp	.-50     	; 0x678 <__mulsf3+0x140>
     6aa:	0c c0       	rjmp	.+24     	; 0x6c4 <__mulsf3+0x18c>
     6ac:	44 0f       	add	r20, r20
     6ae:	55 1f       	adc	r21, r21
     6b0:	66 1f       	adc	r22, r22
     6b2:	77 1f       	adc	r23, r23
     6b4:	17 fd       	sbrc	r17, 7
     6b6:	41 60       	ori	r20, 0x01	; 1
     6b8:	ee 0c       	add	r14, r14
     6ba:	ff 1c       	adc	r15, r15
     6bc:	00 1f       	adc	r16, r16
     6be:	11 1f       	adc	r17, r17
     6c0:	21 50       	subi	r18, 0x01	; 1
     6c2:	30 40       	sbci	r19, 0x00	; 0
     6c4:	40 30       	cpi	r20, 0x00	; 0
     6c6:	90 e0       	ldi	r25, 0x00	; 0
     6c8:	59 07       	cpc	r21, r25
     6ca:	90 e0       	ldi	r25, 0x00	; 0
     6cc:	69 07       	cpc	r22, r25
     6ce:	90 e4       	ldi	r25, 0x40	; 64
     6d0:	79 07       	cpc	r23, r25
     6d2:	60 f3       	brcs	.-40     	; 0x6ac <__mulsf3+0x174>
     6d4:	2b 8f       	std	Y+27, r18	; 0x1b
     6d6:	3c 8f       	std	Y+28, r19	; 0x1c
     6d8:	db 01       	movw	r26, r22
     6da:	ca 01       	movw	r24, r20
     6dc:	8f 77       	andi	r24, 0x7F	; 127
     6de:	90 70       	andi	r25, 0x00	; 0
     6e0:	a0 70       	andi	r26, 0x00	; 0
     6e2:	b0 70       	andi	r27, 0x00	; 0
     6e4:	80 34       	cpi	r24, 0x40	; 64
     6e6:	91 05       	cpc	r25, r1
     6e8:	a1 05       	cpc	r26, r1
     6ea:	b1 05       	cpc	r27, r1
     6ec:	61 f4       	brne	.+24     	; 0x706 <__mulsf3+0x1ce>
     6ee:	47 fd       	sbrc	r20, 7
     6f0:	0a c0       	rjmp	.+20     	; 0x706 <__mulsf3+0x1ce>
     6f2:	e1 14       	cp	r14, r1
     6f4:	f1 04       	cpc	r15, r1
     6f6:	01 05       	cpc	r16, r1
     6f8:	11 05       	cpc	r17, r1
     6fa:	29 f0       	breq	.+10     	; 0x706 <__mulsf3+0x1ce>
     6fc:	40 5c       	subi	r20, 0xC0	; 192
     6fe:	5f 4f       	sbci	r21, 0xFF	; 255
     700:	6f 4f       	sbci	r22, 0xFF	; 255
     702:	7f 4f       	sbci	r23, 0xFF	; 255
     704:	40 78       	andi	r20, 0x80	; 128
     706:	1a 8e       	std	Y+26, r1	; 0x1a
     708:	fe 17       	cp	r31, r30
     70a:	11 f0       	breq	.+4      	; 0x710 <__mulsf3+0x1d8>
     70c:	81 e0       	ldi	r24, 0x01	; 1
     70e:	8a 8f       	std	Y+26, r24	; 0x1a
     710:	4d 8f       	std	Y+29, r20	; 0x1d
     712:	5e 8f       	std	Y+30, r21	; 0x1e
     714:	6f 8f       	std	Y+31, r22	; 0x1f
     716:	78 a3       	std	Y+32, r23	; 0x20
     718:	83 e0       	ldi	r24, 0x03	; 3
     71a:	89 8f       	std	Y+25, r24	; 0x19
     71c:	ce 01       	movw	r24, r28
     71e:	49 96       	adiw	r24, 0x19	; 25
     720:	0e 94 ee 05 	call	0xbdc	; 0xbdc <__pack_f>
     724:	a0 96       	adiw	r28, 0x20	; 32
     726:	e2 e1       	ldi	r30, 0x12	; 18
     728:	0c 94 9e 37 	jmp	0x6f3c	; 0x6f3c <__epilogue_restores__>

0000072c <__divsf3>:
     72c:	a8 e1       	ldi	r26, 0x18	; 24
     72e:	b0 e0       	ldi	r27, 0x00	; 0
     730:	ec e9       	ldi	r30, 0x9C	; 156
     732:	f3 e0       	ldi	r31, 0x03	; 3
     734:	0c 94 8a 37 	jmp	0x6f14	; 0x6f14 <__prologue_saves__+0x10>
     738:	69 83       	std	Y+1, r22	; 0x01
     73a:	7a 83       	std	Y+2, r23	; 0x02
     73c:	8b 83       	std	Y+3, r24	; 0x03
     73e:	9c 83       	std	Y+4, r25	; 0x04
     740:	2d 83       	std	Y+5, r18	; 0x05
     742:	3e 83       	std	Y+6, r19	; 0x06
     744:	4f 83       	std	Y+7, r20	; 0x07
     746:	58 87       	std	Y+8, r21	; 0x08
     748:	b9 e0       	ldi	r27, 0x09	; 9
     74a:	eb 2e       	mov	r14, r27
     74c:	f1 2c       	mov	r15, r1
     74e:	ec 0e       	add	r14, r28
     750:	fd 1e       	adc	r15, r29
     752:	ce 01       	movw	r24, r28
     754:	01 96       	adiw	r24, 0x01	; 1
     756:	b7 01       	movw	r22, r14
     758:	0e 94 c3 06 	call	0xd86	; 0xd86 <__unpack_f>
     75c:	8e 01       	movw	r16, r28
     75e:	0f 5e       	subi	r16, 0xEF	; 239
     760:	1f 4f       	sbci	r17, 0xFF	; 255
     762:	ce 01       	movw	r24, r28
     764:	05 96       	adiw	r24, 0x05	; 5
     766:	b8 01       	movw	r22, r16
     768:	0e 94 c3 06 	call	0xd86	; 0xd86 <__unpack_f>
     76c:	29 85       	ldd	r18, Y+9	; 0x09
     76e:	22 30       	cpi	r18, 0x02	; 2
     770:	08 f4       	brcc	.+2      	; 0x774 <__divsf3+0x48>
     772:	7e c0       	rjmp	.+252    	; 0x870 <__stack+0x11>
     774:	39 89       	ldd	r19, Y+17	; 0x11
     776:	32 30       	cpi	r19, 0x02	; 2
     778:	10 f4       	brcc	.+4      	; 0x77e <__divsf3+0x52>
     77a:	b8 01       	movw	r22, r16
     77c:	7c c0       	rjmp	.+248    	; 0x876 <__stack+0x17>
     77e:	8a 85       	ldd	r24, Y+10	; 0x0a
     780:	9a 89       	ldd	r25, Y+18	; 0x12
     782:	89 27       	eor	r24, r25
     784:	8a 87       	std	Y+10, r24	; 0x0a
     786:	24 30       	cpi	r18, 0x04	; 4
     788:	11 f0       	breq	.+4      	; 0x78e <__divsf3+0x62>
     78a:	22 30       	cpi	r18, 0x02	; 2
     78c:	31 f4       	brne	.+12     	; 0x79a <__divsf3+0x6e>
     78e:	23 17       	cp	r18, r19
     790:	09 f0       	breq	.+2      	; 0x794 <__divsf3+0x68>
     792:	6e c0       	rjmp	.+220    	; 0x870 <__stack+0x11>
     794:	67 e2       	ldi	r22, 0x27	; 39
     796:	73 e0       	ldi	r23, 0x03	; 3
     798:	6e c0       	rjmp	.+220    	; 0x876 <__stack+0x17>
     79a:	34 30       	cpi	r19, 0x04	; 4
     79c:	39 f4       	brne	.+14     	; 0x7ac <__divsf3+0x80>
     79e:	1d 86       	std	Y+13, r1	; 0x0d
     7a0:	1e 86       	std	Y+14, r1	; 0x0e
     7a2:	1f 86       	std	Y+15, r1	; 0x0f
     7a4:	18 8a       	std	Y+16, r1	; 0x10
     7a6:	1c 86       	std	Y+12, r1	; 0x0c
     7a8:	1b 86       	std	Y+11, r1	; 0x0b
     7aa:	04 c0       	rjmp	.+8      	; 0x7b4 <__divsf3+0x88>
     7ac:	32 30       	cpi	r19, 0x02	; 2
     7ae:	21 f4       	brne	.+8      	; 0x7b8 <__divsf3+0x8c>
     7b0:	84 e0       	ldi	r24, 0x04	; 4
     7b2:	89 87       	std	Y+9, r24	; 0x09
     7b4:	b7 01       	movw	r22, r14
     7b6:	5f c0       	rjmp	.+190    	; 0x876 <__stack+0x17>
     7b8:	2b 85       	ldd	r18, Y+11	; 0x0b
     7ba:	3c 85       	ldd	r19, Y+12	; 0x0c
     7bc:	8b 89       	ldd	r24, Y+19	; 0x13
     7be:	9c 89       	ldd	r25, Y+20	; 0x14
     7c0:	28 1b       	sub	r18, r24
     7c2:	39 0b       	sbc	r19, r25
     7c4:	3c 87       	std	Y+12, r19	; 0x0c
     7c6:	2b 87       	std	Y+11, r18	; 0x0b
     7c8:	ed 84       	ldd	r14, Y+13	; 0x0d
     7ca:	fe 84       	ldd	r15, Y+14	; 0x0e
     7cc:	0f 85       	ldd	r16, Y+15	; 0x0f
     7ce:	18 89       	ldd	r17, Y+16	; 0x10
     7d0:	ad 88       	ldd	r10, Y+21	; 0x15
     7d2:	be 88       	ldd	r11, Y+22	; 0x16
     7d4:	cf 88       	ldd	r12, Y+23	; 0x17
     7d6:	d8 8c       	ldd	r13, Y+24	; 0x18
     7d8:	ea 14       	cp	r14, r10
     7da:	fb 04       	cpc	r15, r11
     7dc:	0c 05       	cpc	r16, r12
     7de:	1d 05       	cpc	r17, r13
     7e0:	40 f4       	brcc	.+16     	; 0x7f2 <__divsf3+0xc6>
     7e2:	ee 0c       	add	r14, r14
     7e4:	ff 1c       	adc	r15, r15
     7e6:	00 1f       	adc	r16, r16
     7e8:	11 1f       	adc	r17, r17
     7ea:	21 50       	subi	r18, 0x01	; 1
     7ec:	30 40       	sbci	r19, 0x00	; 0
     7ee:	3c 87       	std	Y+12, r19	; 0x0c
     7f0:	2b 87       	std	Y+11, r18	; 0x0b
     7f2:	20 e0       	ldi	r18, 0x00	; 0
     7f4:	30 e0       	ldi	r19, 0x00	; 0
     7f6:	40 e0       	ldi	r20, 0x00	; 0
     7f8:	50 e0       	ldi	r21, 0x00	; 0
     7fa:	80 e0       	ldi	r24, 0x00	; 0
     7fc:	90 e0       	ldi	r25, 0x00	; 0
     7fe:	a0 e0       	ldi	r26, 0x00	; 0
     800:	b0 e4       	ldi	r27, 0x40	; 64
     802:	60 e0       	ldi	r22, 0x00	; 0
     804:	70 e0       	ldi	r23, 0x00	; 0
     806:	ea 14       	cp	r14, r10
     808:	fb 04       	cpc	r15, r11
     80a:	0c 05       	cpc	r16, r12
     80c:	1d 05       	cpc	r17, r13
     80e:	40 f0       	brcs	.+16     	; 0x820 <__divsf3+0xf4>
     810:	28 2b       	or	r18, r24
     812:	39 2b       	or	r19, r25
     814:	4a 2b       	or	r20, r26
     816:	5b 2b       	or	r21, r27
     818:	ea 18       	sub	r14, r10
     81a:	fb 08       	sbc	r15, r11
     81c:	0c 09       	sbc	r16, r12
     81e:	1d 09       	sbc	r17, r13
     820:	b6 95       	lsr	r27
     822:	a7 95       	ror	r26
     824:	97 95       	ror	r25
     826:	87 95       	ror	r24
     828:	ee 0c       	add	r14, r14
     82a:	ff 1c       	adc	r15, r15
     82c:	00 1f       	adc	r16, r16
     82e:	11 1f       	adc	r17, r17
     830:	6f 5f       	subi	r22, 0xFF	; 255
     832:	7f 4f       	sbci	r23, 0xFF	; 255
     834:	6f 31       	cpi	r22, 0x1F	; 31
     836:	71 05       	cpc	r23, r1
     838:	31 f7       	brne	.-52     	; 0x806 <__divsf3+0xda>
     83a:	da 01       	movw	r26, r20
     83c:	c9 01       	movw	r24, r18
     83e:	8f 77       	andi	r24, 0x7F	; 127
     840:	90 70       	andi	r25, 0x00	; 0
     842:	a0 70       	andi	r26, 0x00	; 0
     844:	b0 70       	andi	r27, 0x00	; 0
     846:	80 34       	cpi	r24, 0x40	; 64
     848:	91 05       	cpc	r25, r1
     84a:	a1 05       	cpc	r26, r1
     84c:	b1 05       	cpc	r27, r1
     84e:	61 f4       	brne	.+24     	; 0x868 <__stack+0x9>
     850:	27 fd       	sbrc	r18, 7
     852:	0a c0       	rjmp	.+20     	; 0x868 <__stack+0x9>
     854:	e1 14       	cp	r14, r1
     856:	f1 04       	cpc	r15, r1
     858:	01 05       	cpc	r16, r1
     85a:	11 05       	cpc	r17, r1
     85c:	29 f0       	breq	.+10     	; 0x868 <__stack+0x9>
     85e:	20 5c       	subi	r18, 0xC0	; 192
     860:	3f 4f       	sbci	r19, 0xFF	; 255
     862:	4f 4f       	sbci	r20, 0xFF	; 255
     864:	5f 4f       	sbci	r21, 0xFF	; 255
     866:	20 78       	andi	r18, 0x80	; 128
     868:	2d 87       	std	Y+13, r18	; 0x0d
     86a:	3e 87       	std	Y+14, r19	; 0x0e
     86c:	4f 87       	std	Y+15, r20	; 0x0f
     86e:	58 8b       	std	Y+16, r21	; 0x10
     870:	be 01       	movw	r22, r28
     872:	67 5f       	subi	r22, 0xF7	; 247
     874:	7f 4f       	sbci	r23, 0xFF	; 255
     876:	cb 01       	movw	r24, r22
     878:	0e 94 ee 05 	call	0xbdc	; 0xbdc <__pack_f>
     87c:	68 96       	adiw	r28, 0x18	; 24
     87e:	ea e0       	ldi	r30, 0x0A	; 10
     880:	0c 94 a6 37 	jmp	0x6f4c	; 0x6f4c <__epilogue_restores__+0x10>

00000884 <__gtsf2>:
     884:	a8 e1       	ldi	r26, 0x18	; 24
     886:	b0 e0       	ldi	r27, 0x00	; 0
     888:	e8 e4       	ldi	r30, 0x48	; 72
     88a:	f4 e0       	ldi	r31, 0x04	; 4
     88c:	0c 94 8e 37 	jmp	0x6f1c	; 0x6f1c <__prologue_saves__+0x18>
     890:	69 83       	std	Y+1, r22	; 0x01
     892:	7a 83       	std	Y+2, r23	; 0x02
     894:	8b 83       	std	Y+3, r24	; 0x03
     896:	9c 83       	std	Y+4, r25	; 0x04
     898:	2d 83       	std	Y+5, r18	; 0x05
     89a:	3e 83       	std	Y+6, r19	; 0x06
     89c:	4f 83       	std	Y+7, r20	; 0x07
     89e:	58 87       	std	Y+8, r21	; 0x08
     8a0:	89 e0       	ldi	r24, 0x09	; 9
     8a2:	e8 2e       	mov	r14, r24
     8a4:	f1 2c       	mov	r15, r1
     8a6:	ec 0e       	add	r14, r28
     8a8:	fd 1e       	adc	r15, r29
     8aa:	ce 01       	movw	r24, r28
     8ac:	01 96       	adiw	r24, 0x01	; 1
     8ae:	b7 01       	movw	r22, r14
     8b0:	0e 94 c3 06 	call	0xd86	; 0xd86 <__unpack_f>
     8b4:	8e 01       	movw	r16, r28
     8b6:	0f 5e       	subi	r16, 0xEF	; 239
     8b8:	1f 4f       	sbci	r17, 0xFF	; 255
     8ba:	ce 01       	movw	r24, r28
     8bc:	05 96       	adiw	r24, 0x05	; 5
     8be:	b8 01       	movw	r22, r16
     8c0:	0e 94 c3 06 	call	0xd86	; 0xd86 <__unpack_f>
     8c4:	89 85       	ldd	r24, Y+9	; 0x09
     8c6:	82 30       	cpi	r24, 0x02	; 2
     8c8:	40 f0       	brcs	.+16     	; 0x8da <__gtsf2+0x56>
     8ca:	89 89       	ldd	r24, Y+17	; 0x11
     8cc:	82 30       	cpi	r24, 0x02	; 2
     8ce:	28 f0       	brcs	.+10     	; 0x8da <__gtsf2+0x56>
     8d0:	c7 01       	movw	r24, r14
     8d2:	b8 01       	movw	r22, r16
     8d4:	0e 94 3b 07 	call	0xe76	; 0xe76 <__fpcmp_parts_f>
     8d8:	01 c0       	rjmp	.+2      	; 0x8dc <__gtsf2+0x58>
     8da:	8f ef       	ldi	r24, 0xFF	; 255
     8dc:	68 96       	adiw	r28, 0x18	; 24
     8de:	e6 e0       	ldi	r30, 0x06	; 6
     8e0:	0c 94 aa 37 	jmp	0x6f54	; 0x6f54 <__epilogue_restores__+0x18>

000008e4 <__gesf2>:
     8e4:	a8 e1       	ldi	r26, 0x18	; 24
     8e6:	b0 e0       	ldi	r27, 0x00	; 0
     8e8:	e8 e7       	ldi	r30, 0x78	; 120
     8ea:	f4 e0       	ldi	r31, 0x04	; 4
     8ec:	0c 94 8e 37 	jmp	0x6f1c	; 0x6f1c <__prologue_saves__+0x18>
     8f0:	69 83       	std	Y+1, r22	; 0x01
     8f2:	7a 83       	std	Y+2, r23	; 0x02
     8f4:	8b 83       	std	Y+3, r24	; 0x03
     8f6:	9c 83       	std	Y+4, r25	; 0x04
     8f8:	2d 83       	std	Y+5, r18	; 0x05
     8fa:	3e 83       	std	Y+6, r19	; 0x06
     8fc:	4f 83       	std	Y+7, r20	; 0x07
     8fe:	58 87       	std	Y+8, r21	; 0x08
     900:	89 e0       	ldi	r24, 0x09	; 9
     902:	e8 2e       	mov	r14, r24
     904:	f1 2c       	mov	r15, r1
     906:	ec 0e       	add	r14, r28
     908:	fd 1e       	adc	r15, r29
     90a:	ce 01       	movw	r24, r28
     90c:	01 96       	adiw	r24, 0x01	; 1
     90e:	b7 01       	movw	r22, r14
     910:	0e 94 c3 06 	call	0xd86	; 0xd86 <__unpack_f>
     914:	8e 01       	movw	r16, r28
     916:	0f 5e       	subi	r16, 0xEF	; 239
     918:	1f 4f       	sbci	r17, 0xFF	; 255
     91a:	ce 01       	movw	r24, r28
     91c:	05 96       	adiw	r24, 0x05	; 5
     91e:	b8 01       	movw	r22, r16
     920:	0e 94 c3 06 	call	0xd86	; 0xd86 <__unpack_f>
     924:	89 85       	ldd	r24, Y+9	; 0x09
     926:	82 30       	cpi	r24, 0x02	; 2
     928:	40 f0       	brcs	.+16     	; 0x93a <__gesf2+0x56>
     92a:	89 89       	ldd	r24, Y+17	; 0x11
     92c:	82 30       	cpi	r24, 0x02	; 2
     92e:	28 f0       	brcs	.+10     	; 0x93a <__gesf2+0x56>
     930:	c7 01       	movw	r24, r14
     932:	b8 01       	movw	r22, r16
     934:	0e 94 3b 07 	call	0xe76	; 0xe76 <__fpcmp_parts_f>
     938:	01 c0       	rjmp	.+2      	; 0x93c <__gesf2+0x58>
     93a:	8f ef       	ldi	r24, 0xFF	; 255
     93c:	68 96       	adiw	r28, 0x18	; 24
     93e:	e6 e0       	ldi	r30, 0x06	; 6
     940:	0c 94 aa 37 	jmp	0x6f54	; 0x6f54 <__epilogue_restores__+0x18>

00000944 <__ltsf2>:
     944:	a8 e1       	ldi	r26, 0x18	; 24
     946:	b0 e0       	ldi	r27, 0x00	; 0
     948:	e8 ea       	ldi	r30, 0xA8	; 168
     94a:	f4 e0       	ldi	r31, 0x04	; 4
     94c:	0c 94 8e 37 	jmp	0x6f1c	; 0x6f1c <__prologue_saves__+0x18>
     950:	69 83       	std	Y+1, r22	; 0x01
     952:	7a 83       	std	Y+2, r23	; 0x02
     954:	8b 83       	std	Y+3, r24	; 0x03
     956:	9c 83       	std	Y+4, r25	; 0x04
     958:	2d 83       	std	Y+5, r18	; 0x05
     95a:	3e 83       	std	Y+6, r19	; 0x06
     95c:	4f 83       	std	Y+7, r20	; 0x07
     95e:	58 87       	std	Y+8, r21	; 0x08
     960:	89 e0       	ldi	r24, 0x09	; 9
     962:	e8 2e       	mov	r14, r24
     964:	f1 2c       	mov	r15, r1
     966:	ec 0e       	add	r14, r28
     968:	fd 1e       	adc	r15, r29
     96a:	ce 01       	movw	r24, r28
     96c:	01 96       	adiw	r24, 0x01	; 1
     96e:	b7 01       	movw	r22, r14
     970:	0e 94 c3 06 	call	0xd86	; 0xd86 <__unpack_f>
     974:	8e 01       	movw	r16, r28
     976:	0f 5e       	subi	r16, 0xEF	; 239
     978:	1f 4f       	sbci	r17, 0xFF	; 255
     97a:	ce 01       	movw	r24, r28
     97c:	05 96       	adiw	r24, 0x05	; 5
     97e:	b8 01       	movw	r22, r16
     980:	0e 94 c3 06 	call	0xd86	; 0xd86 <__unpack_f>
     984:	89 85       	ldd	r24, Y+9	; 0x09
     986:	82 30       	cpi	r24, 0x02	; 2
     988:	40 f0       	brcs	.+16     	; 0x99a <__ltsf2+0x56>
     98a:	89 89       	ldd	r24, Y+17	; 0x11
     98c:	82 30       	cpi	r24, 0x02	; 2
     98e:	28 f0       	brcs	.+10     	; 0x99a <__ltsf2+0x56>
     990:	c7 01       	movw	r24, r14
     992:	b8 01       	movw	r22, r16
     994:	0e 94 3b 07 	call	0xe76	; 0xe76 <__fpcmp_parts_f>
     998:	01 c0       	rjmp	.+2      	; 0x99c <__ltsf2+0x58>
     99a:	81 e0       	ldi	r24, 0x01	; 1
     99c:	68 96       	adiw	r28, 0x18	; 24
     99e:	e6 e0       	ldi	r30, 0x06	; 6
     9a0:	0c 94 aa 37 	jmp	0x6f54	; 0x6f54 <__epilogue_restores__+0x18>

000009a4 <__fixsfsi>:
     9a4:	ac e0       	ldi	r26, 0x0C	; 12
     9a6:	b0 e0       	ldi	r27, 0x00	; 0
     9a8:	e8 ed       	ldi	r30, 0xD8	; 216
     9aa:	f4 e0       	ldi	r31, 0x04	; 4
     9ac:	0c 94 92 37 	jmp	0x6f24	; 0x6f24 <__prologue_saves__+0x20>
     9b0:	69 83       	std	Y+1, r22	; 0x01
     9b2:	7a 83       	std	Y+2, r23	; 0x02
     9b4:	8b 83       	std	Y+3, r24	; 0x03
     9b6:	9c 83       	std	Y+4, r25	; 0x04
     9b8:	ce 01       	movw	r24, r28
     9ba:	01 96       	adiw	r24, 0x01	; 1
     9bc:	be 01       	movw	r22, r28
     9be:	6b 5f       	subi	r22, 0xFB	; 251
     9c0:	7f 4f       	sbci	r23, 0xFF	; 255
     9c2:	0e 94 c3 06 	call	0xd86	; 0xd86 <__unpack_f>
     9c6:	8d 81       	ldd	r24, Y+5	; 0x05
     9c8:	82 30       	cpi	r24, 0x02	; 2
     9ca:	61 f1       	breq	.+88     	; 0xa24 <__fixsfsi+0x80>
     9cc:	82 30       	cpi	r24, 0x02	; 2
     9ce:	50 f1       	brcs	.+84     	; 0xa24 <__fixsfsi+0x80>
     9d0:	84 30       	cpi	r24, 0x04	; 4
     9d2:	21 f4       	brne	.+8      	; 0x9dc <__fixsfsi+0x38>
     9d4:	8e 81       	ldd	r24, Y+6	; 0x06
     9d6:	88 23       	and	r24, r24
     9d8:	51 f1       	breq	.+84     	; 0xa2e <__fixsfsi+0x8a>
     9da:	2e c0       	rjmp	.+92     	; 0xa38 <__fixsfsi+0x94>
     9dc:	2f 81       	ldd	r18, Y+7	; 0x07
     9de:	38 85       	ldd	r19, Y+8	; 0x08
     9e0:	37 fd       	sbrc	r19, 7
     9e2:	20 c0       	rjmp	.+64     	; 0xa24 <__fixsfsi+0x80>
     9e4:	6e 81       	ldd	r22, Y+6	; 0x06
     9e6:	2f 31       	cpi	r18, 0x1F	; 31
     9e8:	31 05       	cpc	r19, r1
     9ea:	1c f0       	brlt	.+6      	; 0x9f2 <__fixsfsi+0x4e>
     9ec:	66 23       	and	r22, r22
     9ee:	f9 f0       	breq	.+62     	; 0xa2e <__fixsfsi+0x8a>
     9f0:	23 c0       	rjmp	.+70     	; 0xa38 <__fixsfsi+0x94>
     9f2:	8e e1       	ldi	r24, 0x1E	; 30
     9f4:	90 e0       	ldi	r25, 0x00	; 0
     9f6:	82 1b       	sub	r24, r18
     9f8:	93 0b       	sbc	r25, r19
     9fa:	29 85       	ldd	r18, Y+9	; 0x09
     9fc:	3a 85       	ldd	r19, Y+10	; 0x0a
     9fe:	4b 85       	ldd	r20, Y+11	; 0x0b
     a00:	5c 85       	ldd	r21, Y+12	; 0x0c
     a02:	04 c0       	rjmp	.+8      	; 0xa0c <__fixsfsi+0x68>
     a04:	56 95       	lsr	r21
     a06:	47 95       	ror	r20
     a08:	37 95       	ror	r19
     a0a:	27 95       	ror	r18
     a0c:	8a 95       	dec	r24
     a0e:	d2 f7       	brpl	.-12     	; 0xa04 <__fixsfsi+0x60>
     a10:	66 23       	and	r22, r22
     a12:	b1 f0       	breq	.+44     	; 0xa40 <__fixsfsi+0x9c>
     a14:	50 95       	com	r21
     a16:	40 95       	com	r20
     a18:	30 95       	com	r19
     a1a:	21 95       	neg	r18
     a1c:	3f 4f       	sbci	r19, 0xFF	; 255
     a1e:	4f 4f       	sbci	r20, 0xFF	; 255
     a20:	5f 4f       	sbci	r21, 0xFF	; 255
     a22:	0e c0       	rjmp	.+28     	; 0xa40 <__fixsfsi+0x9c>
     a24:	20 e0       	ldi	r18, 0x00	; 0
     a26:	30 e0       	ldi	r19, 0x00	; 0
     a28:	40 e0       	ldi	r20, 0x00	; 0
     a2a:	50 e0       	ldi	r21, 0x00	; 0
     a2c:	09 c0       	rjmp	.+18     	; 0xa40 <__fixsfsi+0x9c>
     a2e:	2f ef       	ldi	r18, 0xFF	; 255
     a30:	3f ef       	ldi	r19, 0xFF	; 255
     a32:	4f ef       	ldi	r20, 0xFF	; 255
     a34:	5f e7       	ldi	r21, 0x7F	; 127
     a36:	04 c0       	rjmp	.+8      	; 0xa40 <__fixsfsi+0x9c>
     a38:	20 e0       	ldi	r18, 0x00	; 0
     a3a:	30 e0       	ldi	r19, 0x00	; 0
     a3c:	40 e0       	ldi	r20, 0x00	; 0
     a3e:	50 e8       	ldi	r21, 0x80	; 128
     a40:	b9 01       	movw	r22, r18
     a42:	ca 01       	movw	r24, r20
     a44:	2c 96       	adiw	r28, 0x0c	; 12
     a46:	e2 e0       	ldi	r30, 0x02	; 2
     a48:	0c 94 ae 37 	jmp	0x6f5c	; 0x6f5c <__epilogue_restores__+0x20>

00000a4c <__floatunsisf>:
     a4c:	a8 e0       	ldi	r26, 0x08	; 8
     a4e:	b0 e0       	ldi	r27, 0x00	; 0
     a50:	ec e2       	ldi	r30, 0x2C	; 44
     a52:	f5 e0       	ldi	r31, 0x05	; 5
     a54:	0c 94 8a 37 	jmp	0x6f14	; 0x6f14 <__prologue_saves__+0x10>
     a58:	7b 01       	movw	r14, r22
     a5a:	8c 01       	movw	r16, r24
     a5c:	61 15       	cp	r22, r1
     a5e:	71 05       	cpc	r23, r1
     a60:	81 05       	cpc	r24, r1
     a62:	91 05       	cpc	r25, r1
     a64:	19 f4       	brne	.+6      	; 0xa6c <__floatunsisf+0x20>
     a66:	82 e0       	ldi	r24, 0x02	; 2
     a68:	89 83       	std	Y+1, r24	; 0x01
     a6a:	60 c0       	rjmp	.+192    	; 0xb2c <__floatunsisf+0xe0>
     a6c:	83 e0       	ldi	r24, 0x03	; 3
     a6e:	89 83       	std	Y+1, r24	; 0x01
     a70:	8e e1       	ldi	r24, 0x1E	; 30
     a72:	c8 2e       	mov	r12, r24
     a74:	d1 2c       	mov	r13, r1
     a76:	dc 82       	std	Y+4, r13	; 0x04
     a78:	cb 82       	std	Y+3, r12	; 0x03
     a7a:	ed 82       	std	Y+5, r14	; 0x05
     a7c:	fe 82       	std	Y+6, r15	; 0x06
     a7e:	0f 83       	std	Y+7, r16	; 0x07
     a80:	18 87       	std	Y+8, r17	; 0x08
     a82:	c8 01       	movw	r24, r16
     a84:	b7 01       	movw	r22, r14
     a86:	0e 94 9f 05 	call	0xb3e	; 0xb3e <__clzsi2>
     a8a:	fc 01       	movw	r30, r24
     a8c:	31 97       	sbiw	r30, 0x01	; 1
     a8e:	f7 ff       	sbrs	r31, 7
     a90:	3b c0       	rjmp	.+118    	; 0xb08 <__floatunsisf+0xbc>
     a92:	22 27       	eor	r18, r18
     a94:	33 27       	eor	r19, r19
     a96:	2e 1b       	sub	r18, r30
     a98:	3f 0b       	sbc	r19, r31
     a9a:	57 01       	movw	r10, r14
     a9c:	68 01       	movw	r12, r16
     a9e:	02 2e       	mov	r0, r18
     aa0:	04 c0       	rjmp	.+8      	; 0xaaa <__floatunsisf+0x5e>
     aa2:	d6 94       	lsr	r13
     aa4:	c7 94       	ror	r12
     aa6:	b7 94       	ror	r11
     aa8:	a7 94       	ror	r10
     aaa:	0a 94       	dec	r0
     aac:	d2 f7       	brpl	.-12     	; 0xaa2 <__floatunsisf+0x56>
     aae:	40 e0       	ldi	r20, 0x00	; 0
     ab0:	50 e0       	ldi	r21, 0x00	; 0
     ab2:	60 e0       	ldi	r22, 0x00	; 0
     ab4:	70 e0       	ldi	r23, 0x00	; 0
     ab6:	81 e0       	ldi	r24, 0x01	; 1
     ab8:	90 e0       	ldi	r25, 0x00	; 0
     aba:	a0 e0       	ldi	r26, 0x00	; 0
     abc:	b0 e0       	ldi	r27, 0x00	; 0
     abe:	04 c0       	rjmp	.+8      	; 0xac8 <__floatunsisf+0x7c>
     ac0:	88 0f       	add	r24, r24
     ac2:	99 1f       	adc	r25, r25
     ac4:	aa 1f       	adc	r26, r26
     ac6:	bb 1f       	adc	r27, r27
     ac8:	2a 95       	dec	r18
     aca:	d2 f7       	brpl	.-12     	; 0xac0 <__floatunsisf+0x74>
     acc:	01 97       	sbiw	r24, 0x01	; 1
     ace:	a1 09       	sbc	r26, r1
     ad0:	b1 09       	sbc	r27, r1
     ad2:	8e 21       	and	r24, r14
     ad4:	9f 21       	and	r25, r15
     ad6:	a0 23       	and	r26, r16
     ad8:	b1 23       	and	r27, r17
     ada:	00 97       	sbiw	r24, 0x00	; 0
     adc:	a1 05       	cpc	r26, r1
     ade:	b1 05       	cpc	r27, r1
     ae0:	21 f0       	breq	.+8      	; 0xaea <__floatunsisf+0x9e>
     ae2:	41 e0       	ldi	r20, 0x01	; 1
     ae4:	50 e0       	ldi	r21, 0x00	; 0
     ae6:	60 e0       	ldi	r22, 0x00	; 0
     ae8:	70 e0       	ldi	r23, 0x00	; 0
     aea:	4a 29       	or	r20, r10
     aec:	5b 29       	or	r21, r11
     aee:	6c 29       	or	r22, r12
     af0:	7d 29       	or	r23, r13
     af2:	4d 83       	std	Y+5, r20	; 0x05
     af4:	5e 83       	std	Y+6, r21	; 0x06
     af6:	6f 83       	std	Y+7, r22	; 0x07
     af8:	78 87       	std	Y+8, r23	; 0x08
     afa:	8e e1       	ldi	r24, 0x1E	; 30
     afc:	90 e0       	ldi	r25, 0x00	; 0
     afe:	8e 1b       	sub	r24, r30
     b00:	9f 0b       	sbc	r25, r31
     b02:	9c 83       	std	Y+4, r25	; 0x04
     b04:	8b 83       	std	Y+3, r24	; 0x03
     b06:	12 c0       	rjmp	.+36     	; 0xb2c <__floatunsisf+0xe0>
     b08:	30 97       	sbiw	r30, 0x00	; 0
     b0a:	81 f0       	breq	.+32     	; 0xb2c <__floatunsisf+0xe0>
     b0c:	0e 2e       	mov	r0, r30
     b0e:	04 c0       	rjmp	.+8      	; 0xb18 <__floatunsisf+0xcc>
     b10:	ee 0c       	add	r14, r14
     b12:	ff 1c       	adc	r15, r15
     b14:	00 1f       	adc	r16, r16
     b16:	11 1f       	adc	r17, r17
     b18:	0a 94       	dec	r0
     b1a:	d2 f7       	brpl	.-12     	; 0xb10 <__floatunsisf+0xc4>
     b1c:	ed 82       	std	Y+5, r14	; 0x05
     b1e:	fe 82       	std	Y+6, r15	; 0x06
     b20:	0f 83       	std	Y+7, r16	; 0x07
     b22:	18 87       	std	Y+8, r17	; 0x08
     b24:	ce 1a       	sub	r12, r30
     b26:	df 0a       	sbc	r13, r31
     b28:	dc 82       	std	Y+4, r13	; 0x04
     b2a:	cb 82       	std	Y+3, r12	; 0x03
     b2c:	1a 82       	std	Y+2, r1	; 0x02
     b2e:	ce 01       	movw	r24, r28
     b30:	01 96       	adiw	r24, 0x01	; 1
     b32:	0e 94 ee 05 	call	0xbdc	; 0xbdc <__pack_f>
     b36:	28 96       	adiw	r28, 0x08	; 8
     b38:	ea e0       	ldi	r30, 0x0A	; 10
     b3a:	0c 94 a6 37 	jmp	0x6f4c	; 0x6f4c <__epilogue_restores__+0x10>

00000b3e <__clzsi2>:
     b3e:	ef 92       	push	r14
     b40:	ff 92       	push	r15
     b42:	0f 93       	push	r16
     b44:	1f 93       	push	r17
     b46:	7b 01       	movw	r14, r22
     b48:	8c 01       	movw	r16, r24
     b4a:	80 e0       	ldi	r24, 0x00	; 0
     b4c:	e8 16       	cp	r14, r24
     b4e:	80 e0       	ldi	r24, 0x00	; 0
     b50:	f8 06       	cpc	r15, r24
     b52:	81 e0       	ldi	r24, 0x01	; 1
     b54:	08 07       	cpc	r16, r24
     b56:	80 e0       	ldi	r24, 0x00	; 0
     b58:	18 07       	cpc	r17, r24
     b5a:	88 f4       	brcc	.+34     	; 0xb7e <__clzsi2+0x40>
     b5c:	8f ef       	ldi	r24, 0xFF	; 255
     b5e:	e8 16       	cp	r14, r24
     b60:	f1 04       	cpc	r15, r1
     b62:	01 05       	cpc	r16, r1
     b64:	11 05       	cpc	r17, r1
     b66:	31 f0       	breq	.+12     	; 0xb74 <__clzsi2+0x36>
     b68:	28 f0       	brcs	.+10     	; 0xb74 <__clzsi2+0x36>
     b6a:	88 e0       	ldi	r24, 0x08	; 8
     b6c:	90 e0       	ldi	r25, 0x00	; 0
     b6e:	a0 e0       	ldi	r26, 0x00	; 0
     b70:	b0 e0       	ldi	r27, 0x00	; 0
     b72:	17 c0       	rjmp	.+46     	; 0xba2 <__clzsi2+0x64>
     b74:	80 e0       	ldi	r24, 0x00	; 0
     b76:	90 e0       	ldi	r25, 0x00	; 0
     b78:	a0 e0       	ldi	r26, 0x00	; 0
     b7a:	b0 e0       	ldi	r27, 0x00	; 0
     b7c:	12 c0       	rjmp	.+36     	; 0xba2 <__clzsi2+0x64>
     b7e:	80 e0       	ldi	r24, 0x00	; 0
     b80:	e8 16       	cp	r14, r24
     b82:	80 e0       	ldi	r24, 0x00	; 0
     b84:	f8 06       	cpc	r15, r24
     b86:	80 e0       	ldi	r24, 0x00	; 0
     b88:	08 07       	cpc	r16, r24
     b8a:	81 e0       	ldi	r24, 0x01	; 1
     b8c:	18 07       	cpc	r17, r24
     b8e:	28 f0       	brcs	.+10     	; 0xb9a <__clzsi2+0x5c>
     b90:	88 e1       	ldi	r24, 0x18	; 24
     b92:	90 e0       	ldi	r25, 0x00	; 0
     b94:	a0 e0       	ldi	r26, 0x00	; 0
     b96:	b0 e0       	ldi	r27, 0x00	; 0
     b98:	04 c0       	rjmp	.+8      	; 0xba2 <__clzsi2+0x64>
     b9a:	80 e1       	ldi	r24, 0x10	; 16
     b9c:	90 e0       	ldi	r25, 0x00	; 0
     b9e:	a0 e0       	ldi	r26, 0x00	; 0
     ba0:	b0 e0       	ldi	r27, 0x00	; 0
     ba2:	20 e2       	ldi	r18, 0x20	; 32
     ba4:	30 e0       	ldi	r19, 0x00	; 0
     ba6:	40 e0       	ldi	r20, 0x00	; 0
     ba8:	50 e0       	ldi	r21, 0x00	; 0
     baa:	28 1b       	sub	r18, r24
     bac:	39 0b       	sbc	r19, r25
     bae:	4a 0b       	sbc	r20, r26
     bb0:	5b 0b       	sbc	r21, r27
     bb2:	04 c0       	rjmp	.+8      	; 0xbbc <__clzsi2+0x7e>
     bb4:	16 95       	lsr	r17
     bb6:	07 95       	ror	r16
     bb8:	f7 94       	ror	r15
     bba:	e7 94       	ror	r14
     bbc:	8a 95       	dec	r24
     bbe:	d2 f7       	brpl	.-12     	; 0xbb4 <__clzsi2+0x76>
     bc0:	f7 01       	movw	r30, r14
     bc2:	e1 5d       	subi	r30, 0xD1	; 209
     bc4:	fc 4f       	sbci	r31, 0xFC	; 252
     bc6:	80 81       	ld	r24, Z
     bc8:	28 1b       	sub	r18, r24
     bca:	31 09       	sbc	r19, r1
     bcc:	41 09       	sbc	r20, r1
     bce:	51 09       	sbc	r21, r1
     bd0:	c9 01       	movw	r24, r18
     bd2:	1f 91       	pop	r17
     bd4:	0f 91       	pop	r16
     bd6:	ff 90       	pop	r15
     bd8:	ef 90       	pop	r14
     bda:	08 95       	ret

00000bdc <__pack_f>:
     bdc:	df 92       	push	r13
     bde:	ef 92       	push	r14
     be0:	ff 92       	push	r15
     be2:	0f 93       	push	r16
     be4:	1f 93       	push	r17
     be6:	fc 01       	movw	r30, r24
     be8:	e4 80       	ldd	r14, Z+4	; 0x04
     bea:	f5 80       	ldd	r15, Z+5	; 0x05
     bec:	06 81       	ldd	r16, Z+6	; 0x06
     bee:	17 81       	ldd	r17, Z+7	; 0x07
     bf0:	d1 80       	ldd	r13, Z+1	; 0x01
     bf2:	80 81       	ld	r24, Z
     bf4:	82 30       	cpi	r24, 0x02	; 2
     bf6:	48 f4       	brcc	.+18     	; 0xc0a <__pack_f+0x2e>
     bf8:	80 e0       	ldi	r24, 0x00	; 0
     bfa:	90 e0       	ldi	r25, 0x00	; 0
     bfc:	a0 e1       	ldi	r26, 0x10	; 16
     bfe:	b0 e0       	ldi	r27, 0x00	; 0
     c00:	e8 2a       	or	r14, r24
     c02:	f9 2a       	or	r15, r25
     c04:	0a 2b       	or	r16, r26
     c06:	1b 2b       	or	r17, r27
     c08:	a5 c0       	rjmp	.+330    	; 0xd54 <__pack_f+0x178>
     c0a:	84 30       	cpi	r24, 0x04	; 4
     c0c:	09 f4       	brne	.+2      	; 0xc10 <__pack_f+0x34>
     c0e:	9f c0       	rjmp	.+318    	; 0xd4e <__pack_f+0x172>
     c10:	82 30       	cpi	r24, 0x02	; 2
     c12:	21 f4       	brne	.+8      	; 0xc1c <__pack_f+0x40>
     c14:	ee 24       	eor	r14, r14
     c16:	ff 24       	eor	r15, r15
     c18:	87 01       	movw	r16, r14
     c1a:	05 c0       	rjmp	.+10     	; 0xc26 <__pack_f+0x4a>
     c1c:	e1 14       	cp	r14, r1
     c1e:	f1 04       	cpc	r15, r1
     c20:	01 05       	cpc	r16, r1
     c22:	11 05       	cpc	r17, r1
     c24:	19 f4       	brne	.+6      	; 0xc2c <__pack_f+0x50>
     c26:	e0 e0       	ldi	r30, 0x00	; 0
     c28:	f0 e0       	ldi	r31, 0x00	; 0
     c2a:	96 c0       	rjmp	.+300    	; 0xd58 <__pack_f+0x17c>
     c2c:	62 81       	ldd	r22, Z+2	; 0x02
     c2e:	73 81       	ldd	r23, Z+3	; 0x03
     c30:	9f ef       	ldi	r25, 0xFF	; 255
     c32:	62 38       	cpi	r22, 0x82	; 130
     c34:	79 07       	cpc	r23, r25
     c36:	0c f0       	brlt	.+2      	; 0xc3a <__pack_f+0x5e>
     c38:	5b c0       	rjmp	.+182    	; 0xcf0 <__pack_f+0x114>
     c3a:	22 e8       	ldi	r18, 0x82	; 130
     c3c:	3f ef       	ldi	r19, 0xFF	; 255
     c3e:	26 1b       	sub	r18, r22
     c40:	37 0b       	sbc	r19, r23
     c42:	2a 31       	cpi	r18, 0x1A	; 26
     c44:	31 05       	cpc	r19, r1
     c46:	2c f0       	brlt	.+10     	; 0xc52 <__pack_f+0x76>
     c48:	20 e0       	ldi	r18, 0x00	; 0
     c4a:	30 e0       	ldi	r19, 0x00	; 0
     c4c:	40 e0       	ldi	r20, 0x00	; 0
     c4e:	50 e0       	ldi	r21, 0x00	; 0
     c50:	2a c0       	rjmp	.+84     	; 0xca6 <__pack_f+0xca>
     c52:	b8 01       	movw	r22, r16
     c54:	a7 01       	movw	r20, r14
     c56:	02 2e       	mov	r0, r18
     c58:	04 c0       	rjmp	.+8      	; 0xc62 <__pack_f+0x86>
     c5a:	76 95       	lsr	r23
     c5c:	67 95       	ror	r22
     c5e:	57 95       	ror	r21
     c60:	47 95       	ror	r20
     c62:	0a 94       	dec	r0
     c64:	d2 f7       	brpl	.-12     	; 0xc5a <__pack_f+0x7e>
     c66:	81 e0       	ldi	r24, 0x01	; 1
     c68:	90 e0       	ldi	r25, 0x00	; 0
     c6a:	a0 e0       	ldi	r26, 0x00	; 0
     c6c:	b0 e0       	ldi	r27, 0x00	; 0
     c6e:	04 c0       	rjmp	.+8      	; 0xc78 <__pack_f+0x9c>
     c70:	88 0f       	add	r24, r24
     c72:	99 1f       	adc	r25, r25
     c74:	aa 1f       	adc	r26, r26
     c76:	bb 1f       	adc	r27, r27
     c78:	2a 95       	dec	r18
     c7a:	d2 f7       	brpl	.-12     	; 0xc70 <__pack_f+0x94>
     c7c:	01 97       	sbiw	r24, 0x01	; 1
     c7e:	a1 09       	sbc	r26, r1
     c80:	b1 09       	sbc	r27, r1
     c82:	8e 21       	and	r24, r14
     c84:	9f 21       	and	r25, r15
     c86:	a0 23       	and	r26, r16
     c88:	b1 23       	and	r27, r17
     c8a:	00 97       	sbiw	r24, 0x00	; 0
     c8c:	a1 05       	cpc	r26, r1
     c8e:	b1 05       	cpc	r27, r1
     c90:	21 f0       	breq	.+8      	; 0xc9a <__pack_f+0xbe>
     c92:	81 e0       	ldi	r24, 0x01	; 1
     c94:	90 e0       	ldi	r25, 0x00	; 0
     c96:	a0 e0       	ldi	r26, 0x00	; 0
     c98:	b0 e0       	ldi	r27, 0x00	; 0
     c9a:	9a 01       	movw	r18, r20
     c9c:	ab 01       	movw	r20, r22
     c9e:	28 2b       	or	r18, r24
     ca0:	39 2b       	or	r19, r25
     ca2:	4a 2b       	or	r20, r26
     ca4:	5b 2b       	or	r21, r27
     ca6:	da 01       	movw	r26, r20
     ca8:	c9 01       	movw	r24, r18
     caa:	8f 77       	andi	r24, 0x7F	; 127
     cac:	90 70       	andi	r25, 0x00	; 0
     cae:	a0 70       	andi	r26, 0x00	; 0
     cb0:	b0 70       	andi	r27, 0x00	; 0
     cb2:	80 34       	cpi	r24, 0x40	; 64
     cb4:	91 05       	cpc	r25, r1
     cb6:	a1 05       	cpc	r26, r1
     cb8:	b1 05       	cpc	r27, r1
     cba:	39 f4       	brne	.+14     	; 0xcca <__pack_f+0xee>
     cbc:	27 ff       	sbrs	r18, 7
     cbe:	09 c0       	rjmp	.+18     	; 0xcd2 <__pack_f+0xf6>
     cc0:	20 5c       	subi	r18, 0xC0	; 192
     cc2:	3f 4f       	sbci	r19, 0xFF	; 255
     cc4:	4f 4f       	sbci	r20, 0xFF	; 255
     cc6:	5f 4f       	sbci	r21, 0xFF	; 255
     cc8:	04 c0       	rjmp	.+8      	; 0xcd2 <__pack_f+0xf6>
     cca:	21 5c       	subi	r18, 0xC1	; 193
     ccc:	3f 4f       	sbci	r19, 0xFF	; 255
     cce:	4f 4f       	sbci	r20, 0xFF	; 255
     cd0:	5f 4f       	sbci	r21, 0xFF	; 255
     cd2:	e0 e0       	ldi	r30, 0x00	; 0
     cd4:	f0 e0       	ldi	r31, 0x00	; 0
     cd6:	20 30       	cpi	r18, 0x00	; 0
     cd8:	a0 e0       	ldi	r26, 0x00	; 0
     cda:	3a 07       	cpc	r19, r26
     cdc:	a0 e0       	ldi	r26, 0x00	; 0
     cde:	4a 07       	cpc	r20, r26
     ce0:	a0 e4       	ldi	r26, 0x40	; 64
     ce2:	5a 07       	cpc	r21, r26
     ce4:	10 f0       	brcs	.+4      	; 0xcea <__pack_f+0x10e>
     ce6:	e1 e0       	ldi	r30, 0x01	; 1
     ce8:	f0 e0       	ldi	r31, 0x00	; 0
     cea:	79 01       	movw	r14, r18
     cec:	8a 01       	movw	r16, r20
     cee:	27 c0       	rjmp	.+78     	; 0xd3e <__pack_f+0x162>
     cf0:	60 38       	cpi	r22, 0x80	; 128
     cf2:	71 05       	cpc	r23, r1
     cf4:	64 f5       	brge	.+88     	; 0xd4e <__pack_f+0x172>
     cf6:	fb 01       	movw	r30, r22
     cf8:	e1 58       	subi	r30, 0x81	; 129
     cfa:	ff 4f       	sbci	r31, 0xFF	; 255
     cfc:	d8 01       	movw	r26, r16
     cfe:	c7 01       	movw	r24, r14
     d00:	8f 77       	andi	r24, 0x7F	; 127
     d02:	90 70       	andi	r25, 0x00	; 0
     d04:	a0 70       	andi	r26, 0x00	; 0
     d06:	b0 70       	andi	r27, 0x00	; 0
     d08:	80 34       	cpi	r24, 0x40	; 64
     d0a:	91 05       	cpc	r25, r1
     d0c:	a1 05       	cpc	r26, r1
     d0e:	b1 05       	cpc	r27, r1
     d10:	39 f4       	brne	.+14     	; 0xd20 <__pack_f+0x144>
     d12:	e7 fe       	sbrs	r14, 7
     d14:	0d c0       	rjmp	.+26     	; 0xd30 <__pack_f+0x154>
     d16:	80 e4       	ldi	r24, 0x40	; 64
     d18:	90 e0       	ldi	r25, 0x00	; 0
     d1a:	a0 e0       	ldi	r26, 0x00	; 0
     d1c:	b0 e0       	ldi	r27, 0x00	; 0
     d1e:	04 c0       	rjmp	.+8      	; 0xd28 <__pack_f+0x14c>
     d20:	8f e3       	ldi	r24, 0x3F	; 63
     d22:	90 e0       	ldi	r25, 0x00	; 0
     d24:	a0 e0       	ldi	r26, 0x00	; 0
     d26:	b0 e0       	ldi	r27, 0x00	; 0
     d28:	e8 0e       	add	r14, r24
     d2a:	f9 1e       	adc	r15, r25
     d2c:	0a 1f       	adc	r16, r26
     d2e:	1b 1f       	adc	r17, r27
     d30:	17 ff       	sbrs	r17, 7
     d32:	05 c0       	rjmp	.+10     	; 0xd3e <__pack_f+0x162>
     d34:	16 95       	lsr	r17
     d36:	07 95       	ror	r16
     d38:	f7 94       	ror	r15
     d3a:	e7 94       	ror	r14
     d3c:	31 96       	adiw	r30, 0x01	; 1
     d3e:	87 e0       	ldi	r24, 0x07	; 7
     d40:	16 95       	lsr	r17
     d42:	07 95       	ror	r16
     d44:	f7 94       	ror	r15
     d46:	e7 94       	ror	r14
     d48:	8a 95       	dec	r24
     d4a:	d1 f7       	brne	.-12     	; 0xd40 <__pack_f+0x164>
     d4c:	05 c0       	rjmp	.+10     	; 0xd58 <__pack_f+0x17c>
     d4e:	ee 24       	eor	r14, r14
     d50:	ff 24       	eor	r15, r15
     d52:	87 01       	movw	r16, r14
     d54:	ef ef       	ldi	r30, 0xFF	; 255
     d56:	f0 e0       	ldi	r31, 0x00	; 0
     d58:	6e 2f       	mov	r22, r30
     d5a:	67 95       	ror	r22
     d5c:	66 27       	eor	r22, r22
     d5e:	67 95       	ror	r22
     d60:	90 2f       	mov	r25, r16
     d62:	9f 77       	andi	r25, 0x7F	; 127
     d64:	d7 94       	ror	r13
     d66:	dd 24       	eor	r13, r13
     d68:	d7 94       	ror	r13
     d6a:	8e 2f       	mov	r24, r30
     d6c:	86 95       	lsr	r24
     d6e:	49 2f       	mov	r20, r25
     d70:	46 2b       	or	r20, r22
     d72:	58 2f       	mov	r21, r24
     d74:	5d 29       	or	r21, r13
     d76:	b7 01       	movw	r22, r14
     d78:	ca 01       	movw	r24, r20
     d7a:	1f 91       	pop	r17
     d7c:	0f 91       	pop	r16
     d7e:	ff 90       	pop	r15
     d80:	ef 90       	pop	r14
     d82:	df 90       	pop	r13
     d84:	08 95       	ret

00000d86 <__unpack_f>:
     d86:	fc 01       	movw	r30, r24
     d88:	db 01       	movw	r26, r22
     d8a:	40 81       	ld	r20, Z
     d8c:	51 81       	ldd	r21, Z+1	; 0x01
     d8e:	22 81       	ldd	r18, Z+2	; 0x02
     d90:	62 2f       	mov	r22, r18
     d92:	6f 77       	andi	r22, 0x7F	; 127
     d94:	70 e0       	ldi	r23, 0x00	; 0
     d96:	22 1f       	adc	r18, r18
     d98:	22 27       	eor	r18, r18
     d9a:	22 1f       	adc	r18, r18
     d9c:	93 81       	ldd	r25, Z+3	; 0x03
     d9e:	89 2f       	mov	r24, r25
     da0:	88 0f       	add	r24, r24
     da2:	82 2b       	or	r24, r18
     da4:	28 2f       	mov	r18, r24
     da6:	30 e0       	ldi	r19, 0x00	; 0
     da8:	99 1f       	adc	r25, r25
     daa:	99 27       	eor	r25, r25
     dac:	99 1f       	adc	r25, r25
     dae:	11 96       	adiw	r26, 0x01	; 1
     db0:	9c 93       	st	X, r25
     db2:	11 97       	sbiw	r26, 0x01	; 1
     db4:	21 15       	cp	r18, r1
     db6:	31 05       	cpc	r19, r1
     db8:	a9 f5       	brne	.+106    	; 0xe24 <__unpack_f+0x9e>
     dba:	41 15       	cp	r20, r1
     dbc:	51 05       	cpc	r21, r1
     dbe:	61 05       	cpc	r22, r1
     dc0:	71 05       	cpc	r23, r1
     dc2:	11 f4       	brne	.+4      	; 0xdc8 <__unpack_f+0x42>
     dc4:	82 e0       	ldi	r24, 0x02	; 2
     dc6:	37 c0       	rjmp	.+110    	; 0xe36 <__unpack_f+0xb0>
     dc8:	82 e8       	ldi	r24, 0x82	; 130
     dca:	9f ef       	ldi	r25, 0xFF	; 255
     dcc:	13 96       	adiw	r26, 0x03	; 3
     dce:	9c 93       	st	X, r25
     dd0:	8e 93       	st	-X, r24
     dd2:	12 97       	sbiw	r26, 0x02	; 2
     dd4:	9a 01       	movw	r18, r20
     dd6:	ab 01       	movw	r20, r22
     dd8:	67 e0       	ldi	r22, 0x07	; 7
     dda:	22 0f       	add	r18, r18
     ddc:	33 1f       	adc	r19, r19
     dde:	44 1f       	adc	r20, r20
     de0:	55 1f       	adc	r21, r21
     de2:	6a 95       	dec	r22
     de4:	d1 f7       	brne	.-12     	; 0xdda <__unpack_f+0x54>
     de6:	83 e0       	ldi	r24, 0x03	; 3
     de8:	8c 93       	st	X, r24
     dea:	0d c0       	rjmp	.+26     	; 0xe06 <__unpack_f+0x80>
     dec:	22 0f       	add	r18, r18
     dee:	33 1f       	adc	r19, r19
     df0:	44 1f       	adc	r20, r20
     df2:	55 1f       	adc	r21, r21
     df4:	12 96       	adiw	r26, 0x02	; 2
     df6:	8d 91       	ld	r24, X+
     df8:	9c 91       	ld	r25, X
     dfa:	13 97       	sbiw	r26, 0x03	; 3
     dfc:	01 97       	sbiw	r24, 0x01	; 1
     dfe:	13 96       	adiw	r26, 0x03	; 3
     e00:	9c 93       	st	X, r25
     e02:	8e 93       	st	-X, r24
     e04:	12 97       	sbiw	r26, 0x02	; 2
     e06:	20 30       	cpi	r18, 0x00	; 0
     e08:	80 e0       	ldi	r24, 0x00	; 0
     e0a:	38 07       	cpc	r19, r24
     e0c:	80 e0       	ldi	r24, 0x00	; 0
     e0e:	48 07       	cpc	r20, r24
     e10:	80 e4       	ldi	r24, 0x40	; 64
     e12:	58 07       	cpc	r21, r24
     e14:	58 f3       	brcs	.-42     	; 0xdec <__unpack_f+0x66>
     e16:	14 96       	adiw	r26, 0x04	; 4
     e18:	2d 93       	st	X+, r18
     e1a:	3d 93       	st	X+, r19
     e1c:	4d 93       	st	X+, r20
     e1e:	5c 93       	st	X, r21
     e20:	17 97       	sbiw	r26, 0x07	; 7
     e22:	08 95       	ret
     e24:	2f 3f       	cpi	r18, 0xFF	; 255
     e26:	31 05       	cpc	r19, r1
     e28:	79 f4       	brne	.+30     	; 0xe48 <__unpack_f+0xc2>
     e2a:	41 15       	cp	r20, r1
     e2c:	51 05       	cpc	r21, r1
     e2e:	61 05       	cpc	r22, r1
     e30:	71 05       	cpc	r23, r1
     e32:	19 f4       	brne	.+6      	; 0xe3a <__unpack_f+0xb4>
     e34:	84 e0       	ldi	r24, 0x04	; 4
     e36:	8c 93       	st	X, r24
     e38:	08 95       	ret
     e3a:	64 ff       	sbrs	r22, 4
     e3c:	03 c0       	rjmp	.+6      	; 0xe44 <__unpack_f+0xbe>
     e3e:	81 e0       	ldi	r24, 0x01	; 1
     e40:	8c 93       	st	X, r24
     e42:	12 c0       	rjmp	.+36     	; 0xe68 <__unpack_f+0xe2>
     e44:	1c 92       	st	X, r1
     e46:	10 c0       	rjmp	.+32     	; 0xe68 <__unpack_f+0xe2>
     e48:	2f 57       	subi	r18, 0x7F	; 127
     e4a:	30 40       	sbci	r19, 0x00	; 0
     e4c:	13 96       	adiw	r26, 0x03	; 3
     e4e:	3c 93       	st	X, r19
     e50:	2e 93       	st	-X, r18
     e52:	12 97       	sbiw	r26, 0x02	; 2
     e54:	83 e0       	ldi	r24, 0x03	; 3
     e56:	8c 93       	st	X, r24
     e58:	87 e0       	ldi	r24, 0x07	; 7
     e5a:	44 0f       	add	r20, r20
     e5c:	55 1f       	adc	r21, r21
     e5e:	66 1f       	adc	r22, r22
     e60:	77 1f       	adc	r23, r23
     e62:	8a 95       	dec	r24
     e64:	d1 f7       	brne	.-12     	; 0xe5a <__unpack_f+0xd4>
     e66:	70 64       	ori	r23, 0x40	; 64
     e68:	14 96       	adiw	r26, 0x04	; 4
     e6a:	4d 93       	st	X+, r20
     e6c:	5d 93       	st	X+, r21
     e6e:	6d 93       	st	X+, r22
     e70:	7c 93       	st	X, r23
     e72:	17 97       	sbiw	r26, 0x07	; 7
     e74:	08 95       	ret

00000e76 <__fpcmp_parts_f>:
     e76:	1f 93       	push	r17
     e78:	dc 01       	movw	r26, r24
     e7a:	fb 01       	movw	r30, r22
     e7c:	9c 91       	ld	r25, X
     e7e:	92 30       	cpi	r25, 0x02	; 2
     e80:	08 f4       	brcc	.+2      	; 0xe84 <__fpcmp_parts_f+0xe>
     e82:	47 c0       	rjmp	.+142    	; 0xf12 <__fpcmp_parts_f+0x9c>
     e84:	80 81       	ld	r24, Z
     e86:	82 30       	cpi	r24, 0x02	; 2
     e88:	08 f4       	brcc	.+2      	; 0xe8c <__fpcmp_parts_f+0x16>
     e8a:	43 c0       	rjmp	.+134    	; 0xf12 <__fpcmp_parts_f+0x9c>
     e8c:	94 30       	cpi	r25, 0x04	; 4
     e8e:	51 f4       	brne	.+20     	; 0xea4 <__fpcmp_parts_f+0x2e>
     e90:	11 96       	adiw	r26, 0x01	; 1
     e92:	1c 91       	ld	r17, X
     e94:	84 30       	cpi	r24, 0x04	; 4
     e96:	99 f5       	brne	.+102    	; 0xefe <__fpcmp_parts_f+0x88>
     e98:	81 81       	ldd	r24, Z+1	; 0x01
     e9a:	68 2f       	mov	r22, r24
     e9c:	70 e0       	ldi	r23, 0x00	; 0
     e9e:	61 1b       	sub	r22, r17
     ea0:	71 09       	sbc	r23, r1
     ea2:	3f c0       	rjmp	.+126    	; 0xf22 <__fpcmp_parts_f+0xac>
     ea4:	84 30       	cpi	r24, 0x04	; 4
     ea6:	21 f0       	breq	.+8      	; 0xeb0 <__fpcmp_parts_f+0x3a>
     ea8:	92 30       	cpi	r25, 0x02	; 2
     eaa:	31 f4       	brne	.+12     	; 0xeb8 <__fpcmp_parts_f+0x42>
     eac:	82 30       	cpi	r24, 0x02	; 2
     eae:	b9 f1       	breq	.+110    	; 0xf1e <__fpcmp_parts_f+0xa8>
     eb0:	81 81       	ldd	r24, Z+1	; 0x01
     eb2:	88 23       	and	r24, r24
     eb4:	89 f1       	breq	.+98     	; 0xf18 <__fpcmp_parts_f+0xa2>
     eb6:	2d c0       	rjmp	.+90     	; 0xf12 <__fpcmp_parts_f+0x9c>
     eb8:	11 96       	adiw	r26, 0x01	; 1
     eba:	1c 91       	ld	r17, X
     ebc:	11 97       	sbiw	r26, 0x01	; 1
     ebe:	82 30       	cpi	r24, 0x02	; 2
     ec0:	f1 f0       	breq	.+60     	; 0xefe <__fpcmp_parts_f+0x88>
     ec2:	81 81       	ldd	r24, Z+1	; 0x01
     ec4:	18 17       	cp	r17, r24
     ec6:	d9 f4       	brne	.+54     	; 0xefe <__fpcmp_parts_f+0x88>
     ec8:	12 96       	adiw	r26, 0x02	; 2
     eca:	2d 91       	ld	r18, X+
     ecc:	3c 91       	ld	r19, X
     ece:	13 97       	sbiw	r26, 0x03	; 3
     ed0:	82 81       	ldd	r24, Z+2	; 0x02
     ed2:	93 81       	ldd	r25, Z+3	; 0x03
     ed4:	82 17       	cp	r24, r18
     ed6:	93 07       	cpc	r25, r19
     ed8:	94 f0       	brlt	.+36     	; 0xefe <__fpcmp_parts_f+0x88>
     eda:	28 17       	cp	r18, r24
     edc:	39 07       	cpc	r19, r25
     ede:	bc f0       	brlt	.+46     	; 0xf0e <__fpcmp_parts_f+0x98>
     ee0:	14 96       	adiw	r26, 0x04	; 4
     ee2:	8d 91       	ld	r24, X+
     ee4:	9d 91       	ld	r25, X+
     ee6:	0d 90       	ld	r0, X+
     ee8:	bc 91       	ld	r27, X
     eea:	a0 2d       	mov	r26, r0
     eec:	24 81       	ldd	r18, Z+4	; 0x04
     eee:	35 81       	ldd	r19, Z+5	; 0x05
     ef0:	46 81       	ldd	r20, Z+6	; 0x06
     ef2:	57 81       	ldd	r21, Z+7	; 0x07
     ef4:	28 17       	cp	r18, r24
     ef6:	39 07       	cpc	r19, r25
     ef8:	4a 07       	cpc	r20, r26
     efa:	5b 07       	cpc	r21, r27
     efc:	18 f4       	brcc	.+6      	; 0xf04 <__fpcmp_parts_f+0x8e>
     efe:	11 23       	and	r17, r17
     f00:	41 f0       	breq	.+16     	; 0xf12 <__fpcmp_parts_f+0x9c>
     f02:	0a c0       	rjmp	.+20     	; 0xf18 <__fpcmp_parts_f+0xa2>
     f04:	82 17       	cp	r24, r18
     f06:	93 07       	cpc	r25, r19
     f08:	a4 07       	cpc	r26, r20
     f0a:	b5 07       	cpc	r27, r21
     f0c:	40 f4       	brcc	.+16     	; 0xf1e <__fpcmp_parts_f+0xa8>
     f0e:	11 23       	and	r17, r17
     f10:	19 f0       	breq	.+6      	; 0xf18 <__fpcmp_parts_f+0xa2>
     f12:	61 e0       	ldi	r22, 0x01	; 1
     f14:	70 e0       	ldi	r23, 0x00	; 0
     f16:	05 c0       	rjmp	.+10     	; 0xf22 <__fpcmp_parts_f+0xac>
     f18:	6f ef       	ldi	r22, 0xFF	; 255
     f1a:	7f ef       	ldi	r23, 0xFF	; 255
     f1c:	02 c0       	rjmp	.+4      	; 0xf22 <__fpcmp_parts_f+0xac>
     f1e:	60 e0       	ldi	r22, 0x00	; 0
     f20:	70 e0       	ldi	r23, 0x00	; 0
     f22:	cb 01       	movw	r24, r22
     f24:	1f 91       	pop	r17
     f26:	08 95       	ret

00000f28 <main>:
  Admin UserName is 123
  Admin Location is @ 101 byte address page 1             */
/************************************************************************/

int main ()
{
     f28:	0f 93       	push	r16
     f2a:	1f 93       	push	r17
     f2c:	df 93       	push	r29
     f2e:	cf 93       	push	r28
     f30:	cd b7       	in	r28, 0x3d	; 61
     f32:	de b7       	in	r29, 0x3e	; 62
     f34:	ca 57       	subi	r28, 0x7A	; 122
     f36:	d0 40       	sbci	r29, 0x00	; 0
     f38:	0f b6       	in	r0, 0x3f	; 63
     f3a:	f8 94       	cli
     f3c:	de bf       	out	0x3e, r29	; 62
     f3e:	0f be       	out	0x3f, r0	; 63
     f40:	cd bf       	out	0x3d, r28	; 61
  Keypad_vidinit();
     f42:	0e 94 be 27 	call	0x4f7c	; 0x4f7c <Keypad_vidinit>
  Lcd_vidinit();
     f46:	0e 94 d2 23 	call	0x47a4	; 0x47a4 <Lcd_vidinit>
  Dc_Motor_vidInit();
     f4a:	0e 94 cb 29 	call	0x5396	; 0x5396 <Dc_Motor_vidInit>
  Lm35_vidInit();
     f4e:	0e 94 90 23 	call	0x4720	; 0x4720 <Lm35_vidInit>
  ServoMotor_VidInit();
     f52:	0e 94 f3 1f 	call	0x3fe6	; 0x3fe6 <ServoMotor_VidInit>
  Led_vidinit();
     f56:	0e 94 ea 22 	call	0x45d4	; 0x45d4 <Led_vidinit>
  Buzzer_vidinit();
     f5a:	0e 94 92 2a 	call	0x5524	; 0x5524 <Buzzer_vidinit>
  Button_vidbuttonInit();
     f5e:	0e 94 b6 2a 	call	0x556c	; 0x556c <Button_vidbuttonInit>
  Relay_Init();
     f62:	0e 94 c6 22 	call	0x458c	; 0x458c <Relay_Init>
  Hc05_Init();
     f66:	0e 94 fd 28 	call	0x51fa	; 0x51fa <Hc05_Init>
  /* Initiate the UserID and Password */
  //Remove two below comments when first use of code
  //  DeleteAll();
  //  AppInit();

  char NumberOfUsers = 0;
     f6a:	fe 01       	movw	r30, r28
     f6c:	e9 59       	subi	r30, 0x99	; 153
     f6e:	ff 4f       	sbci	r31, 0xFF	; 255
     f70:	10 82       	st	Z, r1

  NumberOfUsers = EEPROM_Read(100);
     f72:	84 e6       	ldi	r24, 0x64	; 100
     f74:	90 e0       	ldi	r25, 0x00	; 0
     f76:	0e 94 26 2f 	call	0x5e4c	; 0x5e4c <EEPROM_Read>
     f7a:	fe 01       	movw	r30, r28
     f7c:	e9 59       	subi	r30, 0x99	; 153
     f7e:	ff 4f       	sbci	r31, 0xFF	; 255
     f80:	80 83       	st	Z, r24
  u8 UserID   [3] = {0, 0, 0};
     f82:	ce 01       	movw	r24, r28
     f84:	88 59       	subi	r24, 0x98	; 152
     f86:	9f 4f       	sbci	r25, 0xFF	; 255
     f88:	e8 96       	adiw	r28, 0x38	; 56
     f8a:	9f af       	std	Y+63, r25	; 0x3f
     f8c:	8e af       	std	Y+62, r24	; 0x3e
     f8e:	e8 97       	sbiw	r28, 0x38	; 56
     f90:	2f e2       	ldi	r18, 0x2F	; 47
     f92:	34 e0       	ldi	r19, 0x04	; 4
     f94:	ea 96       	adiw	r28, 0x3a	; 58
     f96:	3f af       	std	Y+63, r19	; 0x3f
     f98:	2e af       	std	Y+62, r18	; 0x3e
     f9a:	ea 97       	sbiw	r28, 0x3a	; 58
     f9c:	33 e0       	ldi	r19, 0x03	; 3
     f9e:	eb 96       	adiw	r28, 0x3b	; 59
     fa0:	3f af       	std	Y+63, r19	; 0x3f
     fa2:	eb 97       	sbiw	r28, 0x3b	; 59
     fa4:	ea 96       	adiw	r28, 0x3a	; 58
     fa6:	ee ad       	ldd	r30, Y+62	; 0x3e
     fa8:	ff ad       	ldd	r31, Y+63	; 0x3f
     faa:	ea 97       	sbiw	r28, 0x3a	; 58
     fac:	00 80       	ld	r0, Z
     fae:	ea 96       	adiw	r28, 0x3a	; 58
     fb0:	2e ad       	ldd	r18, Y+62	; 0x3e
     fb2:	3f ad       	ldd	r19, Y+63	; 0x3f
     fb4:	ea 97       	sbiw	r28, 0x3a	; 58
     fb6:	2f 5f       	subi	r18, 0xFF	; 255
     fb8:	3f 4f       	sbci	r19, 0xFF	; 255
     fba:	ea 96       	adiw	r28, 0x3a	; 58
     fbc:	3f af       	std	Y+63, r19	; 0x3f
     fbe:	2e af       	std	Y+62, r18	; 0x3e
     fc0:	ea 97       	sbiw	r28, 0x3a	; 58
     fc2:	e8 96       	adiw	r28, 0x38	; 56
     fc4:	ee ad       	ldd	r30, Y+62	; 0x3e
     fc6:	ff ad       	ldd	r31, Y+63	; 0x3f
     fc8:	e8 97       	sbiw	r28, 0x38	; 56
     fca:	00 82       	st	Z, r0
     fcc:	e8 96       	adiw	r28, 0x38	; 56
     fce:	2e ad       	ldd	r18, Y+62	; 0x3e
     fd0:	3f ad       	ldd	r19, Y+63	; 0x3f
     fd2:	e8 97       	sbiw	r28, 0x38	; 56
     fd4:	2f 5f       	subi	r18, 0xFF	; 255
     fd6:	3f 4f       	sbci	r19, 0xFF	; 255
     fd8:	e8 96       	adiw	r28, 0x38	; 56
     fda:	3f af       	std	Y+63, r19	; 0x3f
     fdc:	2e af       	std	Y+62, r18	; 0x3e
     fde:	e8 97       	sbiw	r28, 0x38	; 56
     fe0:	eb 96       	adiw	r28, 0x3b	; 59
     fe2:	3f ad       	ldd	r19, Y+63	; 0x3f
     fe4:	eb 97       	sbiw	r28, 0x3b	; 59
     fe6:	31 50       	subi	r19, 0x01	; 1
     fe8:	eb 96       	adiw	r28, 0x3b	; 59
     fea:	3f af       	std	Y+63, r19	; 0x3f
     fec:	eb 97       	sbiw	r28, 0x3b	; 59
     fee:	eb 96       	adiw	r28, 0x3b	; 59
     ff0:	8f ad       	ldd	r24, Y+63	; 0x3f
     ff2:	eb 97       	sbiw	r28, 0x3b	; 59
     ff4:	88 23       	and	r24, r24
     ff6:	b1 f6       	brne	.-84     	; 0xfa4 <main+0x7c>
  u8 UserPassword [4] = {0, 0, 0, 0};
     ff8:	fe 01       	movw	r30, r28
     ffa:	e5 59       	subi	r30, 0x95	; 149
     ffc:	ff 4f       	sbci	r31, 0xFF	; 255
     ffe:	10 82       	st	Z, r1
    1000:	11 82       	std	Z+1, r1	; 0x01
    1002:	12 82       	std	Z+2, r1	; 0x02
    1004:	13 82       	std	Z+3, r1	; 0x03
  u8 KeyPressed = 0;
    1006:	fe 01       	movw	r30, r28
    1008:	ea 59       	subi	r30, 0x9A	; 154
    100a:	ff 4f       	sbci	r31, 0xFF	; 255
    100c:	10 82       	st	Z, r1
  u8 Trails = 0;
    100e:	fe 01       	movw	r30, r28
    1010:	eb 59       	subi	r30, 0x9B	; 155
    1012:	ff 4f       	sbci	r31, 0xFF	; 255
    1014:	10 82       	st	Z, r1
  Door_State_t DoorState = CLOSED;
    1016:	fe 01       	movw	r30, r28
    1018:	e1 59       	subi	r30, 0x91	; 145
    101a:	ff 4f       	sbci	r31, 0xFF	; 255
    101c:	10 82       	st	Z, r1
  u8 ACState = 0;
    101e:	fe 01       	movw	r30, r28
    1020:	e0 59       	subi	r30, 0x90	; 144
    1022:	ff 4f       	sbci	r31, 0xFF	; 255
    1024:	10 82       	st	Z, r1
  u8 RelayState = 0;
    1026:	fe 01       	movw	r30, r28
    1028:	ef 58       	subi	r30, 0x8F	; 143
    102a:	ff 4f       	sbci	r31, 0xFF	; 255
    102c:	10 82       	st	Z, r1
  u8 BluetoothData = 0;
    102e:	fe 01       	movw	r30, r28
    1030:	ec 59       	subi	r30, 0x9C	; 156
    1032:	ff 4f       	sbci	r31, 0xFF	; 255
    1034:	10 82       	st	Z, r1

  while (1)
  {
    switch (AppState)
    1036:	80 91 42 04 	lds	r24, 0x0442
    103a:	e8 2f       	mov	r30, r24
    103c:	f0 e0       	ldi	r31, 0x00	; 0
    103e:	e6 96       	adiw	r28, 0x36	; 54
    1040:	ff af       	std	Y+63, r31	; 0x3f
    1042:	ee af       	std	Y+62, r30	; 0x3e
    1044:	e6 97       	sbiw	r28, 0x36	; 54
    1046:	e6 96       	adiw	r28, 0x36	; 54
    1048:	2e ad       	ldd	r18, Y+62	; 0x3e
    104a:	3f ad       	ldd	r19, Y+63	; 0x3f
    104c:	e6 97       	sbiw	r28, 0x36	; 54
    104e:	25 30       	cpi	r18, 0x05	; 5
    1050:	31 05       	cpc	r19, r1
    1052:	09 f4       	brne	.+2      	; 0x1056 <main+0x12e>
    1054:	11 c6       	rjmp	.+3106   	; 0x1c78 <main+0xd50>
    1056:	e6 96       	adiw	r28, 0x36	; 54
    1058:	8e ad       	ldd	r24, Y+62	; 0x3e
    105a:	9f ad       	ldd	r25, Y+63	; 0x3f
    105c:	e6 97       	sbiw	r28, 0x36	; 54
    105e:	86 30       	cpi	r24, 0x06	; 6
    1060:	91 05       	cpc	r25, r1
    1062:	bc f4       	brge	.+46     	; 0x1092 <main+0x16a>
    1064:	e6 96       	adiw	r28, 0x36	; 54
    1066:	ee ad       	ldd	r30, Y+62	; 0x3e
    1068:	ff ad       	ldd	r31, Y+63	; 0x3f
    106a:	e6 97       	sbiw	r28, 0x36	; 54
    106c:	e1 30       	cpi	r30, 0x01	; 1
    106e:	f1 05       	cpc	r31, r1
    1070:	09 f4       	brne	.+2      	; 0x1074 <main+0x14c>
    1072:	4c c4       	rjmp	.+2200   	; 0x190c <main+0x9e4>
    1074:	e6 96       	adiw	r28, 0x36	; 54
    1076:	2e ad       	ldd	r18, Y+62	; 0x3e
    1078:	3f ad       	ldd	r19, Y+63	; 0x3f
    107a:	e6 97       	sbiw	r28, 0x36	; 54
    107c:	22 30       	cpi	r18, 0x02	; 2
    107e:	31 05       	cpc	r19, r1
    1080:	09 f4       	brne	.+2      	; 0x1084 <main+0x15c>
    1082:	22 c6       	rjmp	.+3140   	; 0x1cc8 <main+0xda0>
    1084:	e6 96       	adiw	r28, 0x36	; 54
    1086:	8e ad       	ldd	r24, Y+62	; 0x3e
    1088:	9f ad       	ldd	r25, Y+63	; 0x3f
    108a:	e6 97       	sbiw	r28, 0x36	; 54
    108c:	00 97       	sbiw	r24, 0x00	; 0
    108e:	c9 f0       	breq	.+50     	; 0x10c2 <main+0x19a>
    1090:	d2 cf       	rjmp	.-92     	; 0x1036 <main+0x10e>
    1092:	e6 96       	adiw	r28, 0x36	; 54
    1094:	ee ad       	ldd	r30, Y+62	; 0x3e
    1096:	ff ad       	ldd	r31, Y+63	; 0x3f
    1098:	e6 97       	sbiw	r28, 0x36	; 54
    109a:	e1 33       	cpi	r30, 0x31	; 49
    109c:	f1 05       	cpc	r31, r1
    109e:	09 f4       	brne	.+2      	; 0x10a2 <main+0x17a>
    10a0:	54 c0       	rjmp	.+168    	; 0x114a <main+0x222>
    10a2:	e6 96       	adiw	r28, 0x36	; 54
    10a4:	2e ad       	ldd	r18, Y+62	; 0x3e
    10a6:	3f ad       	ldd	r19, Y+63	; 0x3f
    10a8:	e6 97       	sbiw	r28, 0x36	; 54
    10aa:	22 33       	cpi	r18, 0x32	; 50
    10ac:	31 05       	cpc	r19, r1
    10ae:	09 f4       	brne	.+2      	; 0x10b2 <main+0x18a>
    10b0:	bd c2       	rjmp	.+1402   	; 0x162c <main+0x704>
    10b2:	e6 96       	adiw	r28, 0x36	; 54
    10b4:	8e ad       	ldd	r24, Y+62	; 0x3e
    10b6:	9f ad       	ldd	r25, Y+63	; 0x3f
    10b8:	e6 97       	sbiw	r28, 0x36	; 54
    10ba:	80 33       	cpi	r24, 0x30	; 48
    10bc:	91 05       	cpc	r25, r1
    10be:	39 f0       	breq	.+14     	; 0x10ce <main+0x1a6>
    10c0:	ba cf       	rjmp	.-140    	; 0x1036 <main+0x10e>
    {
      case WELCOME :
        WelcomingMsg();
    10c2:	0e 94 b5 1e 	call	0x3d6a	; 0x3d6a <WelcomingMsg>
        AppState = FIRST_PAGE;
    10c6:	80 e3       	ldi	r24, 0x30	; 48
    10c8:	80 93 42 04 	sts	0x0442, r24
    10cc:	b4 cf       	rjmp	.-152    	; 0x1036 <main+0x10e>
        break;
      case FIRST_PAGE:
        Lcd_vidCmd(_LCD_CLEAR);
    10ce:	81 e0       	ldi	r24, 0x01	; 1
    10d0:	0e 94 e6 26 	call	0x4dcc	; 0x4dcc <Lcd_vidCmd>
        Lcd_vidDisplayStr("    Welcome     ");
    10d4:	80 e6       	ldi	r24, 0x60	; 96
    10d6:	90 e0       	ldi	r25, 0x00	; 0
    10d8:	0e 94 34 27 	call	0x4e68	; 0x4e68 <Lcd_vidDisplayStr>
        Hc05_SendString("Choose user using Keypad");
    10dc:	81 e7       	ldi	r24, 0x71	; 113
    10de:	90 e0       	ldi	r25, 0x00	; 0
    10e0:	0e 94 17 29 	call	0x522e	; 0x522e <Hc05_SendString>
        Lcd_vidRowColumn(1, 0);
    10e4:	81 e0       	ldi	r24, 0x01	; 1
    10e6:	60 e0       	ldi	r22, 0x00	; 0
    10e8:	0e 94 0d 27 	call	0x4e1a	; 0x4e1a <Lcd_vidRowColumn>
        Lcd_vidDisplayStr("1:Admin 2:User");
    10ec:	8a e8       	ldi	r24, 0x8A	; 138
    10ee:	90 e0       	ldi	r25, 0x00	; 0
    10f0:	0e 94 34 27 	call	0x4e68	; 0x4e68 <Lcd_vidDisplayStr>
        Hc05_SendString("1:Admin 2:User");
    10f4:	8a e8       	ldi	r24, 0x8A	; 138
    10f6:	90 e0       	ldi	r25, 0x00	; 0
    10f8:	0e 94 17 29 	call	0x522e	; 0x522e <Hc05_SendString>
        KeyPressed = Keypad_getChar();
    10fc:	0e 94 0d 28 	call	0x501a	; 0x501a <Keypad_getChar>
    1100:	fe 01       	movw	r30, r28
    1102:	ea 59       	subi	r30, 0x9A	; 154
    1104:	ff 4f       	sbci	r31, 0xFF	; 255
    1106:	80 83       	st	Z, r24
    1108:	19 c0       	rjmp	.+50     	; 0x113c <main+0x214>
        while (!KeyPressed)
        {
          KeyPressed = Keypad_getChar();
    110a:	0e 94 0d 28 	call	0x501a	; 0x501a <Keypad_getChar>
    110e:	fe 01       	movw	r30, r28
    1110:	ea 59       	subi	r30, 0x9A	; 154
    1112:	ff 4f       	sbci	r31, 0xFF	; 255
    1114:	80 83       	st	Z, r24
          if (KeyPressed == '1')
    1116:	fe 01       	movw	r30, r28
    1118:	ea 59       	subi	r30, 0x9A	; 154
    111a:	ff 4f       	sbci	r31, 0xFF	; 255
    111c:	80 81       	ld	r24, Z
    111e:	81 33       	cpi	r24, 0x31	; 49
    1120:	21 f4       	brne	.+8      	; 0x112a <main+0x202>
          {
            AppState = ADMIN_LOGIN_PAGE;
    1122:	81 e3       	ldi	r24, 0x31	; 49
    1124:	80 93 42 04 	sts	0x0442, r24
    1128:	09 c0       	rjmp	.+18     	; 0x113c <main+0x214>
          }
          else if (KeyPressed == '2')
    112a:	fe 01       	movw	r30, r28
    112c:	ea 59       	subi	r30, 0x9A	; 154
    112e:	ff 4f       	sbci	r31, 0xFF	; 255
    1130:	80 81       	ld	r24, Z
    1132:	82 33       	cpi	r24, 0x32	; 50
    1134:	19 f4       	brne	.+6      	; 0x113c <main+0x214>
          {
            AppState = USER_LOGIN_PAGE;
    1136:	82 e3       	ldi	r24, 0x32	; 50
    1138:	80 93 42 04 	sts	0x0442, r24
        Hc05_SendString("Choose user using Keypad");
        Lcd_vidRowColumn(1, 0);
        Lcd_vidDisplayStr("1:Admin 2:User");
        Hc05_SendString("1:Admin 2:User");
        KeyPressed = Keypad_getChar();
        while (!KeyPressed)
    113c:	fe 01       	movw	r30, r28
    113e:	ea 59       	subi	r30, 0x9A	; 154
    1140:	ff 4f       	sbci	r31, 0xFF	; 255
    1142:	80 81       	ld	r24, Z
    1144:	88 23       	and	r24, r24
    1146:	09 f3       	breq	.-62     	; 0x110a <main+0x1e2>
    1148:	76 cf       	rjmp	.-276    	; 0x1036 <main+0x10e>

        }
        break;

      case ADMIN_LOGIN_PAGE:
        Trails = 0;
    114a:	fe 01       	movw	r30, r28
    114c:	eb 59       	subi	r30, 0x9B	; 155
    114e:	ff 4f       	sbci	r31, 0xFF	; 255
    1150:	10 82       	st	Z, r1
        Lcd_vidCmd(_LCD_CLEAR);
    1152:	81 e0       	ldi	r24, 0x01	; 1
    1154:	0e 94 e6 26 	call	0x4dcc	; 0x4dcc <Lcd_vidCmd>
        Hc05_SendString("Welcome Admin");
    1158:	89 e9       	ldi	r24, 0x99	; 153
    115a:	90 e0       	ldi	r25, 0x00	; 0
    115c:	0e 94 17 29 	call	0x522e	; 0x522e <Hc05_SendString>
        Lcd_vidDisplayStr("Welcome Admin");
    1160:	89 e9       	ldi	r24, 0x99	; 153
    1162:	90 e0       	ldi	r25, 0x00	; 0
    1164:	0e 94 34 27 	call	0x4e68	; 0x4e68 <Lcd_vidDisplayStr>
    1168:	fe 01       	movw	r30, r28
    116a:	e1 5a       	subi	r30, 0xA1	; 161
    116c:	ff 4f       	sbci	r31, 0xFF	; 255
    116e:	80 e0       	ldi	r24, 0x00	; 0
    1170:	90 e0       	ldi	r25, 0x00	; 0
    1172:	aa e7       	ldi	r26, 0x7A	; 122
    1174:	b4 e4       	ldi	r27, 0x44	; 68
    1176:	80 83       	st	Z, r24
    1178:	91 83       	std	Z+1, r25	; 0x01
    117a:	a2 83       	std	Z+2, r26	; 0x02
    117c:	b3 83       	std	Z+3, r27	; 0x03
 */
void
_delay_ms(double __ms)
{
	uint16_t __ticks;
	double __tmp = ((F_CPU) / 4e3) * __ms;
    117e:	8e 01       	movw	r16, r28
    1180:	05 5a       	subi	r16, 0xA5	; 165
    1182:	1f 4f       	sbci	r17, 0xFF	; 255
    1184:	fe 01       	movw	r30, r28
    1186:	e1 5a       	subi	r30, 0xA1	; 161
    1188:	ff 4f       	sbci	r31, 0xFF	; 255
    118a:	60 81       	ld	r22, Z
    118c:	71 81       	ldd	r23, Z+1	; 0x01
    118e:	82 81       	ldd	r24, Z+2	; 0x02
    1190:	93 81       	ldd	r25, Z+3	; 0x03
    1192:	20 e0       	ldi	r18, 0x00	; 0
    1194:	30 e0       	ldi	r19, 0x00	; 0
    1196:	4a e7       	ldi	r20, 0x7A	; 122
    1198:	55 e4       	ldi	r21, 0x45	; 69
    119a:	0e 94 9c 02 	call	0x538	; 0x538 <__mulsf3>
    119e:	dc 01       	movw	r26, r24
    11a0:	cb 01       	movw	r24, r22
    11a2:	f8 01       	movw	r30, r16
    11a4:	80 83       	st	Z, r24
    11a6:	91 83       	std	Z+1, r25	; 0x01
    11a8:	a2 83       	std	Z+2, r26	; 0x02
    11aa:	b3 83       	std	Z+3, r27	; 0x03
	if (__tmp < 1.0)
    11ac:	fe 01       	movw	r30, r28
    11ae:	e5 5a       	subi	r30, 0xA5	; 165
    11b0:	ff 4f       	sbci	r31, 0xFF	; 255
    11b2:	60 81       	ld	r22, Z
    11b4:	71 81       	ldd	r23, Z+1	; 0x01
    11b6:	82 81       	ldd	r24, Z+2	; 0x02
    11b8:	93 81       	ldd	r25, Z+3	; 0x03
    11ba:	20 e0       	ldi	r18, 0x00	; 0
    11bc:	30 e0       	ldi	r19, 0x00	; 0
    11be:	40 e8       	ldi	r20, 0x80	; 128
    11c0:	5f e3       	ldi	r21, 0x3F	; 63
    11c2:	0e 94 a2 04 	call	0x944	; 0x944 <__ltsf2>
    11c6:	88 23       	and	r24, r24
    11c8:	44 f4       	brge	.+16     	; 0x11da <main+0x2b2>
		__ticks = 1;
    11ca:	fe 01       	movw	r30, r28
    11cc:	e7 5a       	subi	r30, 0xA7	; 167
    11ce:	ff 4f       	sbci	r31, 0xFF	; 255
    11d0:	81 e0       	ldi	r24, 0x01	; 1
    11d2:	90 e0       	ldi	r25, 0x00	; 0
    11d4:	91 83       	std	Z+1, r25	; 0x01
    11d6:	80 83       	st	Z, r24
    11d8:	64 c0       	rjmp	.+200    	; 0x12a2 <main+0x37a>
	else if (__tmp > 65535)
    11da:	fe 01       	movw	r30, r28
    11dc:	e5 5a       	subi	r30, 0xA5	; 165
    11de:	ff 4f       	sbci	r31, 0xFF	; 255
    11e0:	60 81       	ld	r22, Z
    11e2:	71 81       	ldd	r23, Z+1	; 0x01
    11e4:	82 81       	ldd	r24, Z+2	; 0x02
    11e6:	93 81       	ldd	r25, Z+3	; 0x03
    11e8:	20 e0       	ldi	r18, 0x00	; 0
    11ea:	3f ef       	ldi	r19, 0xFF	; 255
    11ec:	4f e7       	ldi	r20, 0x7F	; 127
    11ee:	57 e4       	ldi	r21, 0x47	; 71
    11f0:	0e 94 42 04 	call	0x884	; 0x884 <__gtsf2>
    11f4:	18 16       	cp	r1, r24
    11f6:	0c f0       	brlt	.+2      	; 0x11fa <main+0x2d2>
    11f8:	43 c0       	rjmp	.+134    	; 0x1280 <main+0x358>
	{
		//	__ticks = requested delay in 1/10 ms
		__ticks = (uint16_t) (__ms * 10.0);
    11fa:	fe 01       	movw	r30, r28
    11fc:	e1 5a       	subi	r30, 0xA1	; 161
    11fe:	ff 4f       	sbci	r31, 0xFF	; 255
    1200:	60 81       	ld	r22, Z
    1202:	71 81       	ldd	r23, Z+1	; 0x01
    1204:	82 81       	ldd	r24, Z+2	; 0x02
    1206:	93 81       	ldd	r25, Z+3	; 0x03
    1208:	20 e0       	ldi	r18, 0x00	; 0
    120a:	30 e0       	ldi	r19, 0x00	; 0
    120c:	40 e2       	ldi	r20, 0x20	; 32
    120e:	51 e4       	ldi	r21, 0x41	; 65
    1210:	0e 94 9c 02 	call	0x538	; 0x538 <__mulsf3>
    1214:	dc 01       	movw	r26, r24
    1216:	cb 01       	movw	r24, r22
    1218:	8e 01       	movw	r16, r28
    121a:	07 5a       	subi	r16, 0xA7	; 167
    121c:	1f 4f       	sbci	r17, 0xFF	; 255
    121e:	bc 01       	movw	r22, r24
    1220:	cd 01       	movw	r24, r26
    1222:	0e 94 c6 00 	call	0x18c	; 0x18c <__fixunssfsi>
    1226:	dc 01       	movw	r26, r24
    1228:	cb 01       	movw	r24, r22
    122a:	f8 01       	movw	r30, r16
    122c:	91 83       	std	Z+1, r25	; 0x01
    122e:	80 83       	st	Z, r24
    1230:	1f c0       	rjmp	.+62     	; 0x1270 <main+0x348>
    1232:	fe 01       	movw	r30, r28
    1234:	e9 5a       	subi	r30, 0xA9	; 169
    1236:	ff 4f       	sbci	r31, 0xFF	; 255
    1238:	80 e9       	ldi	r24, 0x90	; 144
    123a:	91 e0       	ldi	r25, 0x01	; 1
    123c:	91 83       	std	Z+1, r25	; 0x01
    123e:	80 83       	st	Z, r24
    milliseconds can be achieved.
 */
void
_delay_loop_2(uint16_t __count)
{
	__asm__ volatile (
    1240:	fe 01       	movw	r30, r28
    1242:	e9 5a       	subi	r30, 0xA9	; 169
    1244:	ff 4f       	sbci	r31, 0xFF	; 255
    1246:	80 81       	ld	r24, Z
    1248:	91 81       	ldd	r25, Z+1	; 0x01
    124a:	01 97       	sbiw	r24, 0x01	; 1
    124c:	f1 f7       	brne	.-4      	; 0x124a <main+0x322>
    124e:	fe 01       	movw	r30, r28
    1250:	e9 5a       	subi	r30, 0xA9	; 169
    1252:	ff 4f       	sbci	r31, 0xFF	; 255
    1254:	91 83       	std	Z+1, r25	; 0x01
    1256:	80 83       	st	Z, r24
		while(__ticks)
		{
			// wait 1/10 ms
			_delay_loop_2(((F_CPU) / 4e3) / 10);
			__ticks --;
    1258:	de 01       	movw	r26, r28
    125a:	a7 5a       	subi	r26, 0xA7	; 167
    125c:	bf 4f       	sbci	r27, 0xFF	; 255
    125e:	fe 01       	movw	r30, r28
    1260:	e7 5a       	subi	r30, 0xA7	; 167
    1262:	ff 4f       	sbci	r31, 0xFF	; 255
    1264:	80 81       	ld	r24, Z
    1266:	91 81       	ldd	r25, Z+1	; 0x01
    1268:	01 97       	sbiw	r24, 0x01	; 1
    126a:	11 96       	adiw	r26, 0x01	; 1
    126c:	9c 93       	st	X, r25
    126e:	8e 93       	st	-X, r24
		__ticks = 1;
	else if (__tmp > 65535)
	{
		//	__ticks = requested delay in 1/10 ms
		__ticks = (uint16_t) (__ms * 10.0);
		while(__ticks)
    1270:	fe 01       	movw	r30, r28
    1272:	e7 5a       	subi	r30, 0xA7	; 167
    1274:	ff 4f       	sbci	r31, 0xFF	; 255
    1276:	80 81       	ld	r24, Z
    1278:	91 81       	ldd	r25, Z+1	; 0x01
    127a:	00 97       	sbiw	r24, 0x00	; 0
    127c:	d1 f6       	brne	.-76     	; 0x1232 <main+0x30a>
    127e:	27 c0       	rjmp	.+78     	; 0x12ce <main+0x3a6>
			__ticks --;
		}
		return;
	}
	else
		__ticks = (uint16_t)__tmp;
    1280:	8e 01       	movw	r16, r28
    1282:	07 5a       	subi	r16, 0xA7	; 167
    1284:	1f 4f       	sbci	r17, 0xFF	; 255
    1286:	fe 01       	movw	r30, r28
    1288:	e5 5a       	subi	r30, 0xA5	; 165
    128a:	ff 4f       	sbci	r31, 0xFF	; 255
    128c:	60 81       	ld	r22, Z
    128e:	71 81       	ldd	r23, Z+1	; 0x01
    1290:	82 81       	ldd	r24, Z+2	; 0x02
    1292:	93 81       	ldd	r25, Z+3	; 0x03
    1294:	0e 94 c6 00 	call	0x18c	; 0x18c <__fixunssfsi>
    1298:	dc 01       	movw	r26, r24
    129a:	cb 01       	movw	r24, r22
    129c:	f8 01       	movw	r30, r16
    129e:	91 83       	std	Z+1, r25	; 0x01
    12a0:	80 83       	st	Z, r24
    12a2:	de 01       	movw	r26, r28
    12a4:	ab 5a       	subi	r26, 0xAB	; 171
    12a6:	bf 4f       	sbci	r27, 0xFF	; 255
    12a8:	fe 01       	movw	r30, r28
    12aa:	e7 5a       	subi	r30, 0xA7	; 167
    12ac:	ff 4f       	sbci	r31, 0xFF	; 255
    12ae:	80 81       	ld	r24, Z
    12b0:	91 81       	ldd	r25, Z+1	; 0x01
    12b2:	8d 93       	st	X+, r24
    12b4:	9c 93       	st	X, r25
    12b6:	fe 01       	movw	r30, r28
    12b8:	eb 5a       	subi	r30, 0xAB	; 171
    12ba:	ff 4f       	sbci	r31, 0xFF	; 255
    12bc:	80 81       	ld	r24, Z
    12be:	91 81       	ldd	r25, Z+1	; 0x01
    12c0:	01 97       	sbiw	r24, 0x01	; 1
    12c2:	f1 f7       	brne	.-4      	; 0x12c0 <main+0x398>
    12c4:	fe 01       	movw	r30, r28
    12c6:	eb 5a       	subi	r30, 0xAB	; 171
    12c8:	ff 4f       	sbci	r31, 0xFF	; 255
    12ca:	91 83       	std	Z+1, r25	; 0x01
    12cc:	80 83       	st	Z, r24
        _delay_ms(1000);
        Lcd_vidCmd(_LCD_CLEAR);
    12ce:	81 e0       	ldi	r24, 0x01	; 1
    12d0:	0e 94 e6 26 	call	0x4dcc	; 0x4dcc <Lcd_vidCmd>
        Lcd_vidRowColumn(0, 0);
    12d4:	80 e0       	ldi	r24, 0x00	; 0
    12d6:	60 e0       	ldi	r22, 0x00	; 0
    12d8:	0e 94 0d 27 	call	0x4e1a	; 0x4e1a <Lcd_vidRowColumn>
        Lcd_vidDisplayStr("Admin Mode");
    12dc:	87 ea       	ldi	r24, 0xA7	; 167
    12de:	90 e0       	ldi	r25, 0x00	; 0
    12e0:	0e 94 34 27 	call	0x4e68	; 0x4e68 <Lcd_vidDisplayStr>
        Lcd_vidRowColumn(1, 0);
    12e4:	81 e0       	ldi	r24, 0x01	; 1
    12e6:	60 e0       	ldi	r22, 0x00	; 0
    12e8:	0e 94 0d 27 	call	0x4e1a	; 0x4e1a <Lcd_vidRowColumn>
        Lcd_vidDisplayStr("Use Bluetooth");
    12ec:	82 eb       	ldi	r24, 0xB2	; 178
    12ee:	90 e0       	ldi	r25, 0x00	; 0
    12f0:	0e 94 34 27 	call	0x4e68	; 0x4e68 <Lcd_vidDisplayStr>
        Hc05_SendString("Use Bluetooth");
    12f4:	82 eb       	ldi	r24, 0xB2	; 178
    12f6:	90 e0       	ldi	r25, 0x00	; 0
    12f8:	0e 94 17 29 	call	0x522e	; 0x522e <Hc05_SendString>
    12fc:	fe 01       	movw	r30, r28
    12fe:	ef 5a       	subi	r30, 0xAF	; 175
    1300:	ff 4f       	sbci	r31, 0xFF	; 255
    1302:	80 e0       	ldi	r24, 0x00	; 0
    1304:	90 e8       	ldi	r25, 0x80	; 128
    1306:	ab e3       	ldi	r26, 0x3B	; 59
    1308:	b5 e4       	ldi	r27, 0x45	; 69
    130a:	80 83       	st	Z, r24
    130c:	91 83       	std	Z+1, r25	; 0x01
    130e:	a2 83       	std	Z+2, r26	; 0x02
    1310:	b3 83       	std	Z+3, r27	; 0x03
 */
void
_delay_ms(double __ms)
{
	uint16_t __ticks;
	double __tmp = ((F_CPU) / 4e3) * __ms;
    1312:	8e 01       	movw	r16, r28
    1314:	03 5b       	subi	r16, 0xB3	; 179
    1316:	1f 4f       	sbci	r17, 0xFF	; 255
    1318:	fe 01       	movw	r30, r28
    131a:	ef 5a       	subi	r30, 0xAF	; 175
    131c:	ff 4f       	sbci	r31, 0xFF	; 255
    131e:	60 81       	ld	r22, Z
    1320:	71 81       	ldd	r23, Z+1	; 0x01
    1322:	82 81       	ldd	r24, Z+2	; 0x02
    1324:	93 81       	ldd	r25, Z+3	; 0x03
    1326:	20 e0       	ldi	r18, 0x00	; 0
    1328:	30 e0       	ldi	r19, 0x00	; 0
    132a:	4a e7       	ldi	r20, 0x7A	; 122
    132c:	55 e4       	ldi	r21, 0x45	; 69
    132e:	0e 94 9c 02 	call	0x538	; 0x538 <__mulsf3>
    1332:	dc 01       	movw	r26, r24
    1334:	cb 01       	movw	r24, r22
    1336:	f8 01       	movw	r30, r16
    1338:	80 83       	st	Z, r24
    133a:	91 83       	std	Z+1, r25	; 0x01
    133c:	a2 83       	std	Z+2, r26	; 0x02
    133e:	b3 83       	std	Z+3, r27	; 0x03
	if (__tmp < 1.0)
    1340:	fe 01       	movw	r30, r28
    1342:	e3 5b       	subi	r30, 0xB3	; 179
    1344:	ff 4f       	sbci	r31, 0xFF	; 255
    1346:	60 81       	ld	r22, Z
    1348:	71 81       	ldd	r23, Z+1	; 0x01
    134a:	82 81       	ldd	r24, Z+2	; 0x02
    134c:	93 81       	ldd	r25, Z+3	; 0x03
    134e:	20 e0       	ldi	r18, 0x00	; 0
    1350:	30 e0       	ldi	r19, 0x00	; 0
    1352:	40 e8       	ldi	r20, 0x80	; 128
    1354:	5f e3       	ldi	r21, 0x3F	; 63
    1356:	0e 94 a2 04 	call	0x944	; 0x944 <__ltsf2>
    135a:	88 23       	and	r24, r24
    135c:	44 f4       	brge	.+16     	; 0x136e <main+0x446>
		__ticks = 1;
    135e:	fe 01       	movw	r30, r28
    1360:	e5 5b       	subi	r30, 0xB5	; 181
    1362:	ff 4f       	sbci	r31, 0xFF	; 255
    1364:	81 e0       	ldi	r24, 0x01	; 1
    1366:	90 e0       	ldi	r25, 0x00	; 0
    1368:	91 83       	std	Z+1, r25	; 0x01
    136a:	80 83       	st	Z, r24
    136c:	64 c0       	rjmp	.+200    	; 0x1436 <main+0x50e>
	else if (__tmp > 65535)
    136e:	fe 01       	movw	r30, r28
    1370:	e3 5b       	subi	r30, 0xB3	; 179
    1372:	ff 4f       	sbci	r31, 0xFF	; 255
    1374:	60 81       	ld	r22, Z
    1376:	71 81       	ldd	r23, Z+1	; 0x01
    1378:	82 81       	ldd	r24, Z+2	; 0x02
    137a:	93 81       	ldd	r25, Z+3	; 0x03
    137c:	20 e0       	ldi	r18, 0x00	; 0
    137e:	3f ef       	ldi	r19, 0xFF	; 255
    1380:	4f e7       	ldi	r20, 0x7F	; 127
    1382:	57 e4       	ldi	r21, 0x47	; 71
    1384:	0e 94 42 04 	call	0x884	; 0x884 <__gtsf2>
    1388:	18 16       	cp	r1, r24
    138a:	0c f0       	brlt	.+2      	; 0x138e <main+0x466>
    138c:	43 c0       	rjmp	.+134    	; 0x1414 <main+0x4ec>
	{
		//	__ticks = requested delay in 1/10 ms
		__ticks = (uint16_t) (__ms * 10.0);
    138e:	fe 01       	movw	r30, r28
    1390:	ef 5a       	subi	r30, 0xAF	; 175
    1392:	ff 4f       	sbci	r31, 0xFF	; 255
    1394:	60 81       	ld	r22, Z
    1396:	71 81       	ldd	r23, Z+1	; 0x01
    1398:	82 81       	ldd	r24, Z+2	; 0x02
    139a:	93 81       	ldd	r25, Z+3	; 0x03
    139c:	20 e0       	ldi	r18, 0x00	; 0
    139e:	30 e0       	ldi	r19, 0x00	; 0
    13a0:	40 e2       	ldi	r20, 0x20	; 32
    13a2:	51 e4       	ldi	r21, 0x41	; 65
    13a4:	0e 94 9c 02 	call	0x538	; 0x538 <__mulsf3>
    13a8:	dc 01       	movw	r26, r24
    13aa:	cb 01       	movw	r24, r22
    13ac:	8e 01       	movw	r16, r28
    13ae:	05 5b       	subi	r16, 0xB5	; 181
    13b0:	1f 4f       	sbci	r17, 0xFF	; 255
    13b2:	bc 01       	movw	r22, r24
    13b4:	cd 01       	movw	r24, r26
    13b6:	0e 94 c6 00 	call	0x18c	; 0x18c <__fixunssfsi>
    13ba:	dc 01       	movw	r26, r24
    13bc:	cb 01       	movw	r24, r22
    13be:	f8 01       	movw	r30, r16
    13c0:	91 83       	std	Z+1, r25	; 0x01
    13c2:	80 83       	st	Z, r24
    13c4:	1f c0       	rjmp	.+62     	; 0x1404 <main+0x4dc>
    13c6:	fe 01       	movw	r30, r28
    13c8:	e7 5b       	subi	r30, 0xB7	; 183
    13ca:	ff 4f       	sbci	r31, 0xFF	; 255
    13cc:	80 e9       	ldi	r24, 0x90	; 144
    13ce:	91 e0       	ldi	r25, 0x01	; 1
    13d0:	91 83       	std	Z+1, r25	; 0x01
    13d2:	80 83       	st	Z, r24
    13d4:	fe 01       	movw	r30, r28
    13d6:	e7 5b       	subi	r30, 0xB7	; 183
    13d8:	ff 4f       	sbci	r31, 0xFF	; 255
    13da:	80 81       	ld	r24, Z
    13dc:	91 81       	ldd	r25, Z+1	; 0x01
    13de:	01 97       	sbiw	r24, 0x01	; 1
    13e0:	f1 f7       	brne	.-4      	; 0x13de <main+0x4b6>
    13e2:	fe 01       	movw	r30, r28
    13e4:	e7 5b       	subi	r30, 0xB7	; 183
    13e6:	ff 4f       	sbci	r31, 0xFF	; 255
    13e8:	91 83       	std	Z+1, r25	; 0x01
    13ea:	80 83       	st	Z, r24
		while(__ticks)
		{
			// wait 1/10 ms
			_delay_loop_2(((F_CPU) / 4e3) / 10);
			__ticks --;
    13ec:	de 01       	movw	r26, r28
    13ee:	a5 5b       	subi	r26, 0xB5	; 181
    13f0:	bf 4f       	sbci	r27, 0xFF	; 255
    13f2:	fe 01       	movw	r30, r28
    13f4:	e5 5b       	subi	r30, 0xB5	; 181
    13f6:	ff 4f       	sbci	r31, 0xFF	; 255
    13f8:	80 81       	ld	r24, Z
    13fa:	91 81       	ldd	r25, Z+1	; 0x01
    13fc:	01 97       	sbiw	r24, 0x01	; 1
    13fe:	11 96       	adiw	r26, 0x01	; 1
    1400:	9c 93       	st	X, r25
    1402:	8e 93       	st	-X, r24
		__ticks = 1;
	else if (__tmp > 65535)
	{
		//	__ticks = requested delay in 1/10 ms
		__ticks = (uint16_t) (__ms * 10.0);
		while(__ticks)
    1404:	fe 01       	movw	r30, r28
    1406:	e5 5b       	subi	r30, 0xB5	; 181
    1408:	ff 4f       	sbci	r31, 0xFF	; 255
    140a:	80 81       	ld	r24, Z
    140c:	91 81       	ldd	r25, Z+1	; 0x01
    140e:	00 97       	sbiw	r24, 0x00	; 0
    1410:	d1 f6       	brne	.-76     	; 0x13c6 <main+0x49e>
    1412:	00 c1       	rjmp	.+512    	; 0x1614 <main+0x6ec>
			__ticks --;
		}
		return;
	}
	else
		__ticks = (uint16_t)__tmp;
    1414:	8e 01       	movw	r16, r28
    1416:	05 5b       	subi	r16, 0xB5	; 181
    1418:	1f 4f       	sbci	r17, 0xFF	; 255
    141a:	fe 01       	movw	r30, r28
    141c:	e3 5b       	subi	r30, 0xB3	; 179
    141e:	ff 4f       	sbci	r31, 0xFF	; 255
    1420:	60 81       	ld	r22, Z
    1422:	71 81       	ldd	r23, Z+1	; 0x01
    1424:	82 81       	ldd	r24, Z+2	; 0x02
    1426:	93 81       	ldd	r25, Z+3	; 0x03
    1428:	0e 94 c6 00 	call	0x18c	; 0x18c <__fixunssfsi>
    142c:	dc 01       	movw	r26, r24
    142e:	cb 01       	movw	r24, r22
    1430:	f8 01       	movw	r30, r16
    1432:	91 83       	std	Z+1, r25	; 0x01
    1434:	80 83       	st	Z, r24
    1436:	de 01       	movw	r26, r28
    1438:	a9 5b       	subi	r26, 0xB9	; 185
    143a:	bf 4f       	sbci	r27, 0xFF	; 255
    143c:	fe 01       	movw	r30, r28
    143e:	e5 5b       	subi	r30, 0xB5	; 181
    1440:	ff 4f       	sbci	r31, 0xFF	; 255
    1442:	80 81       	ld	r24, Z
    1444:	91 81       	ldd	r25, Z+1	; 0x01
    1446:	11 96       	adiw	r26, 0x01	; 1
    1448:	9c 93       	st	X, r25
    144a:	8e 93       	st	-X, r24
    144c:	fe 01       	movw	r30, r28
    144e:	e9 5b       	subi	r30, 0xB9	; 185
    1450:	ff 4f       	sbci	r31, 0xFF	; 255
    1452:	80 81       	ld	r24, Z
    1454:	91 81       	ldd	r25, Z+1	; 0x01
    1456:	01 97       	sbiw	r24, 0x01	; 1
    1458:	f1 f7       	brne	.-4      	; 0x1456 <main+0x52e>
    145a:	fe 01       	movw	r30, r28
    145c:	e9 5b       	subi	r30, 0xB9	; 185
    145e:	ff 4f       	sbci	r31, 0xFF	; 255
    1460:	91 83       	std	Z+1, r25	; 0x01
    1462:	80 83       	st	Z, r24
    1464:	d7 c0       	rjmp	.+430    	; 0x1614 <main+0x6ec>
        _delay_ms(3000);

        while (Trails < 3)
        {
          Hc05_SendString("Enter Username");
    1466:	80 ec       	ldi	r24, 0xC0	; 192
    1468:	90 e0       	ldi	r25, 0x00	; 0
    146a:	0e 94 17 29 	call	0x522e	; 0x522e <Hc05_SendString>
          InputID(UserID, AdminMode);
    146e:	ce 01       	movw	r24, r28
    1470:	88 59       	subi	r24, 0x98	; 152
    1472:	9f 4f       	sbci	r25, 0xFF	; 255
    1474:	61 e0       	ldi	r22, 0x01	; 1
    1476:	0e 94 fc 1a 	call	0x35f8	; 0x35f8 <InputID>
          Hc05_SendString("Enter Password");
    147a:	8f ec       	ldi	r24, 0xCF	; 207
    147c:	90 e0       	ldi	r25, 0x00	; 0
    147e:	0e 94 17 29 	call	0x522e	; 0x522e <Hc05_SendString>
          InputPassword(UserPassword, AdminMode);
    1482:	ce 01       	movw	r24, r28
    1484:	85 59       	subi	r24, 0x95	; 149
    1486:	9f 4f       	sbci	r25, 0xFF	; 255
    1488:	61 e0       	ldi	r22, 0x01	; 1
    148a:	0e 94 62 1c 	call	0x38c4	; 0x38c4 <InputPassword>

          if (AdminLogin(UserID, UserPassword) == 0)
    148e:	ce 01       	movw	r24, r28
    1490:	88 59       	subi	r24, 0x98	; 152
    1492:	9f 4f       	sbci	r25, 0xFF	; 255
    1494:	9e 01       	movw	r18, r28
    1496:	25 59       	subi	r18, 0x95	; 149
    1498:	3f 4f       	sbci	r19, 0xFF	; 255
    149a:	b9 01       	movw	r22, r18
    149c:	0e 94 02 15 	call	0x2a04	; 0x2a04 <AdminLogin>
    14a0:	88 23       	and	r24, r24
    14a2:	21 f4       	brne	.+8      	; 0x14ac <main+0x584>
          {
            AppState = ADMIN_SECOND_PAGE;
    14a4:	81 e0       	ldi	r24, 0x01	; 1
    14a6:	80 93 42 04 	sts	0x0442, r24
    14aa:	bb c0       	rjmp	.+374    	; 0x1622 <main+0x6fa>
            break;
          }
          else
          {
            Trails++;
    14ac:	de 01       	movw	r26, r28
    14ae:	ab 59       	subi	r26, 0x9B	; 155
    14b0:	bf 4f       	sbci	r27, 0xFF	; 255
    14b2:	fe 01       	movw	r30, r28
    14b4:	eb 59       	subi	r30, 0x9B	; 155
    14b6:	ff 4f       	sbci	r31, 0xFF	; 255
    14b8:	80 81       	ld	r24, Z
    14ba:	8f 5f       	subi	r24, 0xFF	; 255
    14bc:	8c 93       	st	X, r24
            if (Trails == 3)
    14be:	fe 01       	movw	r30, r28
    14c0:	eb 59       	subi	r30, 0x9B	; 155
    14c2:	ff 4f       	sbci	r31, 0xFF	; 255
    14c4:	80 81       	ld	r24, Z
    14c6:	83 30       	cpi	r24, 0x03	; 3
    14c8:	09 f0       	breq	.+2      	; 0x14cc <main+0x5a4>
    14ca:	a4 c0       	rjmp	.+328    	; 0x1614 <main+0x6ec>
            {
              Buzzer_vidbuzzerOn();
    14cc:	0e 94 9e 2a 	call	0x553c	; 0x553c <Buzzer_vidbuzzerOn>
              ServoMotor_VidCloseDoor();
    14d0:	0e 94 db 20 	call	0x41b6	; 0x41b6 <ServoMotor_VidCloseDoor>
              KeyPressed = Button_udtbuttonStatus(BUTTON2);
    14d4:	82 e0       	ldi	r24, 0x02	; 2
    14d6:	0e 94 cc 2a 	call	0x5598	; 0x5598 <Button_udtbuttonStatus>
    14da:	fe 01       	movw	r30, r28
    14dc:	ea 59       	subi	r30, 0x9A	; 154
    14de:	ff 4f       	sbci	r31, 0xFF	; 255
    14e0:	80 83       	st	Z, r24
              while (1)
              {
                if (Button_udtbuttonStatus(BUTTON2) == PRESSED)
    14e2:	82 e0       	ldi	r24, 0x02	; 2
    14e4:	0e 94 cc 2a 	call	0x5598	; 0x5598 <Button_udtbuttonStatus>
    14e8:	81 30       	cpi	r24, 0x01	; 1
    14ea:	d9 f7       	brne	.-10     	; 0x14e2 <main+0x5ba>
    14ec:	fe 01       	movw	r30, r28
    14ee:	ed 5b       	subi	r30, 0xBD	; 189
    14f0:	ff 4f       	sbci	r31, 0xFF	; 255
    14f2:	80 e0       	ldi	r24, 0x00	; 0
    14f4:	90 e0       	ldi	r25, 0x00	; 0
    14f6:	a0 ea       	ldi	r26, 0xA0	; 160
    14f8:	b2 e4       	ldi	r27, 0x42	; 66
    14fa:	80 83       	st	Z, r24
    14fc:	91 83       	std	Z+1, r25	; 0x01
    14fe:	a2 83       	std	Z+2, r26	; 0x02
    1500:	b3 83       	std	Z+3, r27	; 0x03
 */
void
_delay_ms(double __ms)
{
	uint16_t __ticks;
	double __tmp = ((F_CPU) / 4e3) * __ms;
    1502:	8e 01       	movw	r16, r28
    1504:	01 5c       	subi	r16, 0xC1	; 193
    1506:	1f 4f       	sbci	r17, 0xFF	; 255
    1508:	fe 01       	movw	r30, r28
    150a:	ed 5b       	subi	r30, 0xBD	; 189
    150c:	ff 4f       	sbci	r31, 0xFF	; 255
    150e:	60 81       	ld	r22, Z
    1510:	71 81       	ldd	r23, Z+1	; 0x01
    1512:	82 81       	ldd	r24, Z+2	; 0x02
    1514:	93 81       	ldd	r25, Z+3	; 0x03
    1516:	20 e0       	ldi	r18, 0x00	; 0
    1518:	30 e0       	ldi	r19, 0x00	; 0
    151a:	4a e7       	ldi	r20, 0x7A	; 122
    151c:	55 e4       	ldi	r21, 0x45	; 69
    151e:	0e 94 9c 02 	call	0x538	; 0x538 <__mulsf3>
    1522:	dc 01       	movw	r26, r24
    1524:	cb 01       	movw	r24, r22
    1526:	f8 01       	movw	r30, r16
    1528:	80 83       	st	Z, r24
    152a:	91 83       	std	Z+1, r25	; 0x01
    152c:	a2 83       	std	Z+2, r26	; 0x02
    152e:	b3 83       	std	Z+3, r27	; 0x03
	if (__tmp < 1.0)
    1530:	fe 01       	movw	r30, r28
    1532:	ff 96       	adiw	r30, 0x3f	; 63
    1534:	60 81       	ld	r22, Z
    1536:	71 81       	ldd	r23, Z+1	; 0x01
    1538:	82 81       	ldd	r24, Z+2	; 0x02
    153a:	93 81       	ldd	r25, Z+3	; 0x03
    153c:	20 e0       	ldi	r18, 0x00	; 0
    153e:	30 e0       	ldi	r19, 0x00	; 0
    1540:	40 e8       	ldi	r20, 0x80	; 128
    1542:	5f e3       	ldi	r21, 0x3F	; 63
    1544:	0e 94 a2 04 	call	0x944	; 0x944 <__ltsf2>
    1548:	88 23       	and	r24, r24
    154a:	2c f4       	brge	.+10     	; 0x1556 <main+0x62e>
		__ticks = 1;
    154c:	81 e0       	ldi	r24, 0x01	; 1
    154e:	90 e0       	ldi	r25, 0x00	; 0
    1550:	9e af       	std	Y+62, r25	; 0x3e
    1552:	8d af       	std	Y+61, r24	; 0x3d
    1554:	46 c0       	rjmp	.+140    	; 0x15e2 <main+0x6ba>
	else if (__tmp > 65535)
    1556:	fe 01       	movw	r30, r28
    1558:	ff 96       	adiw	r30, 0x3f	; 63
    155a:	60 81       	ld	r22, Z
    155c:	71 81       	ldd	r23, Z+1	; 0x01
    155e:	82 81       	ldd	r24, Z+2	; 0x02
    1560:	93 81       	ldd	r25, Z+3	; 0x03
    1562:	20 e0       	ldi	r18, 0x00	; 0
    1564:	3f ef       	ldi	r19, 0xFF	; 255
    1566:	4f e7       	ldi	r20, 0x7F	; 127
    1568:	57 e4       	ldi	r21, 0x47	; 71
    156a:	0e 94 42 04 	call	0x884	; 0x884 <__gtsf2>
    156e:	18 16       	cp	r1, r24
    1570:	64 f5       	brge	.+88     	; 0x15ca <main+0x6a2>
	{
		//	__ticks = requested delay in 1/10 ms
		__ticks = (uint16_t) (__ms * 10.0);
    1572:	fe 01       	movw	r30, r28
    1574:	ed 5b       	subi	r30, 0xBD	; 189
    1576:	ff 4f       	sbci	r31, 0xFF	; 255
    1578:	60 81       	ld	r22, Z
    157a:	71 81       	ldd	r23, Z+1	; 0x01
    157c:	82 81       	ldd	r24, Z+2	; 0x02
    157e:	93 81       	ldd	r25, Z+3	; 0x03
    1580:	20 e0       	ldi	r18, 0x00	; 0
    1582:	30 e0       	ldi	r19, 0x00	; 0
    1584:	40 e2       	ldi	r20, 0x20	; 32
    1586:	51 e4       	ldi	r21, 0x41	; 65
    1588:	0e 94 9c 02 	call	0x538	; 0x538 <__mulsf3>
    158c:	dc 01       	movw	r26, r24
    158e:	cb 01       	movw	r24, r22
    1590:	bc 01       	movw	r22, r24
    1592:	cd 01       	movw	r24, r26
    1594:	0e 94 c6 00 	call	0x18c	; 0x18c <__fixunssfsi>
    1598:	dc 01       	movw	r26, r24
    159a:	cb 01       	movw	r24, r22
    159c:	9e af       	std	Y+62, r25	; 0x3e
    159e:	8d af       	std	Y+61, r24	; 0x3d
    15a0:	0f c0       	rjmp	.+30     	; 0x15c0 <main+0x698>
    15a2:	80 e9       	ldi	r24, 0x90	; 144
    15a4:	91 e0       	ldi	r25, 0x01	; 1
    15a6:	9c af       	std	Y+60, r25	; 0x3c
    15a8:	8b af       	std	Y+59, r24	; 0x3b
    15aa:	8b ad       	ldd	r24, Y+59	; 0x3b
    15ac:	9c ad       	ldd	r25, Y+60	; 0x3c
    15ae:	01 97       	sbiw	r24, 0x01	; 1
    15b0:	f1 f7       	brne	.-4      	; 0x15ae <main+0x686>
    15b2:	9c af       	std	Y+60, r25	; 0x3c
    15b4:	8b af       	std	Y+59, r24	; 0x3b
		while(__ticks)
		{
			// wait 1/10 ms
			_delay_loop_2(((F_CPU) / 4e3) / 10);
			__ticks --;
    15b6:	8d ad       	ldd	r24, Y+61	; 0x3d
    15b8:	9e ad       	ldd	r25, Y+62	; 0x3e
    15ba:	01 97       	sbiw	r24, 0x01	; 1
    15bc:	9e af       	std	Y+62, r25	; 0x3e
    15be:	8d af       	std	Y+61, r24	; 0x3d
		__ticks = 1;
	else if (__tmp > 65535)
	{
		//	__ticks = requested delay in 1/10 ms
		__ticks = (uint16_t) (__ms * 10.0);
		while(__ticks)
    15c0:	8d ad       	ldd	r24, Y+61	; 0x3d
    15c2:	9e ad       	ldd	r25, Y+62	; 0x3e
    15c4:	00 97       	sbiw	r24, 0x00	; 0
    15c6:	69 f7       	brne	.-38     	; 0x15a2 <main+0x67a>
    15c8:	16 c0       	rjmp	.+44     	; 0x15f6 <main+0x6ce>
			__ticks --;
		}
		return;
	}
	else
		__ticks = (uint16_t)__tmp;
    15ca:	fe 01       	movw	r30, r28
    15cc:	ff 96       	adiw	r30, 0x3f	; 63
    15ce:	60 81       	ld	r22, Z
    15d0:	71 81       	ldd	r23, Z+1	; 0x01
    15d2:	82 81       	ldd	r24, Z+2	; 0x02
    15d4:	93 81       	ldd	r25, Z+3	; 0x03
    15d6:	0e 94 c6 00 	call	0x18c	; 0x18c <__fixunssfsi>
    15da:	dc 01       	movw	r26, r24
    15dc:	cb 01       	movw	r24, r22
    15de:	9e af       	std	Y+62, r25	; 0x3e
    15e0:	8d af       	std	Y+61, r24	; 0x3d
    15e2:	8d ad       	ldd	r24, Y+61	; 0x3d
    15e4:	9e ad       	ldd	r25, Y+62	; 0x3e
    15e6:	9a af       	std	Y+58, r25	; 0x3a
    15e8:	89 af       	std	Y+57, r24	; 0x39
    15ea:	89 ad       	ldd	r24, Y+57	; 0x39
    15ec:	9a ad       	ldd	r25, Y+58	; 0x3a
    15ee:	01 97       	sbiw	r24, 0x01	; 1
    15f0:	f1 f7       	brne	.-4      	; 0x15ee <main+0x6c6>
    15f2:	9a af       	std	Y+58, r25	; 0x3a
    15f4:	89 af       	std	Y+57, r24	; 0x39
                {
                  _delay_ms(80);
                  if (Button_udtbuttonStatus(BUTTON2) == PRESSED)
    15f6:	82 e0       	ldi	r24, 0x02	; 2
    15f8:	0e 94 cc 2a 	call	0x5598	; 0x5598 <Button_udtbuttonStatus>
    15fc:	81 30       	cpi	r24, 0x01	; 1
    15fe:	09 f0       	breq	.+2      	; 0x1602 <main+0x6da>
    1600:	70 cf       	rjmp	.-288    	; 0x14e2 <main+0x5ba>
                  {
                    while (Button_udtbuttonStatus(BUTTON2) == PRESSED);
    1602:	82 e0       	ldi	r24, 0x02	; 2
    1604:	0e 94 cc 2a 	call	0x5598	; 0x5598 <Button_udtbuttonStatus>
    1608:	81 30       	cpi	r24, 0x01	; 1
    160a:	d9 f3       	breq	.-10     	; 0x1602 <main+0x6da>
                    Buzzer_vidbuzzerOff();
    160c:	0e 94 aa 2a 	call	0x5554	; 0x5554 <Buzzer_vidbuzzerOff>
                    AppState = WELCOME;
    1610:	10 92 42 04 	sts	0x0442, r1
        Lcd_vidRowColumn(1, 0);
        Lcd_vidDisplayStr("Use Bluetooth");
        Hc05_SendString("Use Bluetooth");
        _delay_ms(3000);

        while (Trails < 3)
    1614:	fe 01       	movw	r30, r28
    1616:	eb 59       	subi	r30, 0x9B	; 155
    1618:	ff 4f       	sbci	r31, 0xFF	; 255
    161a:	80 81       	ld	r24, Z
    161c:	83 30       	cpi	r24, 0x03	; 3
    161e:	08 f4       	brcc	.+2      	; 0x1622 <main+0x6fa>
    1620:	22 cf       	rjmp	.-444    	; 0x1466 <main+0x53e>
                }
              }
            }
          }
        }
        Trails = 0;
    1622:	fe 01       	movw	r30, r28
    1624:	eb 59       	subi	r30, 0x9B	; 155
    1626:	ff 4f       	sbci	r31, 0xFF	; 255
    1628:	10 82       	st	Z, r1
    162a:	05 cd       	rjmp	.-1526   	; 0x1036 <main+0x10e>
        break;

      case USER_LOGIN_PAGE:
        Trails = 0;
    162c:	fe 01       	movw	r30, r28
    162e:	eb 59       	subi	r30, 0x9B	; 155
    1630:	ff 4f       	sbci	r31, 0xFF	; 255
    1632:	10 82       	st	Z, r1
        Lcd_vidCmd(_LCD_CLEAR);
    1634:	81 e0       	ldi	r24, 0x01	; 1
    1636:	0e 94 e6 26 	call	0x4dcc	; 0x4dcc <Lcd_vidCmd>
        Lcd_vidDisplayStr("Welcome User");
    163a:	8e ed       	ldi	r24, 0xDE	; 222
    163c:	90 e0       	ldi	r25, 0x00	; 0
    163e:	0e 94 34 27 	call	0x4e68	; 0x4e68 <Lcd_vidDisplayStr>
    1642:	80 e0       	ldi	r24, 0x00	; 0
    1644:	90 e0       	ldi	r25, 0x00	; 0
    1646:	aa e7       	ldi	r26, 0x7A	; 122
    1648:	b4 e4       	ldi	r27, 0x44	; 68
    164a:	8d ab       	std	Y+53, r24	; 0x35
    164c:	9e ab       	std	Y+54, r25	; 0x36
    164e:	af ab       	std	Y+55, r26	; 0x37
    1650:	b8 af       	std	Y+56, r27	; 0x38
 */
void
_delay_ms(double __ms)
{
	uint16_t __ticks;
	double __tmp = ((F_CPU) / 4e3) * __ms;
    1652:	6d a9       	ldd	r22, Y+53	; 0x35
    1654:	7e a9       	ldd	r23, Y+54	; 0x36
    1656:	8f a9       	ldd	r24, Y+55	; 0x37
    1658:	98 ad       	ldd	r25, Y+56	; 0x38
    165a:	20 e0       	ldi	r18, 0x00	; 0
    165c:	30 e0       	ldi	r19, 0x00	; 0
    165e:	4a e7       	ldi	r20, 0x7A	; 122
    1660:	55 e4       	ldi	r21, 0x45	; 69
    1662:	0e 94 9c 02 	call	0x538	; 0x538 <__mulsf3>
    1666:	dc 01       	movw	r26, r24
    1668:	cb 01       	movw	r24, r22
    166a:	89 ab       	std	Y+49, r24	; 0x31
    166c:	9a ab       	std	Y+50, r25	; 0x32
    166e:	ab ab       	std	Y+51, r26	; 0x33
    1670:	bc ab       	std	Y+52, r27	; 0x34
	if (__tmp < 1.0)
    1672:	69 a9       	ldd	r22, Y+49	; 0x31
    1674:	7a a9       	ldd	r23, Y+50	; 0x32
    1676:	8b a9       	ldd	r24, Y+51	; 0x33
    1678:	9c a9       	ldd	r25, Y+52	; 0x34
    167a:	20 e0       	ldi	r18, 0x00	; 0
    167c:	30 e0       	ldi	r19, 0x00	; 0
    167e:	40 e8       	ldi	r20, 0x80	; 128
    1680:	5f e3       	ldi	r21, 0x3F	; 63
    1682:	0e 94 a2 04 	call	0x944	; 0x944 <__ltsf2>
    1686:	88 23       	and	r24, r24
    1688:	2c f4       	brge	.+10     	; 0x1694 <main+0x76c>
		__ticks = 1;
    168a:	81 e0       	ldi	r24, 0x01	; 1
    168c:	90 e0       	ldi	r25, 0x00	; 0
    168e:	98 ab       	std	Y+48, r25	; 0x30
    1690:	8f a7       	std	Y+47, r24	; 0x2f
    1692:	3f c0       	rjmp	.+126    	; 0x1712 <main+0x7ea>
	else if (__tmp > 65535)
    1694:	69 a9       	ldd	r22, Y+49	; 0x31
    1696:	7a a9       	ldd	r23, Y+50	; 0x32
    1698:	8b a9       	ldd	r24, Y+51	; 0x33
    169a:	9c a9       	ldd	r25, Y+52	; 0x34
    169c:	20 e0       	ldi	r18, 0x00	; 0
    169e:	3f ef       	ldi	r19, 0xFF	; 255
    16a0:	4f e7       	ldi	r20, 0x7F	; 127
    16a2:	57 e4       	ldi	r21, 0x47	; 71
    16a4:	0e 94 42 04 	call	0x884	; 0x884 <__gtsf2>
    16a8:	18 16       	cp	r1, r24
    16aa:	4c f5       	brge	.+82     	; 0x16fe <main+0x7d6>
	{
		//	__ticks = requested delay in 1/10 ms
		__ticks = (uint16_t) (__ms * 10.0);
    16ac:	6d a9       	ldd	r22, Y+53	; 0x35
    16ae:	7e a9       	ldd	r23, Y+54	; 0x36
    16b0:	8f a9       	ldd	r24, Y+55	; 0x37
    16b2:	98 ad       	ldd	r25, Y+56	; 0x38
    16b4:	20 e0       	ldi	r18, 0x00	; 0
    16b6:	30 e0       	ldi	r19, 0x00	; 0
    16b8:	40 e2       	ldi	r20, 0x20	; 32
    16ba:	51 e4       	ldi	r21, 0x41	; 65
    16bc:	0e 94 9c 02 	call	0x538	; 0x538 <__mulsf3>
    16c0:	dc 01       	movw	r26, r24
    16c2:	cb 01       	movw	r24, r22
    16c4:	bc 01       	movw	r22, r24
    16c6:	cd 01       	movw	r24, r26
    16c8:	0e 94 c6 00 	call	0x18c	; 0x18c <__fixunssfsi>
    16cc:	dc 01       	movw	r26, r24
    16ce:	cb 01       	movw	r24, r22
    16d0:	98 ab       	std	Y+48, r25	; 0x30
    16d2:	8f a7       	std	Y+47, r24	; 0x2f
    16d4:	0f c0       	rjmp	.+30     	; 0x16f4 <main+0x7cc>
    16d6:	80 e9       	ldi	r24, 0x90	; 144
    16d8:	91 e0       	ldi	r25, 0x01	; 1
    16da:	9e a7       	std	Y+46, r25	; 0x2e
    16dc:	8d a7       	std	Y+45, r24	; 0x2d
    16de:	8d a5       	ldd	r24, Y+45	; 0x2d
    16e0:	9e a5       	ldd	r25, Y+46	; 0x2e
    16e2:	01 97       	sbiw	r24, 0x01	; 1
    16e4:	f1 f7       	brne	.-4      	; 0x16e2 <main+0x7ba>
    16e6:	9e a7       	std	Y+46, r25	; 0x2e
    16e8:	8d a7       	std	Y+45, r24	; 0x2d
		while(__ticks)
		{
			// wait 1/10 ms
			_delay_loop_2(((F_CPU) / 4e3) / 10);
			__ticks --;
    16ea:	8f a5       	ldd	r24, Y+47	; 0x2f
    16ec:	98 a9       	ldd	r25, Y+48	; 0x30
    16ee:	01 97       	sbiw	r24, 0x01	; 1
    16f0:	98 ab       	std	Y+48, r25	; 0x30
    16f2:	8f a7       	std	Y+47, r24	; 0x2f
		__ticks = 1;
	else if (__tmp > 65535)
	{
		//	__ticks = requested delay in 1/10 ms
		__ticks = (uint16_t) (__ms * 10.0);
		while(__ticks)
    16f4:	8f a5       	ldd	r24, Y+47	; 0x2f
    16f6:	98 a9       	ldd	r25, Y+48	; 0x30
    16f8:	00 97       	sbiw	r24, 0x00	; 0
    16fa:	69 f7       	brne	.-38     	; 0x16d6 <main+0x7ae>
    16fc:	fb c0       	rjmp	.+502    	; 0x18f4 <main+0x9cc>
			__ticks --;
		}
		return;
	}
	else
		__ticks = (uint16_t)__tmp;
    16fe:	69 a9       	ldd	r22, Y+49	; 0x31
    1700:	7a a9       	ldd	r23, Y+50	; 0x32
    1702:	8b a9       	ldd	r24, Y+51	; 0x33
    1704:	9c a9       	ldd	r25, Y+52	; 0x34
    1706:	0e 94 c6 00 	call	0x18c	; 0x18c <__fixunssfsi>
    170a:	dc 01       	movw	r26, r24
    170c:	cb 01       	movw	r24, r22
    170e:	98 ab       	std	Y+48, r25	; 0x30
    1710:	8f a7       	std	Y+47, r24	; 0x2f
    1712:	8f a5       	ldd	r24, Y+47	; 0x2f
    1714:	98 a9       	ldd	r25, Y+48	; 0x30
    1716:	9c a7       	std	Y+44, r25	; 0x2c
    1718:	8b a7       	std	Y+43, r24	; 0x2b
    171a:	8b a5       	ldd	r24, Y+43	; 0x2b
    171c:	9c a5       	ldd	r25, Y+44	; 0x2c
    171e:	01 97       	sbiw	r24, 0x01	; 1
    1720:	f1 f7       	brne	.-4      	; 0x171e <main+0x7f6>
    1722:	9c a7       	std	Y+44, r25	; 0x2c
    1724:	8b a7       	std	Y+43, r24	; 0x2b
    1726:	e6 c0       	rjmp	.+460    	; 0x18f4 <main+0x9cc>
        _delay_ms(1000);
        while (Trails < 3)
        {
          Lcd_vidCmd(_LCD_CLEAR);
    1728:	81 e0       	ldi	r24, 0x01	; 1
    172a:	0e 94 e6 26 	call	0x4dcc	; 0x4dcc <Lcd_vidCmd>
          Lcd_vidDisplayStr("Enter Username");
    172e:	80 ec       	ldi	r24, 0xC0	; 192
    1730:	90 e0       	ldi	r25, 0x00	; 0
    1732:	0e 94 34 27 	call	0x4e68	; 0x4e68 <Lcd_vidDisplayStr>
          InputID(UserID, UserMode);
    1736:	ce 01       	movw	r24, r28
    1738:	88 59       	subi	r24, 0x98	; 152
    173a:	9f 4f       	sbci	r25, 0xFF	; 255
    173c:	62 e0       	ldi	r22, 0x02	; 2
    173e:	0e 94 fc 1a 	call	0x35f8	; 0x35f8 <InputID>
          Lcd_vidCmd(_LCD_CLEAR);
    1742:	81 e0       	ldi	r24, 0x01	; 1
    1744:	0e 94 e6 26 	call	0x4dcc	; 0x4dcc <Lcd_vidCmd>
          Lcd_vidDisplayStr("Enter Password");
    1748:	8f ec       	ldi	r24, 0xCF	; 207
    174a:	90 e0       	ldi	r25, 0x00	; 0
    174c:	0e 94 34 27 	call	0x4e68	; 0x4e68 <Lcd_vidDisplayStr>
          InputPassword(UserPassword, UserMode);
    1750:	ce 01       	movw	r24, r28
    1752:	85 59       	subi	r24, 0x95	; 149
    1754:	9f 4f       	sbci	r25, 0xFF	; 255
    1756:	62 e0       	ldi	r22, 0x02	; 2
    1758:	0e 94 62 1c 	call	0x38c4	; 0x38c4 <InputPassword>
          u8 LoginResult = UserLogin(UserID, UserPassword);
    175c:	ce 01       	movw	r24, r28
    175e:	88 59       	subi	r24, 0x98	; 152
    1760:	9f 4f       	sbci	r25, 0xFF	; 255
    1762:	9e 01       	movw	r18, r28
    1764:	25 59       	subi	r18, 0x95	; 149
    1766:	3f 4f       	sbci	r19, 0xFF	; 255
    1768:	b9 01       	movw	r22, r18
    176a:	0e 94 52 19 	call	0x32a4	; 0x32a4 <UserLogin>
    176e:	fe 01       	movw	r30, r28
    1770:	ed 59       	subi	r30, 0x9D	; 157
    1772:	ff 4f       	sbci	r31, 0xFF	; 255
    1774:	80 83       	st	Z, r24

          if (LoginResult == 0)
    1776:	fe 01       	movw	r30, r28
    1778:	ed 59       	subi	r30, 0x9D	; 157
    177a:	ff 4f       	sbci	r31, 0xFF	; 255
    177c:	80 81       	ld	r24, Z
    177e:	88 23       	and	r24, r24
    1780:	21 f4       	brne	.+8      	; 0x178a <main+0x862>
          {
            AppState = USER_SECOND_PAGE;
    1782:	82 e0       	ldi	r24, 0x02	; 2
    1784:	80 93 42 04 	sts	0x0442, r24
    1788:	bc c0       	rjmp	.+376    	; 0x1902 <main+0x9da>
            break;
          }
          else if (LoginResult == 2)
    178a:	fe 01       	movw	r30, r28
    178c:	ed 59       	subi	r30, 0x9D	; 157
    178e:	ff 4f       	sbci	r31, 0xFF	; 255
    1790:	80 81       	ld	r24, Z
    1792:	82 30       	cpi	r24, 0x02	; 2
    1794:	21 f4       	brne	.+8      	; 0x179e <main+0x876>
          {
            AppState = FIRST_PAGE;
    1796:	80 e3       	ldi	r24, 0x30	; 48
    1798:	80 93 42 04 	sts	0x0442, r24
    179c:	b2 c0       	rjmp	.+356    	; 0x1902 <main+0x9da>
            break;
          }
          else if (LoginResult == 1)
    179e:	fe 01       	movw	r30, r28
    17a0:	ed 59       	subi	r30, 0x9D	; 157
    17a2:	ff 4f       	sbci	r31, 0xFF	; 255
    17a4:	80 81       	ld	r24, Z
    17a6:	81 30       	cpi	r24, 0x01	; 1
    17a8:	09 f0       	breq	.+2      	; 0x17ac <main+0x884>
    17aa:	a4 c0       	rjmp	.+328    	; 0x18f4 <main+0x9cc>
          {
            Trails++;
    17ac:	de 01       	movw	r26, r28
    17ae:	ab 59       	subi	r26, 0x9B	; 155
    17b0:	bf 4f       	sbci	r27, 0xFF	; 255
    17b2:	fe 01       	movw	r30, r28
    17b4:	eb 59       	subi	r30, 0x9B	; 155
    17b6:	ff 4f       	sbci	r31, 0xFF	; 255
    17b8:	80 81       	ld	r24, Z
    17ba:	8f 5f       	subi	r24, 0xFF	; 255
    17bc:	8c 93       	st	X, r24
            if (Trails == 3)
    17be:	fe 01       	movw	r30, r28
    17c0:	eb 59       	subi	r30, 0x9B	; 155
    17c2:	ff 4f       	sbci	r31, 0xFF	; 255
    17c4:	80 81       	ld	r24, Z
    17c6:	83 30       	cpi	r24, 0x03	; 3
    17c8:	09 f0       	breq	.+2      	; 0x17cc <main+0x8a4>
    17ca:	94 c0       	rjmp	.+296    	; 0x18f4 <main+0x9cc>
            {
              Buzzer_vidbuzzerOn();
    17cc:	0e 94 9e 2a 	call	0x553c	; 0x553c <Buzzer_vidbuzzerOn>
              ServoMotor_VidCloseDoor();
    17d0:	0e 94 db 20 	call	0x41b6	; 0x41b6 <ServoMotor_VidCloseDoor>
              Lcd_vidCmd(_LCD_CLEAR);
    17d4:	81 e0       	ldi	r24, 0x01	; 1
    17d6:	0e 94 e6 26 	call	0x4dcc	; 0x4dcc <Lcd_vidCmd>
              KeyPressed = Button_udtbuttonStatus(BUTTON2);
    17da:	82 e0       	ldi	r24, 0x02	; 2
    17dc:	0e 94 cc 2a 	call	0x5598	; 0x5598 <Button_udtbuttonStatus>
    17e0:	fe 01       	movw	r30, r28
    17e2:	ea 59       	subi	r30, 0x9A	; 154
    17e4:	ff 4f       	sbci	r31, 0xFF	; 255
    17e6:	80 83       	st	Z, r24

              while (1)
              {
                if (Button_udtbuttonStatus(BUTTON2) == PRESSED)
    17e8:	82 e0       	ldi	r24, 0x02	; 2
    17ea:	0e 94 cc 2a 	call	0x5598	; 0x5598 <Button_udtbuttonStatus>
    17ee:	81 30       	cpi	r24, 0x01	; 1
    17f0:	d9 f7       	brne	.-10     	; 0x17e8 <main+0x8c0>
    17f2:	80 e0       	ldi	r24, 0x00	; 0
    17f4:	90 e0       	ldi	r25, 0x00	; 0
    17f6:	a0 ea       	ldi	r26, 0xA0	; 160
    17f8:	b2 e4       	ldi	r27, 0x42	; 66
    17fa:	8f a3       	std	Y+39, r24	; 0x27
    17fc:	98 a7       	std	Y+40, r25	; 0x28
    17fe:	a9 a7       	std	Y+41, r26	; 0x29
    1800:	ba a7       	std	Y+42, r27	; 0x2a
 */
void
_delay_ms(double __ms)
{
	uint16_t __ticks;
	double __tmp = ((F_CPU) / 4e3) * __ms;
    1802:	6f a1       	ldd	r22, Y+39	; 0x27
    1804:	78 a5       	ldd	r23, Y+40	; 0x28
    1806:	89 a5       	ldd	r24, Y+41	; 0x29
    1808:	9a a5       	ldd	r25, Y+42	; 0x2a
    180a:	20 e0       	ldi	r18, 0x00	; 0
    180c:	30 e0       	ldi	r19, 0x00	; 0
    180e:	4a e7       	ldi	r20, 0x7A	; 122
    1810:	55 e4       	ldi	r21, 0x45	; 69
    1812:	0e 94 9c 02 	call	0x538	; 0x538 <__mulsf3>
    1816:	dc 01       	movw	r26, r24
    1818:	cb 01       	movw	r24, r22
    181a:	8b a3       	std	Y+35, r24	; 0x23
    181c:	9c a3       	std	Y+36, r25	; 0x24
    181e:	ad a3       	std	Y+37, r26	; 0x25
    1820:	be a3       	std	Y+38, r27	; 0x26
	if (__tmp < 1.0)
    1822:	6b a1       	ldd	r22, Y+35	; 0x23
    1824:	7c a1       	ldd	r23, Y+36	; 0x24
    1826:	8d a1       	ldd	r24, Y+37	; 0x25
    1828:	9e a1       	ldd	r25, Y+38	; 0x26
    182a:	20 e0       	ldi	r18, 0x00	; 0
    182c:	30 e0       	ldi	r19, 0x00	; 0
    182e:	40 e8       	ldi	r20, 0x80	; 128
    1830:	5f e3       	ldi	r21, 0x3F	; 63
    1832:	0e 94 a2 04 	call	0x944	; 0x944 <__ltsf2>
    1836:	88 23       	and	r24, r24
    1838:	2c f4       	brge	.+10     	; 0x1844 <main+0x91c>
		__ticks = 1;
    183a:	81 e0       	ldi	r24, 0x01	; 1
    183c:	90 e0       	ldi	r25, 0x00	; 0
    183e:	9a a3       	std	Y+34, r25	; 0x22
    1840:	89 a3       	std	Y+33, r24	; 0x21
    1842:	3f c0       	rjmp	.+126    	; 0x18c2 <main+0x99a>
	else if (__tmp > 65535)
    1844:	6b a1       	ldd	r22, Y+35	; 0x23
    1846:	7c a1       	ldd	r23, Y+36	; 0x24
    1848:	8d a1       	ldd	r24, Y+37	; 0x25
    184a:	9e a1       	ldd	r25, Y+38	; 0x26
    184c:	20 e0       	ldi	r18, 0x00	; 0
    184e:	3f ef       	ldi	r19, 0xFF	; 255
    1850:	4f e7       	ldi	r20, 0x7F	; 127
    1852:	57 e4       	ldi	r21, 0x47	; 71
    1854:	0e 94 42 04 	call	0x884	; 0x884 <__gtsf2>
    1858:	18 16       	cp	r1, r24
    185a:	4c f5       	brge	.+82     	; 0x18ae <main+0x986>
	{
		//	__ticks = requested delay in 1/10 ms
		__ticks = (uint16_t) (__ms * 10.0);
    185c:	6f a1       	ldd	r22, Y+39	; 0x27
    185e:	78 a5       	ldd	r23, Y+40	; 0x28
    1860:	89 a5       	ldd	r24, Y+41	; 0x29
    1862:	9a a5       	ldd	r25, Y+42	; 0x2a
    1864:	20 e0       	ldi	r18, 0x00	; 0
    1866:	30 e0       	ldi	r19, 0x00	; 0
    1868:	40 e2       	ldi	r20, 0x20	; 32
    186a:	51 e4       	ldi	r21, 0x41	; 65
    186c:	0e 94 9c 02 	call	0x538	; 0x538 <__mulsf3>
    1870:	dc 01       	movw	r26, r24
    1872:	cb 01       	movw	r24, r22
    1874:	bc 01       	movw	r22, r24
    1876:	cd 01       	movw	r24, r26
    1878:	0e 94 c6 00 	call	0x18c	; 0x18c <__fixunssfsi>
    187c:	dc 01       	movw	r26, r24
    187e:	cb 01       	movw	r24, r22
    1880:	9a a3       	std	Y+34, r25	; 0x22
    1882:	89 a3       	std	Y+33, r24	; 0x21
    1884:	0f c0       	rjmp	.+30     	; 0x18a4 <main+0x97c>
    1886:	80 e9       	ldi	r24, 0x90	; 144
    1888:	91 e0       	ldi	r25, 0x01	; 1
    188a:	98 a3       	std	Y+32, r25	; 0x20
    188c:	8f 8f       	std	Y+31, r24	; 0x1f
    188e:	8f 8d       	ldd	r24, Y+31	; 0x1f
    1890:	98 a1       	ldd	r25, Y+32	; 0x20
    1892:	01 97       	sbiw	r24, 0x01	; 1
    1894:	f1 f7       	brne	.-4      	; 0x1892 <main+0x96a>
    1896:	98 a3       	std	Y+32, r25	; 0x20
    1898:	8f 8f       	std	Y+31, r24	; 0x1f
		while(__ticks)
		{
			// wait 1/10 ms
			_delay_loop_2(((F_CPU) / 4e3) / 10);
			__ticks --;
    189a:	89 a1       	ldd	r24, Y+33	; 0x21
    189c:	9a a1       	ldd	r25, Y+34	; 0x22
    189e:	01 97       	sbiw	r24, 0x01	; 1
    18a0:	9a a3       	std	Y+34, r25	; 0x22
    18a2:	89 a3       	std	Y+33, r24	; 0x21
		__ticks = 1;
	else if (__tmp > 65535)
	{
		//	__ticks = requested delay in 1/10 ms
		__ticks = (uint16_t) (__ms * 10.0);
		while(__ticks)
    18a4:	89 a1       	ldd	r24, Y+33	; 0x21
    18a6:	9a a1       	ldd	r25, Y+34	; 0x22
    18a8:	00 97       	sbiw	r24, 0x00	; 0
    18aa:	69 f7       	brne	.-38     	; 0x1886 <main+0x95e>
    18ac:	14 c0       	rjmp	.+40     	; 0x18d6 <main+0x9ae>
			__ticks --;
		}
		return;
	}
	else
		__ticks = (uint16_t)__tmp;
    18ae:	6b a1       	ldd	r22, Y+35	; 0x23
    18b0:	7c a1       	ldd	r23, Y+36	; 0x24
    18b2:	8d a1       	ldd	r24, Y+37	; 0x25
    18b4:	9e a1       	ldd	r25, Y+38	; 0x26
    18b6:	0e 94 c6 00 	call	0x18c	; 0x18c <__fixunssfsi>
    18ba:	dc 01       	movw	r26, r24
    18bc:	cb 01       	movw	r24, r22
    18be:	9a a3       	std	Y+34, r25	; 0x22
    18c0:	89 a3       	std	Y+33, r24	; 0x21
    18c2:	89 a1       	ldd	r24, Y+33	; 0x21
    18c4:	9a a1       	ldd	r25, Y+34	; 0x22
    18c6:	9e 8f       	std	Y+30, r25	; 0x1e
    18c8:	8d 8f       	std	Y+29, r24	; 0x1d
    18ca:	8d 8d       	ldd	r24, Y+29	; 0x1d
    18cc:	9e 8d       	ldd	r25, Y+30	; 0x1e
    18ce:	01 97       	sbiw	r24, 0x01	; 1
    18d0:	f1 f7       	brne	.-4      	; 0x18ce <main+0x9a6>
    18d2:	9e 8f       	std	Y+30, r25	; 0x1e
    18d4:	8d 8f       	std	Y+29, r24	; 0x1d
                {
                  _delay_ms(80);
                  if (Button_udtbuttonStatus(BUTTON2) == PRESSED)
    18d6:	82 e0       	ldi	r24, 0x02	; 2
    18d8:	0e 94 cc 2a 	call	0x5598	; 0x5598 <Button_udtbuttonStatus>
    18dc:	81 30       	cpi	r24, 0x01	; 1
    18de:	09 f0       	breq	.+2      	; 0x18e2 <main+0x9ba>
    18e0:	83 cf       	rjmp	.-250    	; 0x17e8 <main+0x8c0>
                  {
                    while (Button_udtbuttonStatus(BUTTON2) == PRESSED);
    18e2:	82 e0       	ldi	r24, 0x02	; 2
    18e4:	0e 94 cc 2a 	call	0x5598	; 0x5598 <Button_udtbuttonStatus>
    18e8:	81 30       	cpi	r24, 0x01	; 1
    18ea:	d9 f3       	breq	.-10     	; 0x18e2 <main+0x9ba>
                    Buzzer_vidbuzzerOff();
    18ec:	0e 94 aa 2a 	call	0x5554	; 0x5554 <Buzzer_vidbuzzerOff>
                    AppState = WELCOME;
    18f0:	10 92 42 04 	sts	0x0442, r1
      case USER_LOGIN_PAGE:
        Trails = 0;
        Lcd_vidCmd(_LCD_CLEAR);
        Lcd_vidDisplayStr("Welcome User");
        _delay_ms(1000);
        while (Trails < 3)
    18f4:	fe 01       	movw	r30, r28
    18f6:	eb 59       	subi	r30, 0x9B	; 155
    18f8:	ff 4f       	sbci	r31, 0xFF	; 255
    18fa:	80 81       	ld	r24, Z
    18fc:	83 30       	cpi	r24, 0x03	; 3
    18fe:	08 f4       	brcc	.+2      	; 0x1902 <main+0x9da>
    1900:	13 cf       	rjmp	.-474    	; 0x1728 <main+0x800>
                }
              }
            }
          }
        }
        Trails = 0;
    1902:	fe 01       	movw	r30, r28
    1904:	eb 59       	subi	r30, 0x9B	; 155
    1906:	ff 4f       	sbci	r31, 0xFF	; 255
    1908:	10 82       	st	Z, r1
    190a:	95 cb       	rjmp	.-2262   	; 0x1036 <main+0x10e>
        break;

      case ADMIN_SECOND_PAGE:
        BluetoothData = 0;
    190c:	fe 01       	movw	r30, r28
    190e:	ec 59       	subi	r30, 0x9C	; 156
    1910:	ff 4f       	sbci	r31, 0xFF	; 255
    1912:	10 82       	st	Z, r1
        BluetoothData = Hc05_Rec();
    1914:	0e 94 bd 29 	call	0x537a	; 0x537a <Hc05_Rec>
    1918:	fe 01       	movw	r30, r28
    191a:	ec 59       	subi	r30, 0x9C	; 156
    191c:	ff 4f       	sbci	r31, 0xFF	; 255
    191e:	80 83       	st	Z, r24
        switch (BluetoothData)
    1920:	fe 01       	movw	r30, r28
    1922:	ec 59       	subi	r30, 0x9C	; 156
    1924:	ff 4f       	sbci	r31, 0xFF	; 255
    1926:	80 81       	ld	r24, Z
    1928:	28 2f       	mov	r18, r24
    192a:	30 e0       	ldi	r19, 0x00	; 0
    192c:	e4 96       	adiw	r28, 0x34	; 52
    192e:	3f af       	std	Y+63, r19	; 0x3f
    1930:	2e af       	std	Y+62, r18	; 0x3e
    1932:	e4 97       	sbiw	r28, 0x34	; 52
    1934:	e4 96       	adiw	r28, 0x34	; 52
    1936:	8e ad       	ldd	r24, Y+62	; 0x3e
    1938:	9f ad       	ldd	r25, Y+63	; 0x3f
    193a:	e4 97       	sbiw	r28, 0x34	; 52
    193c:	84 34       	cpi	r24, 0x44	; 68
    193e:	91 05       	cpc	r25, r1
    1940:	09 f4       	brne	.+2      	; 0x1944 <main+0xa1c>
    1942:	77 c1       	rjmp	.+750    	; 0x1c32 <main+0xd0a>
    1944:	e4 96       	adiw	r28, 0x34	; 52
    1946:	ee ad       	ldd	r30, Y+62	; 0x3e
    1948:	ff ad       	ldd	r31, Y+63	; 0x3f
    194a:	e4 97       	sbiw	r28, 0x34	; 52
    194c:	e5 34       	cpi	r30, 0x45	; 69
    194e:	f1 05       	cpc	r31, r1
    1950:	c4 f4       	brge	.+48     	; 0x1982 <main+0xa5a>
    1952:	e4 96       	adiw	r28, 0x34	; 52
    1954:	2e ad       	ldd	r18, Y+62	; 0x3e
    1956:	3f ad       	ldd	r19, Y+63	; 0x3f
    1958:	e4 97       	sbiw	r28, 0x34	; 52
    195a:	22 34       	cpi	r18, 0x42	; 66
    195c:	31 05       	cpc	r19, r1
    195e:	09 f4       	brne	.+2      	; 0x1962 <main+0xa3a>
    1960:	3f c0       	rjmp	.+126    	; 0x19e0 <main+0xab8>
    1962:	e4 96       	adiw	r28, 0x34	; 52
    1964:	8e ad       	ldd	r24, Y+62	; 0x3e
    1966:	9f ad       	ldd	r25, Y+63	; 0x3f
    1968:	e4 97       	sbiw	r28, 0x34	; 52
    196a:	83 34       	cpi	r24, 0x43	; 67
    196c:	91 05       	cpc	r25, r1
    196e:	0c f0       	brlt	.+2      	; 0x1972 <main+0xa4a>
    1970:	ca c0       	rjmp	.+404    	; 0x1b06 <main+0xbde>
    1972:	e4 96       	adiw	r28, 0x34	; 52
    1974:	ee ad       	ldd	r30, Y+62	; 0x3e
    1976:	ff ad       	ldd	r31, Y+63	; 0x3f
    1978:	e4 97       	sbiw	r28, 0x34	; 52
    197a:	e1 34       	cpi	r30, 0x41	; 65
    197c:	f1 05       	cpc	r31, r1
    197e:	51 f1       	breq	.+84     	; 0x19d4 <main+0xaac>
    1980:	5a cb       	rjmp	.-2380   	; 0x1036 <main+0x10e>
    1982:	e4 96       	adiw	r28, 0x34	; 52
    1984:	2e ad       	ldd	r18, Y+62	; 0x3e
    1986:	3f ad       	ldd	r19, Y+63	; 0x3f
    1988:	e4 97       	sbiw	r28, 0x34	; 52
    198a:	22 35       	cpi	r18, 0x52	; 82
    198c:	31 05       	cpc	r19, r1
    198e:	09 f4       	brne	.+2      	; 0x1992 <main+0xa6a>
    1990:	56 c1       	rjmp	.+684    	; 0x1c3e <main+0xd16>
    1992:	e4 96       	adiw	r28, 0x34	; 52
    1994:	8e ad       	ldd	r24, Y+62	; 0x3e
    1996:	9f ad       	ldd	r25, Y+63	; 0x3f
    1998:	e4 97       	sbiw	r28, 0x34	; 52
    199a:	83 35       	cpi	r24, 0x53	; 83
    199c:	91 05       	cpc	r25, r1
    199e:	4c f4       	brge	.+18     	; 0x19b2 <main+0xa8a>
    19a0:	e4 96       	adiw	r28, 0x34	; 52
    19a2:	ee ad       	ldd	r30, Y+62	; 0x3e
    19a4:	ff ad       	ldd	r31, Y+63	; 0x3f
    19a6:	e4 97       	sbiw	r28, 0x34	; 52
    19a8:	e9 34       	cpi	r30, 0x49	; 73
    19aa:	f1 05       	cpc	r31, r1
    19ac:	09 f4       	brne	.+2      	; 0x19b0 <main+0xa88>
    19ae:	60 c1       	rjmp	.+704    	; 0x1c70 <main+0xd48>
    19b0:	42 cb       	rjmp	.-2428   	; 0x1036 <main+0x10e>
    19b2:	e4 96       	adiw	r28, 0x34	; 52
    19b4:	2e ad       	ldd	r18, Y+62	; 0x3e
    19b6:	3f ad       	ldd	r19, Y+63	; 0x3f
    19b8:	e4 97       	sbiw	r28, 0x34	; 52
    19ba:	23 35       	cpi	r18, 0x53	; 83
    19bc:	31 05       	cpc	r19, r1
    19be:	09 f4       	brne	.+2      	; 0x19c2 <main+0xa9a>
    19c0:	48 c1       	rjmp	.+656    	; 0x1c52 <main+0xd2a>
    19c2:	e4 96       	adiw	r28, 0x34	; 52
    19c4:	8e ad       	ldd	r24, Y+62	; 0x3e
    19c6:	9f ad       	ldd	r25, Y+63	; 0x3f
    19c8:	e4 97       	sbiw	r28, 0x34	; 52
    19ca:	85 35       	cpi	r24, 0x55	; 85
    19cc:	91 05       	cpc	r25, r1
    19ce:	09 f4       	brne	.+2      	; 0x19d2 <main+0xaaa>
    19d0:	3c c1       	rjmp	.+632    	; 0x1c4a <main+0xd22>
    19d2:	31 cb       	rjmp	.-2462   	; 0x1036 <main+0x10e>
        {
          // A ->  A/C Switch
          case 'A':    ACSwitch(&ACState);                          break;
    19d4:	ce 01       	movw	r24, r28
    19d6:	80 59       	subi	r24, 0x90	; 144
    19d8:	9f 4f       	sbci	r25, 0xFF	; 255
    19da:	0e 94 f8 1d 	call	0x3bf0	; 0x3bf0 <ACSwitch>
    19de:	2b cb       	rjmp	.-2474   	; 0x1036 <main+0x10e>
          // B ->  Add user
          case 'B':
        	Lcd_vidCmd(_LCD_CLEAR);
    19e0:	81 e0       	ldi	r24, 0x01	; 1
    19e2:	0e 94 e6 26 	call	0x4dcc	; 0x4dcc <Lcd_vidCmd>
            Lcd_vidDisplayStr("Use KeyPad");
    19e6:	8b ee       	ldi	r24, 0xEB	; 235
    19e8:	90 e0       	ldi	r25, 0x00	; 0
    19ea:	0e 94 34 27 	call	0x4e68	; 0x4e68 <Lcd_vidDisplayStr>
            Hc05_SendString("Use KeyPad");
    19ee:	8b ee       	ldi	r24, 0xEB	; 235
    19f0:	90 e0       	ldi	r25, 0x00	; 0
    19f2:	0e 94 17 29 	call	0x522e	; 0x522e <Hc05_SendString>
    19f6:	80 e0       	ldi	r24, 0x00	; 0
    19f8:	90 e8       	ldi	r25, 0x80	; 128
    19fa:	ab e3       	ldi	r26, 0x3B	; 59
    19fc:	b5 e4       	ldi	r27, 0x45	; 69
    19fe:	89 8f       	std	Y+25, r24	; 0x19
    1a00:	9a 8f       	std	Y+26, r25	; 0x1a
    1a02:	ab 8f       	std	Y+27, r26	; 0x1b
    1a04:	bc 8f       	std	Y+28, r27	; 0x1c
 */
void
_delay_ms(double __ms)
{
	uint16_t __ticks;
	double __tmp = ((F_CPU) / 4e3) * __ms;
    1a06:	69 8d       	ldd	r22, Y+25	; 0x19
    1a08:	7a 8d       	ldd	r23, Y+26	; 0x1a
    1a0a:	8b 8d       	ldd	r24, Y+27	; 0x1b
    1a0c:	9c 8d       	ldd	r25, Y+28	; 0x1c
    1a0e:	20 e0       	ldi	r18, 0x00	; 0
    1a10:	30 e0       	ldi	r19, 0x00	; 0
    1a12:	4a e7       	ldi	r20, 0x7A	; 122
    1a14:	55 e4       	ldi	r21, 0x45	; 69
    1a16:	0e 94 9c 02 	call	0x538	; 0x538 <__mulsf3>
    1a1a:	dc 01       	movw	r26, r24
    1a1c:	cb 01       	movw	r24, r22
    1a1e:	8d 8b       	std	Y+21, r24	; 0x15
    1a20:	9e 8b       	std	Y+22, r25	; 0x16
    1a22:	af 8b       	std	Y+23, r26	; 0x17
    1a24:	b8 8f       	std	Y+24, r27	; 0x18
	if (__tmp < 1.0)
    1a26:	6d 89       	ldd	r22, Y+21	; 0x15
    1a28:	7e 89       	ldd	r23, Y+22	; 0x16
    1a2a:	8f 89       	ldd	r24, Y+23	; 0x17
    1a2c:	98 8d       	ldd	r25, Y+24	; 0x18
    1a2e:	20 e0       	ldi	r18, 0x00	; 0
    1a30:	30 e0       	ldi	r19, 0x00	; 0
    1a32:	40 e8       	ldi	r20, 0x80	; 128
    1a34:	5f e3       	ldi	r21, 0x3F	; 63
    1a36:	0e 94 a2 04 	call	0x944	; 0x944 <__ltsf2>
    1a3a:	88 23       	and	r24, r24
    1a3c:	2c f4       	brge	.+10     	; 0x1a48 <main+0xb20>
		__ticks = 1;
    1a3e:	81 e0       	ldi	r24, 0x01	; 1
    1a40:	90 e0       	ldi	r25, 0x00	; 0
    1a42:	9c 8b       	std	Y+20, r25	; 0x14
    1a44:	8b 8b       	std	Y+19, r24	; 0x13
    1a46:	3f c0       	rjmp	.+126    	; 0x1ac6 <main+0xb9e>
	else if (__tmp > 65535)
    1a48:	6d 89       	ldd	r22, Y+21	; 0x15
    1a4a:	7e 89       	ldd	r23, Y+22	; 0x16
    1a4c:	8f 89       	ldd	r24, Y+23	; 0x17
    1a4e:	98 8d       	ldd	r25, Y+24	; 0x18
    1a50:	20 e0       	ldi	r18, 0x00	; 0
    1a52:	3f ef       	ldi	r19, 0xFF	; 255
    1a54:	4f e7       	ldi	r20, 0x7F	; 127
    1a56:	57 e4       	ldi	r21, 0x47	; 71
    1a58:	0e 94 42 04 	call	0x884	; 0x884 <__gtsf2>
    1a5c:	18 16       	cp	r1, r24
    1a5e:	4c f5       	brge	.+82     	; 0x1ab2 <main+0xb8a>
	{
		//	__ticks = requested delay in 1/10 ms
		__ticks = (uint16_t) (__ms * 10.0);
    1a60:	69 8d       	ldd	r22, Y+25	; 0x19
    1a62:	7a 8d       	ldd	r23, Y+26	; 0x1a
    1a64:	8b 8d       	ldd	r24, Y+27	; 0x1b
    1a66:	9c 8d       	ldd	r25, Y+28	; 0x1c
    1a68:	20 e0       	ldi	r18, 0x00	; 0
    1a6a:	30 e0       	ldi	r19, 0x00	; 0
    1a6c:	40 e2       	ldi	r20, 0x20	; 32
    1a6e:	51 e4       	ldi	r21, 0x41	; 65
    1a70:	0e 94 9c 02 	call	0x538	; 0x538 <__mulsf3>
    1a74:	dc 01       	movw	r26, r24
    1a76:	cb 01       	movw	r24, r22
    1a78:	bc 01       	movw	r22, r24
    1a7a:	cd 01       	movw	r24, r26
    1a7c:	0e 94 c6 00 	call	0x18c	; 0x18c <__fixunssfsi>
    1a80:	dc 01       	movw	r26, r24
    1a82:	cb 01       	movw	r24, r22
    1a84:	9c 8b       	std	Y+20, r25	; 0x14
    1a86:	8b 8b       	std	Y+19, r24	; 0x13
    1a88:	0f c0       	rjmp	.+30     	; 0x1aa8 <main+0xb80>
    1a8a:	80 e9       	ldi	r24, 0x90	; 144
    1a8c:	91 e0       	ldi	r25, 0x01	; 1
    1a8e:	9a 8b       	std	Y+18, r25	; 0x12
    1a90:	89 8b       	std	Y+17, r24	; 0x11
    1a92:	89 89       	ldd	r24, Y+17	; 0x11
    1a94:	9a 89       	ldd	r25, Y+18	; 0x12
    1a96:	01 97       	sbiw	r24, 0x01	; 1
    1a98:	f1 f7       	brne	.-4      	; 0x1a96 <main+0xb6e>
    1a9a:	9a 8b       	std	Y+18, r25	; 0x12
    1a9c:	89 8b       	std	Y+17, r24	; 0x11
		while(__ticks)
		{
			// wait 1/10 ms
			_delay_loop_2(((F_CPU) / 4e3) / 10);
			__ticks --;
    1a9e:	8b 89       	ldd	r24, Y+19	; 0x13
    1aa0:	9c 89       	ldd	r25, Y+20	; 0x14
    1aa2:	01 97       	sbiw	r24, 0x01	; 1
    1aa4:	9c 8b       	std	Y+20, r25	; 0x14
    1aa6:	8b 8b       	std	Y+19, r24	; 0x13
		__ticks = 1;
	else if (__tmp > 65535)
	{
		//	__ticks = requested delay in 1/10 ms
		__ticks = (uint16_t) (__ms * 10.0);
		while(__ticks)
    1aa8:	8b 89       	ldd	r24, Y+19	; 0x13
    1aaa:	9c 89       	ldd	r25, Y+20	; 0x14
    1aac:	00 97       	sbiw	r24, 0x00	; 0
    1aae:	69 f7       	brne	.-38     	; 0x1a8a <main+0xb62>
    1ab0:	14 c0       	rjmp	.+40     	; 0x1ada <main+0xbb2>
			__ticks --;
		}
		return;
	}
	else
		__ticks = (uint16_t)__tmp;
    1ab2:	6d 89       	ldd	r22, Y+21	; 0x15
    1ab4:	7e 89       	ldd	r23, Y+22	; 0x16
    1ab6:	8f 89       	ldd	r24, Y+23	; 0x17
    1ab8:	98 8d       	ldd	r25, Y+24	; 0x18
    1aba:	0e 94 c6 00 	call	0x18c	; 0x18c <__fixunssfsi>
    1abe:	dc 01       	movw	r26, r24
    1ac0:	cb 01       	movw	r24, r22
    1ac2:	9c 8b       	std	Y+20, r25	; 0x14
    1ac4:	8b 8b       	std	Y+19, r24	; 0x13
    1ac6:	8b 89       	ldd	r24, Y+19	; 0x13
    1ac8:	9c 89       	ldd	r25, Y+20	; 0x14
    1aca:	98 8b       	std	Y+16, r25	; 0x10
    1acc:	8f 87       	std	Y+15, r24	; 0x0f
    1ace:	8f 85       	ldd	r24, Y+15	; 0x0f
    1ad0:	98 89       	ldd	r25, Y+16	; 0x10
    1ad2:	01 97       	sbiw	r24, 0x01	; 1
    1ad4:	f1 f7       	brne	.-4      	; 0x1ad2 <main+0xbaa>
    1ad6:	98 8b       	std	Y+16, r25	; 0x10
    1ad8:	8f 87       	std	Y+15, r24	; 0x0f
            _delay_ms(3000);
            InputID(UserID, UserMode);
    1ada:	ce 01       	movw	r24, r28
    1adc:	88 59       	subi	r24, 0x98	; 152
    1ade:	9f 4f       	sbci	r25, 0xFF	; 255
    1ae0:	62 e0       	ldi	r22, 0x02	; 2
    1ae2:	0e 94 fc 1a 	call	0x35f8	; 0x35f8 <InputID>
            InputPassword(UserPassword, UserMode);
    1ae6:	ce 01       	movw	r24, r28
    1ae8:	85 59       	subi	r24, 0x95	; 149
    1aea:	9f 4f       	sbci	r25, 0xFF	; 255
    1aec:	62 e0       	ldi	r22, 0x02	; 2
    1aee:	0e 94 62 1c 	call	0x38c4	; 0x38c4 <InputPassword>
            AddUser(UserID, UserPassword);                       break;
    1af2:	ce 01       	movw	r24, r28
    1af4:	88 59       	subi	r24, 0x98	; 152
    1af6:	9f 4f       	sbci	r25, 0xFF	; 255
    1af8:	9e 01       	movw	r18, r28
    1afa:	25 59       	subi	r18, 0x95	; 149
    1afc:	3f 4f       	sbci	r19, 0xFF	; 255
    1afe:	b9 01       	movw	r22, r18
    1b00:	0e 94 a8 0e 	call	0x1d50	; 0x1d50 <AddUser>
    1b04:	98 ca       	rjmp	.-2768   	; 0x1036 <main+0x10e>
          // C -> Remove user
          case 'C':
            NumberOfUsers = EEPROM_Read(100);
    1b06:	84 e6       	ldi	r24, 0x64	; 100
    1b08:	90 e0       	ldi	r25, 0x00	; 0
    1b0a:	0e 94 26 2f 	call	0x5e4c	; 0x5e4c <EEPROM_Read>
    1b0e:	fe 01       	movw	r30, r28
    1b10:	e9 59       	subi	r30, 0x99	; 153
    1b12:	ff 4f       	sbci	r31, 0xFF	; 255
    1b14:	80 83       	st	Z, r24
            Lcd_vidCmd(_LCD_CLEAR);
    1b16:	81 e0       	ldi	r24, 0x01	; 1
    1b18:	0e 94 e6 26 	call	0x4dcc	; 0x4dcc <Lcd_vidCmd>
            Lcd_vidDisplayStr("Use Bluetooth");
    1b1c:	82 eb       	ldi	r24, 0xB2	; 178
    1b1e:	90 e0       	ldi	r25, 0x00	; 0
    1b20:	0e 94 34 27 	call	0x4e68	; 0x4e68 <Lcd_vidDisplayStr>
            Hc05_SendString("Use Bluetooth"); _delay_ms(3000);
    1b24:	82 eb       	ldi	r24, 0xB2	; 178
    1b26:	90 e0       	ldi	r25, 0x00	; 0
    1b28:	0e 94 17 29 	call	0x522e	; 0x522e <Hc05_SendString>
    1b2c:	80 e0       	ldi	r24, 0x00	; 0
    1b2e:	90 e8       	ldi	r25, 0x80	; 128
    1b30:	ab e3       	ldi	r26, 0x3B	; 59
    1b32:	b5 e4       	ldi	r27, 0x45	; 69
    1b34:	8b 87       	std	Y+11, r24	; 0x0b
    1b36:	9c 87       	std	Y+12, r25	; 0x0c
    1b38:	ad 87       	std	Y+13, r26	; 0x0d
    1b3a:	be 87       	std	Y+14, r27	; 0x0e
 */
void
_delay_ms(double __ms)
{
	uint16_t __ticks;
	double __tmp = ((F_CPU) / 4e3) * __ms;
    1b3c:	6b 85       	ldd	r22, Y+11	; 0x0b
    1b3e:	7c 85       	ldd	r23, Y+12	; 0x0c
    1b40:	8d 85       	ldd	r24, Y+13	; 0x0d
    1b42:	9e 85       	ldd	r25, Y+14	; 0x0e
    1b44:	20 e0       	ldi	r18, 0x00	; 0
    1b46:	30 e0       	ldi	r19, 0x00	; 0
    1b48:	4a e7       	ldi	r20, 0x7A	; 122
    1b4a:	55 e4       	ldi	r21, 0x45	; 69
    1b4c:	0e 94 9c 02 	call	0x538	; 0x538 <__mulsf3>
    1b50:	dc 01       	movw	r26, r24
    1b52:	cb 01       	movw	r24, r22
    1b54:	8f 83       	std	Y+7, r24	; 0x07
    1b56:	98 87       	std	Y+8, r25	; 0x08
    1b58:	a9 87       	std	Y+9, r26	; 0x09
    1b5a:	ba 87       	std	Y+10, r27	; 0x0a
	if (__tmp < 1.0)
    1b5c:	6f 81       	ldd	r22, Y+7	; 0x07
    1b5e:	78 85       	ldd	r23, Y+8	; 0x08
    1b60:	89 85       	ldd	r24, Y+9	; 0x09
    1b62:	9a 85       	ldd	r25, Y+10	; 0x0a
    1b64:	20 e0       	ldi	r18, 0x00	; 0
    1b66:	30 e0       	ldi	r19, 0x00	; 0
    1b68:	40 e8       	ldi	r20, 0x80	; 128
    1b6a:	5f e3       	ldi	r21, 0x3F	; 63
    1b6c:	0e 94 a2 04 	call	0x944	; 0x944 <__ltsf2>
    1b70:	88 23       	and	r24, r24
    1b72:	2c f4       	brge	.+10     	; 0x1b7e <main+0xc56>
		__ticks = 1;
    1b74:	81 e0       	ldi	r24, 0x01	; 1
    1b76:	90 e0       	ldi	r25, 0x00	; 0
    1b78:	9e 83       	std	Y+6, r25	; 0x06
    1b7a:	8d 83       	std	Y+5, r24	; 0x05
    1b7c:	3f c0       	rjmp	.+126    	; 0x1bfc <main+0xcd4>
	else if (__tmp > 65535)
    1b7e:	6f 81       	ldd	r22, Y+7	; 0x07
    1b80:	78 85       	ldd	r23, Y+8	; 0x08
    1b82:	89 85       	ldd	r24, Y+9	; 0x09
    1b84:	9a 85       	ldd	r25, Y+10	; 0x0a
    1b86:	20 e0       	ldi	r18, 0x00	; 0
    1b88:	3f ef       	ldi	r19, 0xFF	; 255
    1b8a:	4f e7       	ldi	r20, 0x7F	; 127
    1b8c:	57 e4       	ldi	r21, 0x47	; 71
    1b8e:	0e 94 42 04 	call	0x884	; 0x884 <__gtsf2>
    1b92:	18 16       	cp	r1, r24
    1b94:	4c f5       	brge	.+82     	; 0x1be8 <main+0xcc0>
	{
		//	__ticks = requested delay in 1/10 ms
		__ticks = (uint16_t) (__ms * 10.0);
    1b96:	6b 85       	ldd	r22, Y+11	; 0x0b
    1b98:	7c 85       	ldd	r23, Y+12	; 0x0c
    1b9a:	8d 85       	ldd	r24, Y+13	; 0x0d
    1b9c:	9e 85       	ldd	r25, Y+14	; 0x0e
    1b9e:	20 e0       	ldi	r18, 0x00	; 0
    1ba0:	30 e0       	ldi	r19, 0x00	; 0
    1ba2:	40 e2       	ldi	r20, 0x20	; 32
    1ba4:	51 e4       	ldi	r21, 0x41	; 65
    1ba6:	0e 94 9c 02 	call	0x538	; 0x538 <__mulsf3>
    1baa:	dc 01       	movw	r26, r24
    1bac:	cb 01       	movw	r24, r22
    1bae:	bc 01       	movw	r22, r24
    1bb0:	cd 01       	movw	r24, r26
    1bb2:	0e 94 c6 00 	call	0x18c	; 0x18c <__fixunssfsi>
    1bb6:	dc 01       	movw	r26, r24
    1bb8:	cb 01       	movw	r24, r22
    1bba:	9e 83       	std	Y+6, r25	; 0x06
    1bbc:	8d 83       	std	Y+5, r24	; 0x05
    1bbe:	0f c0       	rjmp	.+30     	; 0x1bde <main+0xcb6>
    1bc0:	80 e9       	ldi	r24, 0x90	; 144
    1bc2:	91 e0       	ldi	r25, 0x01	; 1
    1bc4:	9c 83       	std	Y+4, r25	; 0x04
    1bc6:	8b 83       	std	Y+3, r24	; 0x03
    1bc8:	8b 81       	ldd	r24, Y+3	; 0x03
    1bca:	9c 81       	ldd	r25, Y+4	; 0x04
    1bcc:	01 97       	sbiw	r24, 0x01	; 1
    1bce:	f1 f7       	brne	.-4      	; 0x1bcc <main+0xca4>
    1bd0:	9c 83       	std	Y+4, r25	; 0x04
    1bd2:	8b 83       	std	Y+3, r24	; 0x03
		while(__ticks)
		{
			// wait 1/10 ms
			_delay_loop_2(((F_CPU) / 4e3) / 10);
			__ticks --;
    1bd4:	8d 81       	ldd	r24, Y+5	; 0x05
    1bd6:	9e 81       	ldd	r25, Y+6	; 0x06
    1bd8:	01 97       	sbiw	r24, 0x01	; 1
    1bda:	9e 83       	std	Y+6, r25	; 0x06
    1bdc:	8d 83       	std	Y+5, r24	; 0x05
		__ticks = 1;
	else if (__tmp > 65535)
	{
		//	__ticks = requested delay in 1/10 ms
		__ticks = (uint16_t) (__ms * 10.0);
		while(__ticks)
    1bde:	8d 81       	ldd	r24, Y+5	; 0x05
    1be0:	9e 81       	ldd	r25, Y+6	; 0x06
    1be2:	00 97       	sbiw	r24, 0x00	; 0
    1be4:	69 f7       	brne	.-38     	; 0x1bc0 <main+0xc98>
    1be6:	14 c0       	rjmp	.+40     	; 0x1c10 <main+0xce8>
			__ticks --;
		}
		return;
	}
	else
		__ticks = (uint16_t)__tmp;
    1be8:	6f 81       	ldd	r22, Y+7	; 0x07
    1bea:	78 85       	ldd	r23, Y+8	; 0x08
    1bec:	89 85       	ldd	r24, Y+9	; 0x09
    1bee:	9a 85       	ldd	r25, Y+10	; 0x0a
    1bf0:	0e 94 c6 00 	call	0x18c	; 0x18c <__fixunssfsi>
    1bf4:	dc 01       	movw	r26, r24
    1bf6:	cb 01       	movw	r24, r22
    1bf8:	9e 83       	std	Y+6, r25	; 0x06
    1bfa:	8d 83       	std	Y+5, r24	; 0x05
    1bfc:	8d 81       	ldd	r24, Y+5	; 0x05
    1bfe:	9e 81       	ldd	r25, Y+6	; 0x06
    1c00:	9a 83       	std	Y+2, r25	; 0x02
    1c02:	89 83       	std	Y+1, r24	; 0x01
    1c04:	89 81       	ldd	r24, Y+1	; 0x01
    1c06:	9a 81       	ldd	r25, Y+2	; 0x02
    1c08:	01 97       	sbiw	r24, 0x01	; 1
    1c0a:	f1 f7       	brne	.-4      	; 0x1c08 <main+0xce0>
    1c0c:	9a 83       	std	Y+2, r25	; 0x02
    1c0e:	89 83       	std	Y+1, r24	; 0x01
            InputID(&UserID, AdminMode);
    1c10:	ce 01       	movw	r24, r28
    1c12:	88 59       	subi	r24, 0x98	; 152
    1c14:	9f 4f       	sbci	r25, 0xFF	; 255
    1c16:	61 e0       	ldi	r22, 0x01	; 1
    1c18:	0e 94 fc 1a 	call	0x35f8	; 0x35f8 <InputID>
            DeleteUser(NumberOfUsers, UserID);                     break;
    1c1c:	fe 01       	movw	r30, r28
    1c1e:	e9 59       	subi	r30, 0x99	; 153
    1c20:	ff 4f       	sbci	r31, 0xFF	; 255
    1c22:	9e 01       	movw	r18, r28
    1c24:	28 59       	subi	r18, 0x98	; 152
    1c26:	3f 4f       	sbci	r19, 0xFF	; 255
    1c28:	80 81       	ld	r24, Z
    1c2a:	b9 01       	movw	r22, r18
    1c2c:	0e 94 6e 13 	call	0x26dc	; 0x26dc <DeleteUser>
    1c30:	02 ca       	rjmp	.-3068   	; 0x1036 <main+0x10e>
          // D -> Door Switch
          case 'D':  ServoMotor_VidSwitchDoor(&DoorState);                         break;
    1c32:	ce 01       	movw	r24, r28
    1c34:	81 59       	subi	r24, 0x91	; 145
    1c36:	9f 4f       	sbci	r25, 0xFF	; 255
    1c38:	0e 94 77 21 	call	0x42ee	; 0x42ee <ServoMotor_VidSwitchDoor>
    1c3c:	fc c9       	rjmp	.-3080   	; 0x1036 <main+0x10e>
          // R -> Relay Switch
          case 'R':   RelaySwitch(&RelayState);                       break;
    1c3e:	ce 01       	movw	r24, r28
    1c40:	8f 58       	subi	r24, 0x8F	; 143
    1c42:	9f 4f       	sbci	r25, 0xFF	; 255
    1c44:	0e 94 b8 1d 	call	0x3b70	; 0x3b70 <RelaySwitch>
    1c48:	f6 c9       	rjmp	.-3092   	; 0x1036 <main+0x10e>
          // U -> User Mode
          case 'U':     AppState = USER_LOGIN_PAGE;                      break;
    1c4a:	82 e3       	ldi	r24, 0x32	; 50
    1c4c:	80 93 42 04 	sts	0x0442, r24
    1c50:	f2 c9       	rjmp	.-3100   	; 0x1036 <main+0x10e>
          // S -> Resut Mode
          case 'S': Reset(&ACState, &DoorState, &RelayState);  AppState = WELCOME;         break;
    1c52:	ce 01       	movw	r24, r28
    1c54:	80 59       	subi	r24, 0x90	; 144
    1c56:	9f 4f       	sbci	r25, 0xFF	; 255
    1c58:	9e 01       	movw	r18, r28
    1c5a:	21 59       	subi	r18, 0x91	; 145
    1c5c:	3f 4f       	sbci	r19, 0xFF	; 255
    1c5e:	ae 01       	movw	r20, r28
    1c60:	4f 58       	subi	r20, 0x8F	; 143
    1c62:	5f 4f       	sbci	r21, 0xFF	; 255
    1c64:	b9 01       	movw	r22, r18
    1c66:	0e 94 ba 1f 	call	0x3f74	; 0x3f74 <Reset>
    1c6a:	10 92 42 04 	sts	0x0442, r1
    1c6e:	e3 c9       	rjmp	.-3130   	; 0x1036 <main+0x10e>
          //I -> Idle State (OK)
          case 'I':     AppState = IDLE_STATE;                       break;
    1c70:	85 e0       	ldi	r24, 0x05	; 5
    1c72:	80 93 42 04 	sts	0x0442, r24
    1c76:	df c9       	rjmp	.-3138   	; 0x1036 <main+0x10e>
          default:                                        break;
        }
        break;
      case IDLE_STATE:
        BluetoothData = Hc05_Rec();
    1c78:	0e 94 bd 29 	call	0x537a	; 0x537a <Hc05_Rec>
    1c7c:	fe 01       	movw	r30, r28
    1c7e:	ec 59       	subi	r30, 0x9C	; 156
    1c80:	ff 4f       	sbci	r31, 0xFF	; 255
    1c82:	80 83       	st	Z, r24
    1c84:	18 c0       	rjmp	.+48     	; 0x1cb6 <main+0xd8e>
        while (!BluetoothData)
        {
          BluetoothData = Hc05_Rec();
    1c86:	0e 94 bd 29 	call	0x537a	; 0x537a <Hc05_Rec>
    1c8a:	fe 01       	movw	r30, r28
    1c8c:	ec 59       	subi	r30, 0x9C	; 156
    1c8e:	ff 4f       	sbci	r31, 0xFF	; 255
    1c90:	80 83       	st	Z, r24
          CheckAC(ACState);
    1c92:	fe 01       	movw	r30, r28
    1c94:	e0 59       	subi	r30, 0x90	; 144
    1c96:	ff 4f       	sbci	r31, 0xFF	; 255
    1c98:	80 81       	ld	r24, Z
    1c9a:	0e 94 50 1f 	call	0x3ea0	; 0x3ea0 <CheckAC>
          CheckRelay(RelayState);
    1c9e:	fe 01       	movw	r30, r28
    1ca0:	ef 58       	subi	r30, 0x8F	; 143
    1ca2:	ff 4f       	sbci	r31, 0xFF	; 255
    1ca4:	80 81       	ld	r24, Z
    1ca6:	0e 94 95 1f 	call	0x3f2a	; 0x3f2a <CheckRelay>
          ServoMotor_VidCheckDoor(DoorState);
    1caa:	fe 01       	movw	r30, r28
    1cac:	e1 59       	subi	r30, 0x91	; 145
    1cae:	ff 4f       	sbci	r31, 0xFF	; 255
    1cb0:	80 81       	ld	r24, Z
    1cb2:	0e 94 a0 22 	call	0x4540	; 0x4540 <ServoMotor_VidCheckDoor>
          default:                                        break;
        }
        break;
      case IDLE_STATE:
        BluetoothData = Hc05_Rec();
        while (!BluetoothData)
    1cb6:	fe 01       	movw	r30, r28
    1cb8:	ec 59       	subi	r30, 0x9C	; 156
    1cba:	ff 4f       	sbci	r31, 0xFF	; 255
    1cbc:	80 81       	ld	r24, Z
    1cbe:	88 23       	and	r24, r24
    1cc0:	11 f3       	breq	.-60     	; 0x1c86 <main+0xd5e>
          BluetoothData = Hc05_Rec();
          CheckAC(ACState);
          CheckRelay(RelayState);
          ServoMotor_VidCheckDoor(DoorState);
        }
        AppState = WELCOME;
    1cc2:	10 92 42 04 	sts	0x0442, r1
    1cc6:	b7 c9       	rjmp	.-3218   	; 0x1036 <main+0x10e>

        break;

      case USER_SECOND_PAGE :
    	Lcd_vidCmd(_LCD_CLEAR);
    1cc8:	81 e0       	ldi	r24, 0x01	; 1
    1cca:	0e 94 e6 26 	call	0x4dcc	; 0x4dcc <Lcd_vidCmd>
        Lcd_vidDisplayStr(" 1:Switch Relay ");
    1cce:	86 ef       	ldi	r24, 0xF6	; 246
    1cd0:	90 e0       	ldi	r25, 0x00	; 0
    1cd2:	0e 94 34 27 	call	0x4e68	; 0x4e68 <Lcd_vidDisplayStr>
        Lcd_vidRowColumn(1, 0);
    1cd6:	81 e0       	ldi	r24, 0x01	; 1
    1cd8:	60 e0       	ldi	r22, 0x00	; 0
    1cda:	0e 94 0d 27 	call	0x4e1a	; 0x4e1a <Lcd_vidRowColumn>
        Lcd_vidDisplayStr("2:AcSwitch  3:OK");
    1cde:	87 e0       	ldi	r24, 0x07	; 7
    1ce0:	91 e0       	ldi	r25, 0x01	; 1
    1ce2:	0e 94 34 27 	call	0x4e68	; 0x4e68 <Lcd_vidDisplayStr>
        KeyPressed = Keypad_getChar();
    1ce6:	0e 94 0d 28 	call	0x501a	; 0x501a <Keypad_getChar>
    1cea:	fe 01       	movw	r30, r28
    1cec:	ea 59       	subi	r30, 0x9A	; 154
    1cee:	ff 4f       	sbci	r31, 0xFF	; 255
    1cf0:	80 83       	st	Z, r24
    1cf2:	27 c0       	rjmp	.+78     	; 0x1d42 <main+0xe1a>
        while (!KeyPressed)
        {
          KeyPressed = Keypad_getChar();
    1cf4:	0e 94 0d 28 	call	0x501a	; 0x501a <Keypad_getChar>
    1cf8:	fe 01       	movw	r30, r28
    1cfa:	ea 59       	subi	r30, 0x9A	; 154
    1cfc:	ff 4f       	sbci	r31, 0xFF	; 255
    1cfe:	80 83       	st	Z, r24
          if (KeyPressed == '1')
    1d00:	fe 01       	movw	r30, r28
    1d02:	ea 59       	subi	r30, 0x9A	; 154
    1d04:	ff 4f       	sbci	r31, 0xFF	; 255
    1d06:	80 81       	ld	r24, Z
    1d08:	81 33       	cpi	r24, 0x31	; 49
    1d0a:	31 f4       	brne	.+12     	; 0x1d18 <main+0xdf0>
          {
            RelaySwitch(&RelayState);
    1d0c:	ce 01       	movw	r24, r28
    1d0e:	8f 58       	subi	r24, 0x8F	; 143
    1d10:	9f 4f       	sbci	r25, 0xFF	; 255
    1d12:	0e 94 b8 1d 	call	0x3b70	; 0x3b70 <RelaySwitch>
    1d16:	15 c0       	rjmp	.+42     	; 0x1d42 <main+0xe1a>
          }
          else if (KeyPressed == '2')
    1d18:	fe 01       	movw	r30, r28
    1d1a:	ea 59       	subi	r30, 0x9A	; 154
    1d1c:	ff 4f       	sbci	r31, 0xFF	; 255
    1d1e:	80 81       	ld	r24, Z
    1d20:	82 33       	cpi	r24, 0x32	; 50
    1d22:	31 f4       	brne	.+12     	; 0x1d30 <main+0xe08>
          {
            ACSwitch(&ACState);
    1d24:	ce 01       	movw	r24, r28
    1d26:	80 59       	subi	r24, 0x90	; 144
    1d28:	9f 4f       	sbci	r25, 0xFF	; 255
    1d2a:	0e 94 f8 1d 	call	0x3bf0	; 0x3bf0 <ACSwitch>
    1d2e:	09 c0       	rjmp	.+18     	; 0x1d42 <main+0xe1a>
          }
          else if (KeyPressed == '3')
    1d30:	fe 01       	movw	r30, r28
    1d32:	ea 59       	subi	r30, 0x9A	; 154
    1d34:	ff 4f       	sbci	r31, 0xFF	; 255
    1d36:	80 81       	ld	r24, Z
    1d38:	83 33       	cpi	r24, 0x33	; 51
    1d3a:	19 f4       	brne	.+6      	; 0x1d42 <main+0xe1a>
          {
            AppState = IDLE_STATE;
    1d3c:	85 e0       	ldi	r24, 0x05	; 5
    1d3e:	80 93 42 04 	sts	0x0442, r24
    	Lcd_vidCmd(_LCD_CLEAR);
        Lcd_vidDisplayStr(" 1:Switch Relay ");
        Lcd_vidRowColumn(1, 0);
        Lcd_vidDisplayStr("2:AcSwitch  3:OK");
        KeyPressed = Keypad_getChar();
        while (!KeyPressed)
    1d42:	fe 01       	movw	r30, r28
    1d44:	ea 59       	subi	r30, 0x9A	; 154
    1d46:	ff 4f       	sbci	r31, 0xFF	; 255
    1d48:	80 81       	ld	r24, Z
    1d4a:	88 23       	and	r24, r24
    1d4c:	99 f2       	breq	.-90     	; 0x1cf4 <main+0xdcc>
    1d4e:	73 c9       	rjmp	.-3354   	; 0x1036 <main+0x10e>

00001d50 <AddUser>:
  return 0;
}


void AddUser (u8* ID, u8* Password)
{
    1d50:	0f 93       	push	r16
    1d52:	1f 93       	push	r17
    1d54:	df 93       	push	r29
    1d56:	cf 93       	push	r28
    1d58:	cd b7       	in	r28, 0x3d	; 61
    1d5a:	de b7       	in	r29, 0x3e	; 62
    1d5c:	c6 55       	subi	r28, 0x56	; 86
    1d5e:	d0 40       	sbci	r29, 0x00	; 0
    1d60:	0f b6       	in	r0, 0x3f	; 63
    1d62:	f8 94       	cli
    1d64:	de bf       	out	0x3e, r29	; 62
    1d66:	0f be       	out	0x3f, r0	; 63
    1d68:	cd bf       	out	0x3d, r28	; 61
    1d6a:	fe 01       	movw	r30, r28
    1d6c:	ed 5a       	subi	r30, 0xAD	; 173
    1d6e:	ff 4f       	sbci	r31, 0xFF	; 255
    1d70:	91 83       	std	Z+1, r25	; 0x01
    1d72:	80 83       	st	Z, r24
    1d74:	fe 01       	movw	r30, r28
    1d76:	eb 5a       	subi	r30, 0xAB	; 171
    1d78:	ff 4f       	sbci	r31, 0xFF	; 255
    1d7a:	71 83       	std	Z+1, r23	; 0x01
    1d7c:	60 83       	st	Z, r22
  u8 NumberOfUsers = EEPROM_Read(100);
    1d7e:	84 e6       	ldi	r24, 0x64	; 100
    1d80:	90 e0       	ldi	r25, 0x00	; 0
    1d82:	0e 94 26 2f 	call	0x5e4c	; 0x5e4c <EEPROM_Read>
    1d86:	fe 01       	movw	r30, r28
    1d88:	ee 5a       	subi	r30, 0xAE	; 174
    1d8a:	ff 4f       	sbci	r31, 0xFF	; 255
    1d8c:	80 83       	st	Z, r24
  if (NumberOfUsers < 10)
    1d8e:	fe 01       	movw	r30, r28
    1d90:	ee 5a       	subi	r30, 0xAE	; 174
    1d92:	ff 4f       	sbci	r31, 0xFF	; 255
    1d94:	80 81       	ld	r24, Z
    1d96:	8a 30       	cpi	r24, 0x0A	; 10
    1d98:	08 f0       	brcs	.+2      	; 0x1d9c <AddUser+0x4c>
    1d9a:	0f c4       	rjmp	.+2078   	; 0x25ba <AddUser+0x86a>
  {
    u8 Counter = 0, UserLocation  = 0;
    1d9c:	fe 01       	movw	r30, r28
    1d9e:	ef 5a       	subi	r30, 0xAF	; 175
    1da0:	ff 4f       	sbci	r31, 0xFF	; 255
    1da2:	10 82       	st	Z, r1
    1da4:	fe 01       	movw	r30, r28
    1da6:	e0 5b       	subi	r30, 0xB0	; 176
    1da8:	ff 4f       	sbci	r31, 0xFF	; 255
    1daa:	10 82       	st	Z, r1

    if (NumberOfUsers > 0)
    1dac:	fe 01       	movw	r30, r28
    1dae:	ee 5a       	subi	r30, 0xAE	; 174
    1db0:	ff 4f       	sbci	r31, 0xFF	; 255
    1db2:	80 81       	ld	r24, Z
    1db4:	88 23       	and	r24, r24
    1db6:	09 f4       	brne	.+2      	; 0x1dba <AddUser+0x6a>
    1db8:	49 c2       	rjmp	.+1170   	; 0x224c <AddUser+0x4fc>
    {
      u8 WrongEntry = 0;
    1dba:	fe 01       	movw	r30, r28
    1dbc:	e1 5b       	subi	r30, 0xB1	; 177
    1dbe:	ff 4f       	sbci	r31, 0xFF	; 255
    1dc0:	10 82       	st	Z, r1
    1dc2:	16 c1       	rjmp	.+556    	; 0x1ff0 <AddUser+0x2a0>

      for (; Counter < NumberOfUsers; Counter++)
      {

        UserLocation = (Counter * 7);
    1dc4:	fe 01       	movw	r30, r28
    1dc6:	ef 5a       	subi	r30, 0xAF	; 175
    1dc8:	ff 4f       	sbci	r31, 0xFF	; 255
    1dca:	80 81       	ld	r24, Z
    1dcc:	28 2f       	mov	r18, r24
    1dce:	30 e0       	ldi	r19, 0x00	; 0
    1dd0:	c9 01       	movw	r24, r18
    1dd2:	88 0f       	add	r24, r24
    1dd4:	99 1f       	adc	r25, r25
    1dd6:	88 0f       	add	r24, r24
    1dd8:	99 1f       	adc	r25, r25
    1dda:	88 0f       	add	r24, r24
    1ddc:	99 1f       	adc	r25, r25
    1dde:	82 1b       	sub	r24, r18
    1de0:	93 0b       	sbc	r25, r19
    1de2:	fe 01       	movw	r30, r28
    1de4:	e0 5b       	subi	r30, 0xB0	; 176
    1de6:	ff 4f       	sbci	r31, 0xFF	; 255
    1de8:	80 83       	st	Z, r24
        u8 Check = 0, EEPROMData = 0, EEPROMDataLocation = 0, ValidEntries = 3;
    1dea:	fe 01       	movw	r30, r28
    1dec:	e2 5b       	subi	r30, 0xB2	; 178
    1dee:	ff 4f       	sbci	r31, 0xFF	; 255
    1df0:	10 82       	st	Z, r1
    1df2:	fe 01       	movw	r30, r28
    1df4:	e3 5b       	subi	r30, 0xB3	; 179
    1df6:	ff 4f       	sbci	r31, 0xFF	; 255
    1df8:	10 82       	st	Z, r1
    1dfa:	fe 01       	movw	r30, r28
    1dfc:	e4 5b       	subi	r30, 0xB4	; 180
    1dfe:	ff 4f       	sbci	r31, 0xFF	; 255
    1e00:	10 82       	st	Z, r1
    1e02:	fe 01       	movw	r30, r28
    1e04:	e5 5b       	subi	r30, 0xB5	; 181
    1e06:	ff 4f       	sbci	r31, 0xFF	; 255
    1e08:	83 e0       	ldi	r24, 0x03	; 3
    1e0a:	80 83       	st	Z, r24
    1e0c:	41 c0       	rjmp	.+130    	; 0x1e90 <AddUser+0x140>

        for (; Check < 3; Check++)
        {
          EEPROMDataLocation = UserLocation + Check;
    1e0e:	9e 01       	movw	r18, r28
    1e10:	24 5b       	subi	r18, 0xB4	; 180
    1e12:	3f 4f       	sbci	r19, 0xFF	; 255
    1e14:	fe 01       	movw	r30, r28
    1e16:	e0 5b       	subi	r30, 0xB0	; 176
    1e18:	ff 4f       	sbci	r31, 0xFF	; 255
    1e1a:	de 01       	movw	r26, r28
    1e1c:	a2 5b       	subi	r26, 0xB2	; 178
    1e1e:	bf 4f       	sbci	r27, 0xFF	; 255
    1e20:	90 81       	ld	r25, Z
    1e22:	8c 91       	ld	r24, X
    1e24:	89 0f       	add	r24, r25
    1e26:	f9 01       	movw	r30, r18
    1e28:	80 83       	st	Z, r24
          EEPROMData = EEPROM_Read(EEPROMDataLocation);
    1e2a:	fe 01       	movw	r30, r28
    1e2c:	e4 5b       	subi	r30, 0xB4	; 180
    1e2e:	ff 4f       	sbci	r31, 0xFF	; 255
    1e30:	80 81       	ld	r24, Z
    1e32:	88 2f       	mov	r24, r24
    1e34:	90 e0       	ldi	r25, 0x00	; 0
    1e36:	0e 94 26 2f 	call	0x5e4c	; 0x5e4c <EEPROM_Read>
    1e3a:	fe 01       	movw	r30, r28
    1e3c:	e3 5b       	subi	r30, 0xB3	; 179
    1e3e:	ff 4f       	sbci	r31, 0xFF	; 255
    1e40:	80 83       	st	Z, r24
          if (ID[Check] == EEPROMData )
    1e42:	fe 01       	movw	r30, r28
    1e44:	e2 5b       	subi	r30, 0xB2	; 178
    1e46:	ff 4f       	sbci	r31, 0xFF	; 255
    1e48:	80 81       	ld	r24, Z
    1e4a:	28 2f       	mov	r18, r24
    1e4c:	30 e0       	ldi	r19, 0x00	; 0
    1e4e:	fe 01       	movw	r30, r28
    1e50:	ed 5a       	subi	r30, 0xAD	; 173
    1e52:	ff 4f       	sbci	r31, 0xFF	; 255
    1e54:	80 81       	ld	r24, Z
    1e56:	91 81       	ldd	r25, Z+1	; 0x01
    1e58:	fc 01       	movw	r30, r24
    1e5a:	e2 0f       	add	r30, r18
    1e5c:	f3 1f       	adc	r31, r19
    1e5e:	90 81       	ld	r25, Z
    1e60:	fe 01       	movw	r30, r28
    1e62:	e3 5b       	subi	r30, 0xB3	; 179
    1e64:	ff 4f       	sbci	r31, 0xFF	; 255
    1e66:	80 81       	ld	r24, Z
    1e68:	98 17       	cp	r25, r24
    1e6a:	49 f4       	brne	.+18     	; 0x1e7e <AddUser+0x12e>
          {
            ValidEntries--;
    1e6c:	de 01       	movw	r26, r28
    1e6e:	a5 5b       	subi	r26, 0xB5	; 181
    1e70:	bf 4f       	sbci	r27, 0xFF	; 255
    1e72:	fe 01       	movw	r30, r28
    1e74:	e5 5b       	subi	r30, 0xB5	; 181
    1e76:	ff 4f       	sbci	r31, 0xFF	; 255
    1e78:	80 81       	ld	r24, Z
    1e7a:	81 50       	subi	r24, 0x01	; 1
    1e7c:	8c 93       	st	X, r24
      {

        UserLocation = (Counter * 7);
        u8 Check = 0, EEPROMData = 0, EEPROMDataLocation = 0, ValidEntries = 3;

        for (; Check < 3; Check++)
    1e7e:	de 01       	movw	r26, r28
    1e80:	a2 5b       	subi	r26, 0xB2	; 178
    1e82:	bf 4f       	sbci	r27, 0xFF	; 255
    1e84:	fe 01       	movw	r30, r28
    1e86:	e2 5b       	subi	r30, 0xB2	; 178
    1e88:	ff 4f       	sbci	r31, 0xFF	; 255
    1e8a:	80 81       	ld	r24, Z
    1e8c:	8f 5f       	subi	r24, 0xFF	; 255
    1e8e:	8c 93       	st	X, r24
    1e90:	fe 01       	movw	r30, r28
    1e92:	e2 5b       	subi	r30, 0xB2	; 178
    1e94:	ff 4f       	sbci	r31, 0xFF	; 255
    1e96:	80 81       	ld	r24, Z
    1e98:	83 30       	cpi	r24, 0x03	; 3
    1e9a:	08 f4       	brcc	.+2      	; 0x1e9e <AddUser+0x14e>
    1e9c:	b8 cf       	rjmp	.-144    	; 0x1e0e <AddUser+0xbe>
            ValidEntries--;
          }

        }

        if (ValidEntries == 0)
    1e9e:	fe 01       	movw	r30, r28
    1ea0:	e5 5b       	subi	r30, 0xB5	; 181
    1ea2:	ff 4f       	sbci	r31, 0xFF	; 255
    1ea4:	80 81       	ld	r24, Z
    1ea6:	88 23       	and	r24, r24
    1ea8:	09 f0       	breq	.+2      	; 0x1eac <AddUser+0x15c>
    1eaa:	99 c0       	rjmp	.+306    	; 0x1fde <AddUser+0x28e>
        {
          /*print on LCD invalid username*/
          WrongEntry ++;
    1eac:	de 01       	movw	r26, r28
    1eae:	a1 5b       	subi	r26, 0xB1	; 177
    1eb0:	bf 4f       	sbci	r27, 0xFF	; 255
    1eb2:	fe 01       	movw	r30, r28
    1eb4:	e1 5b       	subi	r30, 0xB1	; 177
    1eb6:	ff 4f       	sbci	r31, 0xFF	; 255
    1eb8:	80 81       	ld	r24, Z
    1eba:	8f 5f       	subi	r24, 0xFF	; 255
    1ebc:	8c 93       	st	X, r24
          Lcd_vidCmd(_LCD_CLEAR);
    1ebe:	81 e0       	ldi	r24, 0x01	; 1
    1ec0:	0e 94 e6 26 	call	0x4dcc	; 0x4dcc <Lcd_vidCmd>
          Lcd_vidDisplayStr("Invalid Username");
    1ec4:	88 e1       	ldi	r24, 0x18	; 24
    1ec6:	91 e0       	ldi	r25, 0x01	; 1
    1ec8:	0e 94 34 27 	call	0x4e68	; 0x4e68 <Lcd_vidDisplayStr>
          Hc05_SendString("Invalid Username");
    1ecc:	88 e1       	ldi	r24, 0x18	; 24
    1ece:	91 e0       	ldi	r25, 0x01	; 1
    1ed0:	0e 94 17 29 	call	0x522e	; 0x522e <Hc05_SendString>
    1ed4:	fe 01       	movw	r30, r28
    1ed6:	ed 5b       	subi	r30, 0xBD	; 189
    1ed8:	ff 4f       	sbci	r31, 0xFF	; 255
    1eda:	80 e0       	ldi	r24, 0x00	; 0
    1edc:	90 e0       	ldi	r25, 0x00	; 0
    1ede:	aa ef       	ldi	r26, 0xFA	; 250
    1ee0:	b3 e4       	ldi	r27, 0x43	; 67
    1ee2:	80 83       	st	Z, r24
    1ee4:	91 83       	std	Z+1, r25	; 0x01
    1ee6:	a2 83       	std	Z+2, r26	; 0x02
    1ee8:	b3 83       	std	Z+3, r27	; 0x03
 */
void
_delay_ms(double __ms)
{
	uint16_t __ticks;
	double __tmp = ((F_CPU) / 4e3) * __ms;
    1eea:	8e 01       	movw	r16, r28
    1eec:	01 5c       	subi	r16, 0xC1	; 193
    1eee:	1f 4f       	sbci	r17, 0xFF	; 255
    1ef0:	fe 01       	movw	r30, r28
    1ef2:	ed 5b       	subi	r30, 0xBD	; 189
    1ef4:	ff 4f       	sbci	r31, 0xFF	; 255
    1ef6:	60 81       	ld	r22, Z
    1ef8:	71 81       	ldd	r23, Z+1	; 0x01
    1efa:	82 81       	ldd	r24, Z+2	; 0x02
    1efc:	93 81       	ldd	r25, Z+3	; 0x03
    1efe:	20 e0       	ldi	r18, 0x00	; 0
    1f00:	30 e0       	ldi	r19, 0x00	; 0
    1f02:	4a e7       	ldi	r20, 0x7A	; 122
    1f04:	55 e4       	ldi	r21, 0x45	; 69
    1f06:	0e 94 9c 02 	call	0x538	; 0x538 <__mulsf3>
    1f0a:	dc 01       	movw	r26, r24
    1f0c:	cb 01       	movw	r24, r22
    1f0e:	f8 01       	movw	r30, r16
    1f10:	80 83       	st	Z, r24
    1f12:	91 83       	std	Z+1, r25	; 0x01
    1f14:	a2 83       	std	Z+2, r26	; 0x02
    1f16:	b3 83       	std	Z+3, r27	; 0x03
	if (__tmp < 1.0)
    1f18:	fe 01       	movw	r30, r28
    1f1a:	ff 96       	adiw	r30, 0x3f	; 63
    1f1c:	60 81       	ld	r22, Z
    1f1e:	71 81       	ldd	r23, Z+1	; 0x01
    1f20:	82 81       	ldd	r24, Z+2	; 0x02
    1f22:	93 81       	ldd	r25, Z+3	; 0x03
    1f24:	20 e0       	ldi	r18, 0x00	; 0
    1f26:	30 e0       	ldi	r19, 0x00	; 0
    1f28:	40 e8       	ldi	r20, 0x80	; 128
    1f2a:	5f e3       	ldi	r21, 0x3F	; 63
    1f2c:	0e 94 a2 04 	call	0x944	; 0x944 <__ltsf2>
    1f30:	88 23       	and	r24, r24
    1f32:	2c f4       	brge	.+10     	; 0x1f3e <AddUser+0x1ee>
		__ticks = 1;
    1f34:	81 e0       	ldi	r24, 0x01	; 1
    1f36:	90 e0       	ldi	r25, 0x00	; 0
    1f38:	9e af       	std	Y+62, r25	; 0x3e
    1f3a:	8d af       	std	Y+61, r24	; 0x3d
    1f3c:	46 c0       	rjmp	.+140    	; 0x1fca <AddUser+0x27a>
	else if (__tmp > 65535)
    1f3e:	fe 01       	movw	r30, r28
    1f40:	ff 96       	adiw	r30, 0x3f	; 63
    1f42:	60 81       	ld	r22, Z
    1f44:	71 81       	ldd	r23, Z+1	; 0x01
    1f46:	82 81       	ldd	r24, Z+2	; 0x02
    1f48:	93 81       	ldd	r25, Z+3	; 0x03
    1f4a:	20 e0       	ldi	r18, 0x00	; 0
    1f4c:	3f ef       	ldi	r19, 0xFF	; 255
    1f4e:	4f e7       	ldi	r20, 0x7F	; 127
    1f50:	57 e4       	ldi	r21, 0x47	; 71
    1f52:	0e 94 42 04 	call	0x884	; 0x884 <__gtsf2>
    1f56:	18 16       	cp	r1, r24
    1f58:	64 f5       	brge	.+88     	; 0x1fb2 <AddUser+0x262>
	{
		//	__ticks = requested delay in 1/10 ms
		__ticks = (uint16_t) (__ms * 10.0);
    1f5a:	fe 01       	movw	r30, r28
    1f5c:	ed 5b       	subi	r30, 0xBD	; 189
    1f5e:	ff 4f       	sbci	r31, 0xFF	; 255
    1f60:	60 81       	ld	r22, Z
    1f62:	71 81       	ldd	r23, Z+1	; 0x01
    1f64:	82 81       	ldd	r24, Z+2	; 0x02
    1f66:	93 81       	ldd	r25, Z+3	; 0x03
    1f68:	20 e0       	ldi	r18, 0x00	; 0
    1f6a:	30 e0       	ldi	r19, 0x00	; 0
    1f6c:	40 e2       	ldi	r20, 0x20	; 32
    1f6e:	51 e4       	ldi	r21, 0x41	; 65
    1f70:	0e 94 9c 02 	call	0x538	; 0x538 <__mulsf3>
    1f74:	dc 01       	movw	r26, r24
    1f76:	cb 01       	movw	r24, r22
    1f78:	bc 01       	movw	r22, r24
    1f7a:	cd 01       	movw	r24, r26
    1f7c:	0e 94 c6 00 	call	0x18c	; 0x18c <__fixunssfsi>
    1f80:	dc 01       	movw	r26, r24
    1f82:	cb 01       	movw	r24, r22
    1f84:	9e af       	std	Y+62, r25	; 0x3e
    1f86:	8d af       	std	Y+61, r24	; 0x3d
    1f88:	0f c0       	rjmp	.+30     	; 0x1fa8 <AddUser+0x258>
    1f8a:	80 e9       	ldi	r24, 0x90	; 144
    1f8c:	91 e0       	ldi	r25, 0x01	; 1
    1f8e:	9c af       	std	Y+60, r25	; 0x3c
    1f90:	8b af       	std	Y+59, r24	; 0x3b
    1f92:	8b ad       	ldd	r24, Y+59	; 0x3b
    1f94:	9c ad       	ldd	r25, Y+60	; 0x3c
    1f96:	01 97       	sbiw	r24, 0x01	; 1
    1f98:	f1 f7       	brne	.-4      	; 0x1f96 <AddUser+0x246>
    1f9a:	9c af       	std	Y+60, r25	; 0x3c
    1f9c:	8b af       	std	Y+59, r24	; 0x3b
		while(__ticks)
		{
			// wait 1/10 ms
			_delay_loop_2(((F_CPU) / 4e3) / 10);
			__ticks --;
    1f9e:	8d ad       	ldd	r24, Y+61	; 0x3d
    1fa0:	9e ad       	ldd	r25, Y+62	; 0x3e
    1fa2:	01 97       	sbiw	r24, 0x01	; 1
    1fa4:	9e af       	std	Y+62, r25	; 0x3e
    1fa6:	8d af       	std	Y+61, r24	; 0x3d
		__ticks = 1;
	else if (__tmp > 65535)
	{
		//	__ticks = requested delay in 1/10 ms
		__ticks = (uint16_t) (__ms * 10.0);
		while(__ticks)
    1fa8:	8d ad       	ldd	r24, Y+61	; 0x3d
    1faa:	9e ad       	ldd	r25, Y+62	; 0x3e
    1fac:	00 97       	sbiw	r24, 0x00	; 0
    1fae:	69 f7       	brne	.-38     	; 0x1f8a <AddUser+0x23a>
    1fb0:	16 c0       	rjmp	.+44     	; 0x1fde <AddUser+0x28e>
			__ticks --;
		}
		return;
	}
	else
		__ticks = (uint16_t)__tmp;
    1fb2:	fe 01       	movw	r30, r28
    1fb4:	ff 96       	adiw	r30, 0x3f	; 63
    1fb6:	60 81       	ld	r22, Z
    1fb8:	71 81       	ldd	r23, Z+1	; 0x01
    1fba:	82 81       	ldd	r24, Z+2	; 0x02
    1fbc:	93 81       	ldd	r25, Z+3	; 0x03
    1fbe:	0e 94 c6 00 	call	0x18c	; 0x18c <__fixunssfsi>
    1fc2:	dc 01       	movw	r26, r24
    1fc4:	cb 01       	movw	r24, r22
    1fc6:	9e af       	std	Y+62, r25	; 0x3e
    1fc8:	8d af       	std	Y+61, r24	; 0x3d
    1fca:	8d ad       	ldd	r24, Y+61	; 0x3d
    1fcc:	9e ad       	ldd	r25, Y+62	; 0x3e
    1fce:	9a af       	std	Y+58, r25	; 0x3a
    1fd0:	89 af       	std	Y+57, r24	; 0x39
    1fd2:	89 ad       	ldd	r24, Y+57	; 0x39
    1fd4:	9a ad       	ldd	r25, Y+58	; 0x3a
    1fd6:	01 97       	sbiw	r24, 0x01	; 1
    1fd8:	f1 f7       	brne	.-4      	; 0x1fd6 <AddUser+0x286>
    1fda:	9a af       	std	Y+58, r25	; 0x3a
    1fdc:	89 af       	std	Y+57, r24	; 0x39

    if (NumberOfUsers > 0)
    {
      u8 WrongEntry = 0;

      for (; Counter < NumberOfUsers; Counter++)
    1fde:	de 01       	movw	r26, r28
    1fe0:	af 5a       	subi	r26, 0xAF	; 175
    1fe2:	bf 4f       	sbci	r27, 0xFF	; 255
    1fe4:	fe 01       	movw	r30, r28
    1fe6:	ef 5a       	subi	r30, 0xAF	; 175
    1fe8:	ff 4f       	sbci	r31, 0xFF	; 255
    1fea:	80 81       	ld	r24, Z
    1fec:	8f 5f       	subi	r24, 0xFF	; 255
    1fee:	8c 93       	st	X, r24
    1ff0:	fe 01       	movw	r30, r28
    1ff2:	ef 5a       	subi	r30, 0xAF	; 175
    1ff4:	ff 4f       	sbci	r31, 0xFF	; 255
    1ff6:	de 01       	movw	r26, r28
    1ff8:	ae 5a       	subi	r26, 0xAE	; 174
    1ffa:	bf 4f       	sbci	r27, 0xFF	; 255
    1ffc:	90 81       	ld	r25, Z
    1ffe:	8c 91       	ld	r24, X
    2000:	98 17       	cp	r25, r24
    2002:	08 f4       	brcc	.+2      	; 0x2006 <AddUser+0x2b6>
    2004:	df ce       	rjmp	.-578    	; 0x1dc4 <AddUser+0x74>
          _delay_ms(500);
        }
      }


      if (WrongEntry == 0)
    2006:	fe 01       	movw	r30, r28
    2008:	e1 5b       	subi	r30, 0xB1	; 177
    200a:	ff 4f       	sbci	r31, 0xFF	; 255
    200c:	80 81       	ld	r24, Z
    200e:	88 23       	and	r24, r24
    2010:	09 f0       	breq	.+2      	; 0x2014 <AddUser+0x2c4>
    2012:	58 c3       	rjmp	.+1712   	; 0x26c4 <AddUser+0x974>
      {
        /*print on LCD valid entry*/
    	Lcd_vidCmd(_LCD_CLEAR);
    2014:	81 e0       	ldi	r24, 0x01	; 1
    2016:	0e 94 e6 26 	call	0x4dcc	; 0x4dcc <Lcd_vidCmd>
        Lcd_vidDisplayStr("Valid Entry");
    201a:	89 e2       	ldi	r24, 0x29	; 41
    201c:	91 e0       	ldi	r25, 0x01	; 1
    201e:	0e 94 34 27 	call	0x4e68	; 0x4e68 <Lcd_vidDisplayStr>
        Hc05_SendString("Valid Entry");
    2022:	89 e2       	ldi	r24, 0x29	; 41
    2024:	91 e0       	ldi	r25, 0x01	; 1
    2026:	0e 94 17 29 	call	0x522e	; 0x522e <Hc05_SendString>
    202a:	80 e0       	ldi	r24, 0x00	; 0
    202c:	90 e0       	ldi	r25, 0x00	; 0
    202e:	aa ef       	ldi	r26, 0xFA	; 250
    2030:	b3 e4       	ldi	r27, 0x43	; 67
    2032:	8d ab       	std	Y+53, r24	; 0x35
    2034:	9e ab       	std	Y+54, r25	; 0x36
    2036:	af ab       	std	Y+55, r26	; 0x37
    2038:	b8 af       	std	Y+56, r27	; 0x38
 */
void
_delay_ms(double __ms)
{
	uint16_t __ticks;
	double __tmp = ((F_CPU) / 4e3) * __ms;
    203a:	6d a9       	ldd	r22, Y+53	; 0x35
    203c:	7e a9       	ldd	r23, Y+54	; 0x36
    203e:	8f a9       	ldd	r24, Y+55	; 0x37
    2040:	98 ad       	ldd	r25, Y+56	; 0x38
    2042:	20 e0       	ldi	r18, 0x00	; 0
    2044:	30 e0       	ldi	r19, 0x00	; 0
    2046:	4a e7       	ldi	r20, 0x7A	; 122
    2048:	55 e4       	ldi	r21, 0x45	; 69
    204a:	0e 94 9c 02 	call	0x538	; 0x538 <__mulsf3>
    204e:	dc 01       	movw	r26, r24
    2050:	cb 01       	movw	r24, r22
    2052:	89 ab       	std	Y+49, r24	; 0x31
    2054:	9a ab       	std	Y+50, r25	; 0x32
    2056:	ab ab       	std	Y+51, r26	; 0x33
    2058:	bc ab       	std	Y+52, r27	; 0x34
	if (__tmp < 1.0)
    205a:	69 a9       	ldd	r22, Y+49	; 0x31
    205c:	7a a9       	ldd	r23, Y+50	; 0x32
    205e:	8b a9       	ldd	r24, Y+51	; 0x33
    2060:	9c a9       	ldd	r25, Y+52	; 0x34
    2062:	20 e0       	ldi	r18, 0x00	; 0
    2064:	30 e0       	ldi	r19, 0x00	; 0
    2066:	40 e8       	ldi	r20, 0x80	; 128
    2068:	5f e3       	ldi	r21, 0x3F	; 63
    206a:	0e 94 a2 04 	call	0x944	; 0x944 <__ltsf2>
    206e:	88 23       	and	r24, r24
    2070:	2c f4       	brge	.+10     	; 0x207c <AddUser+0x32c>
		__ticks = 1;
    2072:	81 e0       	ldi	r24, 0x01	; 1
    2074:	90 e0       	ldi	r25, 0x00	; 0
    2076:	98 ab       	std	Y+48, r25	; 0x30
    2078:	8f a7       	std	Y+47, r24	; 0x2f
    207a:	3f c0       	rjmp	.+126    	; 0x20fa <AddUser+0x3aa>
	else if (__tmp > 65535)
    207c:	69 a9       	ldd	r22, Y+49	; 0x31
    207e:	7a a9       	ldd	r23, Y+50	; 0x32
    2080:	8b a9       	ldd	r24, Y+51	; 0x33
    2082:	9c a9       	ldd	r25, Y+52	; 0x34
    2084:	20 e0       	ldi	r18, 0x00	; 0
    2086:	3f ef       	ldi	r19, 0xFF	; 255
    2088:	4f e7       	ldi	r20, 0x7F	; 127
    208a:	57 e4       	ldi	r21, 0x47	; 71
    208c:	0e 94 42 04 	call	0x884	; 0x884 <__gtsf2>
    2090:	18 16       	cp	r1, r24
    2092:	4c f5       	brge	.+82     	; 0x20e6 <AddUser+0x396>
	{
		//	__ticks = requested delay in 1/10 ms
		__ticks = (uint16_t) (__ms * 10.0);
    2094:	6d a9       	ldd	r22, Y+53	; 0x35
    2096:	7e a9       	ldd	r23, Y+54	; 0x36
    2098:	8f a9       	ldd	r24, Y+55	; 0x37
    209a:	98 ad       	ldd	r25, Y+56	; 0x38
    209c:	20 e0       	ldi	r18, 0x00	; 0
    209e:	30 e0       	ldi	r19, 0x00	; 0
    20a0:	40 e2       	ldi	r20, 0x20	; 32
    20a2:	51 e4       	ldi	r21, 0x41	; 65
    20a4:	0e 94 9c 02 	call	0x538	; 0x538 <__mulsf3>
    20a8:	dc 01       	movw	r26, r24
    20aa:	cb 01       	movw	r24, r22
    20ac:	bc 01       	movw	r22, r24
    20ae:	cd 01       	movw	r24, r26
    20b0:	0e 94 c6 00 	call	0x18c	; 0x18c <__fixunssfsi>
    20b4:	dc 01       	movw	r26, r24
    20b6:	cb 01       	movw	r24, r22
    20b8:	98 ab       	std	Y+48, r25	; 0x30
    20ba:	8f a7       	std	Y+47, r24	; 0x2f
    20bc:	0f c0       	rjmp	.+30     	; 0x20dc <AddUser+0x38c>
    20be:	80 e9       	ldi	r24, 0x90	; 144
    20c0:	91 e0       	ldi	r25, 0x01	; 1
    20c2:	9e a7       	std	Y+46, r25	; 0x2e
    20c4:	8d a7       	std	Y+45, r24	; 0x2d
    20c6:	8d a5       	ldd	r24, Y+45	; 0x2d
    20c8:	9e a5       	ldd	r25, Y+46	; 0x2e
    20ca:	01 97       	sbiw	r24, 0x01	; 1
    20cc:	f1 f7       	brne	.-4      	; 0x20ca <AddUser+0x37a>
    20ce:	9e a7       	std	Y+46, r25	; 0x2e
    20d0:	8d a7       	std	Y+45, r24	; 0x2d
		while(__ticks)
		{
			// wait 1/10 ms
			_delay_loop_2(((F_CPU) / 4e3) / 10);
			__ticks --;
    20d2:	8f a5       	ldd	r24, Y+47	; 0x2f
    20d4:	98 a9       	ldd	r25, Y+48	; 0x30
    20d6:	01 97       	sbiw	r24, 0x01	; 1
    20d8:	98 ab       	std	Y+48, r25	; 0x30
    20da:	8f a7       	std	Y+47, r24	; 0x2f
		__ticks = 1;
	else if (__tmp > 65535)
	{
		//	__ticks = requested delay in 1/10 ms
		__ticks = (uint16_t) (__ms * 10.0);
		while(__ticks)
    20dc:	8f a5       	ldd	r24, Y+47	; 0x2f
    20de:	98 a9       	ldd	r25, Y+48	; 0x30
    20e0:	00 97       	sbiw	r24, 0x00	; 0
    20e2:	69 f7       	brne	.-38     	; 0x20be <AddUser+0x36e>
    20e4:	14 c0       	rjmp	.+40     	; 0x210e <AddUser+0x3be>
			__ticks --;
		}
		return;
	}
	else
		__ticks = (uint16_t)__tmp;
    20e6:	69 a9       	ldd	r22, Y+49	; 0x31
    20e8:	7a a9       	ldd	r23, Y+50	; 0x32
    20ea:	8b a9       	ldd	r24, Y+51	; 0x33
    20ec:	9c a9       	ldd	r25, Y+52	; 0x34
    20ee:	0e 94 c6 00 	call	0x18c	; 0x18c <__fixunssfsi>
    20f2:	dc 01       	movw	r26, r24
    20f4:	cb 01       	movw	r24, r22
    20f6:	98 ab       	std	Y+48, r25	; 0x30
    20f8:	8f a7       	std	Y+47, r24	; 0x2f
    20fa:	8f a5       	ldd	r24, Y+47	; 0x2f
    20fc:	98 a9       	ldd	r25, Y+48	; 0x30
    20fe:	9c a7       	std	Y+44, r25	; 0x2c
    2100:	8b a7       	std	Y+43, r24	; 0x2b
    2102:	8b a5       	ldd	r24, Y+43	; 0x2b
    2104:	9c a5       	ldd	r25, Y+44	; 0x2c
    2106:	01 97       	sbiw	r24, 0x01	; 1
    2108:	f1 f7       	brne	.-4      	; 0x2106 <AddUser+0x3b6>
    210a:	9c a7       	std	Y+44, r25	; 0x2c
    210c:	8b a7       	std	Y+43, r24	; 0x2b
        _delay_ms(500);
        u8 Check = 0, EEPROMDataLocation = 0;
    210e:	fe 01       	movw	r30, r28
    2110:	e6 5b       	subi	r30, 0xB6	; 182
    2112:	ff 4f       	sbci	r31, 0xFF	; 255
    2114:	10 82       	st	Z, r1
    2116:	fe 01       	movw	r30, r28
    2118:	e7 5b       	subi	r30, 0xB7	; 183
    211a:	ff 4f       	sbci	r31, 0xFF	; 255
    211c:	10 82       	st	Z, r1
        UserLocation = NumberOfUsers * 7;
    211e:	fe 01       	movw	r30, r28
    2120:	ee 5a       	subi	r30, 0xAE	; 174
    2122:	ff 4f       	sbci	r31, 0xFF	; 255
    2124:	80 81       	ld	r24, Z
    2126:	28 2f       	mov	r18, r24
    2128:	30 e0       	ldi	r19, 0x00	; 0
    212a:	c9 01       	movw	r24, r18
    212c:	88 0f       	add	r24, r24
    212e:	99 1f       	adc	r25, r25
    2130:	88 0f       	add	r24, r24
    2132:	99 1f       	adc	r25, r25
    2134:	88 0f       	add	r24, r24
    2136:	99 1f       	adc	r25, r25
    2138:	82 1b       	sub	r24, r18
    213a:	93 0b       	sbc	r25, r19
    213c:	fe 01       	movw	r30, r28
    213e:	e0 5b       	subi	r30, 0xB0	; 176
    2140:	ff 4f       	sbci	r31, 0xFF	; 255
    2142:	80 83       	st	Z, r24
    2144:	30 c0       	rjmp	.+96     	; 0x21a6 <AddUser+0x456>
        for (; Check < 3; Check++)
        {
          EEPROMDataLocation = UserLocation + Check;
    2146:	9e 01       	movw	r18, r28
    2148:	27 5b       	subi	r18, 0xB7	; 183
    214a:	3f 4f       	sbci	r19, 0xFF	; 255
    214c:	fe 01       	movw	r30, r28
    214e:	e0 5b       	subi	r30, 0xB0	; 176
    2150:	ff 4f       	sbci	r31, 0xFF	; 255
    2152:	de 01       	movw	r26, r28
    2154:	a6 5b       	subi	r26, 0xB6	; 182
    2156:	bf 4f       	sbci	r27, 0xFF	; 255
    2158:	90 81       	ld	r25, Z
    215a:	8c 91       	ld	r24, X
    215c:	89 0f       	add	r24, r25
    215e:	f9 01       	movw	r30, r18
    2160:	80 83       	st	Z, r24
          EEPROM_Write(EEPROMDataLocation, ID[Check]);
    2162:	fe 01       	movw	r30, r28
    2164:	e7 5b       	subi	r30, 0xB7	; 183
    2166:	ff 4f       	sbci	r31, 0xFF	; 255
    2168:	80 81       	ld	r24, Z
    216a:	48 2f       	mov	r20, r24
    216c:	50 e0       	ldi	r21, 0x00	; 0
    216e:	fe 01       	movw	r30, r28
    2170:	e6 5b       	subi	r30, 0xB6	; 182
    2172:	ff 4f       	sbci	r31, 0xFF	; 255
    2174:	80 81       	ld	r24, Z
    2176:	28 2f       	mov	r18, r24
    2178:	30 e0       	ldi	r19, 0x00	; 0
    217a:	fe 01       	movw	r30, r28
    217c:	ed 5a       	subi	r30, 0xAD	; 173
    217e:	ff 4f       	sbci	r31, 0xFF	; 255
    2180:	80 81       	ld	r24, Z
    2182:	91 81       	ldd	r25, Z+1	; 0x01
    2184:	fc 01       	movw	r30, r24
    2186:	e2 0f       	add	r30, r18
    2188:	f3 1f       	adc	r31, r19
    218a:	20 81       	ld	r18, Z
    218c:	ca 01       	movw	r24, r20
    218e:	62 2f       	mov	r22, r18
    2190:	0e 94 f1 2e 	call	0x5de2	; 0x5de2 <EEPROM_Write>
        Lcd_vidDisplayStr("Valid Entry");
        Hc05_SendString("Valid Entry");
        _delay_ms(500);
        u8 Check = 0, EEPROMDataLocation = 0;
        UserLocation = NumberOfUsers * 7;
        for (; Check < 3; Check++)
    2194:	de 01       	movw	r26, r28
    2196:	a6 5b       	subi	r26, 0xB6	; 182
    2198:	bf 4f       	sbci	r27, 0xFF	; 255
    219a:	fe 01       	movw	r30, r28
    219c:	e6 5b       	subi	r30, 0xB6	; 182
    219e:	ff 4f       	sbci	r31, 0xFF	; 255
    21a0:	80 81       	ld	r24, Z
    21a2:	8f 5f       	subi	r24, 0xFF	; 255
    21a4:	8c 93       	st	X, r24
    21a6:	fe 01       	movw	r30, r28
    21a8:	e6 5b       	subi	r30, 0xB6	; 182
    21aa:	ff 4f       	sbci	r31, 0xFF	; 255
    21ac:	80 81       	ld	r24, Z
    21ae:	83 30       	cpi	r24, 0x03	; 3
    21b0:	50 f2       	brcs	.-108    	; 0x2146 <AddUser+0x3f6>
        {
          EEPROMDataLocation = UserLocation + Check;
          EEPROM_Write(EEPROMDataLocation, ID[Check]);
        }

        for (Check = 0; Check < 4; Check++)
    21b2:	fe 01       	movw	r30, r28
    21b4:	e6 5b       	subi	r30, 0xB6	; 182
    21b6:	ff 4f       	sbci	r31, 0xFF	; 255
    21b8:	10 82       	st	Z, r1
    21ba:	30 c0       	rjmp	.+96     	; 0x221c <AddUser+0x4cc>
        {
          EEPROMDataLocation = UserLocation + Check + 3;
    21bc:	fe 01       	movw	r30, r28
    21be:	e0 5b       	subi	r30, 0xB0	; 176
    21c0:	ff 4f       	sbci	r31, 0xFF	; 255
    21c2:	de 01       	movw	r26, r28
    21c4:	a6 5b       	subi	r26, 0xB6	; 182
    21c6:	bf 4f       	sbci	r27, 0xFF	; 255
    21c8:	90 81       	ld	r25, Z
    21ca:	8c 91       	ld	r24, X
    21cc:	89 0f       	add	r24, r25
    21ce:	fe 01       	movw	r30, r28
    21d0:	e7 5b       	subi	r30, 0xB7	; 183
    21d2:	ff 4f       	sbci	r31, 0xFF	; 255
    21d4:	8d 5f       	subi	r24, 0xFD	; 253
    21d6:	80 83       	st	Z, r24
          EEPROM_Write(EEPROMDataLocation, Password[Check]);
    21d8:	fe 01       	movw	r30, r28
    21da:	e7 5b       	subi	r30, 0xB7	; 183
    21dc:	ff 4f       	sbci	r31, 0xFF	; 255
    21de:	80 81       	ld	r24, Z
    21e0:	48 2f       	mov	r20, r24
    21e2:	50 e0       	ldi	r21, 0x00	; 0
    21e4:	fe 01       	movw	r30, r28
    21e6:	e6 5b       	subi	r30, 0xB6	; 182
    21e8:	ff 4f       	sbci	r31, 0xFF	; 255
    21ea:	80 81       	ld	r24, Z
    21ec:	28 2f       	mov	r18, r24
    21ee:	30 e0       	ldi	r19, 0x00	; 0
    21f0:	fe 01       	movw	r30, r28
    21f2:	eb 5a       	subi	r30, 0xAB	; 171
    21f4:	ff 4f       	sbci	r31, 0xFF	; 255
    21f6:	80 81       	ld	r24, Z
    21f8:	91 81       	ldd	r25, Z+1	; 0x01
    21fa:	fc 01       	movw	r30, r24
    21fc:	e2 0f       	add	r30, r18
    21fe:	f3 1f       	adc	r31, r19
    2200:	20 81       	ld	r18, Z
    2202:	ca 01       	movw	r24, r20
    2204:	62 2f       	mov	r22, r18
    2206:	0e 94 f1 2e 	call	0x5de2	; 0x5de2 <EEPROM_Write>
        {
          EEPROMDataLocation = UserLocation + Check;
          EEPROM_Write(EEPROMDataLocation, ID[Check]);
        }

        for (Check = 0; Check < 4; Check++)
    220a:	de 01       	movw	r26, r28
    220c:	a6 5b       	subi	r26, 0xB6	; 182
    220e:	bf 4f       	sbci	r27, 0xFF	; 255
    2210:	fe 01       	movw	r30, r28
    2212:	e6 5b       	subi	r30, 0xB6	; 182
    2214:	ff 4f       	sbci	r31, 0xFF	; 255
    2216:	80 81       	ld	r24, Z
    2218:	8f 5f       	subi	r24, 0xFF	; 255
    221a:	8c 93       	st	X, r24
    221c:	fe 01       	movw	r30, r28
    221e:	e6 5b       	subi	r30, 0xB6	; 182
    2220:	ff 4f       	sbci	r31, 0xFF	; 255
    2222:	80 81       	ld	r24, Z
    2224:	84 30       	cpi	r24, 0x04	; 4
    2226:	50 f2       	brcs	.-108    	; 0x21bc <AddUser+0x46c>
        {
          EEPROMDataLocation = UserLocation + Check + 3;
          EEPROM_Write(EEPROMDataLocation, Password[Check]);
        }
        NumberOfUsers++;
    2228:	de 01       	movw	r26, r28
    222a:	ae 5a       	subi	r26, 0xAE	; 174
    222c:	bf 4f       	sbci	r27, 0xFF	; 255
    222e:	fe 01       	movw	r30, r28
    2230:	ee 5a       	subi	r30, 0xAE	; 174
    2232:	ff 4f       	sbci	r31, 0xFF	; 255
    2234:	80 81       	ld	r24, Z
    2236:	8f 5f       	subi	r24, 0xFF	; 255
    2238:	8c 93       	st	X, r24
        EEPROM_Write(100, NumberOfUsers);
    223a:	fe 01       	movw	r30, r28
    223c:	ee 5a       	subi	r30, 0xAE	; 174
    223e:	ff 4f       	sbci	r31, 0xFF	; 255
    2240:	84 e6       	ldi	r24, 0x64	; 100
    2242:	90 e0       	ldi	r25, 0x00	; 0
    2244:	60 81       	ld	r22, Z
    2246:	0e 94 f1 2e 	call	0x5de2	; 0x5de2 <EEPROM_Write>
    224a:	3c c2       	rjmp	.+1144   	; 0x26c4 <AddUser+0x974>

      }
    }
    else /*There isn't any user yet*/
    {
      Lcd_vidCmd(_LCD_CLEAR);
    224c:	81 e0       	ldi	r24, 0x01	; 1
    224e:	0e 94 e6 26 	call	0x4dcc	; 0x4dcc <Lcd_vidCmd>
      Lcd_vidDisplayStr("Valid Entry");
    2252:	89 e2       	ldi	r24, 0x29	; 41
    2254:	91 e0       	ldi	r25, 0x01	; 1
    2256:	0e 94 34 27 	call	0x4e68	; 0x4e68 <Lcd_vidDisplayStr>
    225a:	80 e0       	ldi	r24, 0x00	; 0
    225c:	90 e0       	ldi	r25, 0x00	; 0
    225e:	aa ef       	ldi	r26, 0xFA	; 250
    2260:	b3 e4       	ldi	r27, 0x43	; 67
    2262:	8f a3       	std	Y+39, r24	; 0x27
    2264:	98 a7       	std	Y+40, r25	; 0x28
    2266:	a9 a7       	std	Y+41, r26	; 0x29
    2268:	ba a7       	std	Y+42, r27	; 0x2a
 */
void
_delay_ms(double __ms)
{
	uint16_t __ticks;
	double __tmp = ((F_CPU) / 4e3) * __ms;
    226a:	6f a1       	ldd	r22, Y+39	; 0x27
    226c:	78 a5       	ldd	r23, Y+40	; 0x28
    226e:	89 a5       	ldd	r24, Y+41	; 0x29
    2270:	9a a5       	ldd	r25, Y+42	; 0x2a
    2272:	20 e0       	ldi	r18, 0x00	; 0
    2274:	30 e0       	ldi	r19, 0x00	; 0
    2276:	4a e7       	ldi	r20, 0x7A	; 122
    2278:	55 e4       	ldi	r21, 0x45	; 69
    227a:	0e 94 9c 02 	call	0x538	; 0x538 <__mulsf3>
    227e:	dc 01       	movw	r26, r24
    2280:	cb 01       	movw	r24, r22
    2282:	8b a3       	std	Y+35, r24	; 0x23
    2284:	9c a3       	std	Y+36, r25	; 0x24
    2286:	ad a3       	std	Y+37, r26	; 0x25
    2288:	be a3       	std	Y+38, r27	; 0x26
	if (__tmp < 1.0)
    228a:	6b a1       	ldd	r22, Y+35	; 0x23
    228c:	7c a1       	ldd	r23, Y+36	; 0x24
    228e:	8d a1       	ldd	r24, Y+37	; 0x25
    2290:	9e a1       	ldd	r25, Y+38	; 0x26
    2292:	20 e0       	ldi	r18, 0x00	; 0
    2294:	30 e0       	ldi	r19, 0x00	; 0
    2296:	40 e8       	ldi	r20, 0x80	; 128
    2298:	5f e3       	ldi	r21, 0x3F	; 63
    229a:	0e 94 a2 04 	call	0x944	; 0x944 <__ltsf2>
    229e:	88 23       	and	r24, r24
    22a0:	2c f4       	brge	.+10     	; 0x22ac <AddUser+0x55c>
		__ticks = 1;
    22a2:	81 e0       	ldi	r24, 0x01	; 1
    22a4:	90 e0       	ldi	r25, 0x00	; 0
    22a6:	9a a3       	std	Y+34, r25	; 0x22
    22a8:	89 a3       	std	Y+33, r24	; 0x21
    22aa:	3f c0       	rjmp	.+126    	; 0x232a <AddUser+0x5da>
	else if (__tmp > 65535)
    22ac:	6b a1       	ldd	r22, Y+35	; 0x23
    22ae:	7c a1       	ldd	r23, Y+36	; 0x24
    22b0:	8d a1       	ldd	r24, Y+37	; 0x25
    22b2:	9e a1       	ldd	r25, Y+38	; 0x26
    22b4:	20 e0       	ldi	r18, 0x00	; 0
    22b6:	3f ef       	ldi	r19, 0xFF	; 255
    22b8:	4f e7       	ldi	r20, 0x7F	; 127
    22ba:	57 e4       	ldi	r21, 0x47	; 71
    22bc:	0e 94 42 04 	call	0x884	; 0x884 <__gtsf2>
    22c0:	18 16       	cp	r1, r24
    22c2:	4c f5       	brge	.+82     	; 0x2316 <AddUser+0x5c6>
	{
		//	__ticks = requested delay in 1/10 ms
		__ticks = (uint16_t) (__ms * 10.0);
    22c4:	6f a1       	ldd	r22, Y+39	; 0x27
    22c6:	78 a5       	ldd	r23, Y+40	; 0x28
    22c8:	89 a5       	ldd	r24, Y+41	; 0x29
    22ca:	9a a5       	ldd	r25, Y+42	; 0x2a
    22cc:	20 e0       	ldi	r18, 0x00	; 0
    22ce:	30 e0       	ldi	r19, 0x00	; 0
    22d0:	40 e2       	ldi	r20, 0x20	; 32
    22d2:	51 e4       	ldi	r21, 0x41	; 65
    22d4:	0e 94 9c 02 	call	0x538	; 0x538 <__mulsf3>
    22d8:	dc 01       	movw	r26, r24
    22da:	cb 01       	movw	r24, r22
    22dc:	bc 01       	movw	r22, r24
    22de:	cd 01       	movw	r24, r26
    22e0:	0e 94 c6 00 	call	0x18c	; 0x18c <__fixunssfsi>
    22e4:	dc 01       	movw	r26, r24
    22e6:	cb 01       	movw	r24, r22
    22e8:	9a a3       	std	Y+34, r25	; 0x22
    22ea:	89 a3       	std	Y+33, r24	; 0x21
    22ec:	0f c0       	rjmp	.+30     	; 0x230c <AddUser+0x5bc>
    22ee:	80 e9       	ldi	r24, 0x90	; 144
    22f0:	91 e0       	ldi	r25, 0x01	; 1
    22f2:	98 a3       	std	Y+32, r25	; 0x20
    22f4:	8f 8f       	std	Y+31, r24	; 0x1f
    22f6:	8f 8d       	ldd	r24, Y+31	; 0x1f
    22f8:	98 a1       	ldd	r25, Y+32	; 0x20
    22fa:	01 97       	sbiw	r24, 0x01	; 1
    22fc:	f1 f7       	brne	.-4      	; 0x22fa <AddUser+0x5aa>
    22fe:	98 a3       	std	Y+32, r25	; 0x20
    2300:	8f 8f       	std	Y+31, r24	; 0x1f
		while(__ticks)
		{
			// wait 1/10 ms
			_delay_loop_2(((F_CPU) / 4e3) / 10);
			__ticks --;
    2302:	89 a1       	ldd	r24, Y+33	; 0x21
    2304:	9a a1       	ldd	r25, Y+34	; 0x22
    2306:	01 97       	sbiw	r24, 0x01	; 1
    2308:	9a a3       	std	Y+34, r25	; 0x22
    230a:	89 a3       	std	Y+33, r24	; 0x21
		__ticks = 1;
	else if (__tmp > 65535)
	{
		//	__ticks = requested delay in 1/10 ms
		__ticks = (uint16_t) (__ms * 10.0);
		while(__ticks)
    230c:	89 a1       	ldd	r24, Y+33	; 0x21
    230e:	9a a1       	ldd	r25, Y+34	; 0x22
    2310:	00 97       	sbiw	r24, 0x00	; 0
    2312:	69 f7       	brne	.-38     	; 0x22ee <AddUser+0x59e>
    2314:	14 c0       	rjmp	.+40     	; 0x233e <AddUser+0x5ee>
			__ticks --;
		}
		return;
	}
	else
		__ticks = (uint16_t)__tmp;
    2316:	6b a1       	ldd	r22, Y+35	; 0x23
    2318:	7c a1       	ldd	r23, Y+36	; 0x24
    231a:	8d a1       	ldd	r24, Y+37	; 0x25
    231c:	9e a1       	ldd	r25, Y+38	; 0x26
    231e:	0e 94 c6 00 	call	0x18c	; 0x18c <__fixunssfsi>
    2322:	dc 01       	movw	r26, r24
    2324:	cb 01       	movw	r24, r22
    2326:	9a a3       	std	Y+34, r25	; 0x22
    2328:	89 a3       	std	Y+33, r24	; 0x21
    232a:	89 a1       	ldd	r24, Y+33	; 0x21
    232c:	9a a1       	ldd	r25, Y+34	; 0x22
    232e:	9e 8f       	std	Y+30, r25	; 0x1e
    2330:	8d 8f       	std	Y+29, r24	; 0x1d
    2332:	8d 8d       	ldd	r24, Y+29	; 0x1d
    2334:	9e 8d       	ldd	r25, Y+30	; 0x1e
    2336:	01 97       	sbiw	r24, 0x01	; 1
    2338:	f1 f7       	brne	.-4      	; 0x2336 <AddUser+0x5e6>
    233a:	9e 8f       	std	Y+30, r25	; 0x1e
    233c:	8d 8f       	std	Y+29, r24	; 0x1d
      _delay_ms(500);
      Hc05_SendString("Valid Entry");
    233e:	89 e2       	ldi	r24, 0x29	; 41
    2340:	91 e0       	ldi	r25, 0x01	; 1
    2342:	0e 94 17 29 	call	0x522e	; 0x522e <Hc05_SendString>
      u8 Check = 0, EEPROMDataLocation = 0;
    2346:	fe 01       	movw	r30, r28
    2348:	e8 5b       	subi	r30, 0xB8	; 184
    234a:	ff 4f       	sbci	r31, 0xFF	; 255
    234c:	10 82       	st	Z, r1
    234e:	fe 01       	movw	r30, r28
    2350:	e9 5b       	subi	r30, 0xB9	; 185
    2352:	ff 4f       	sbci	r31, 0xFF	; 255
    2354:	10 82       	st	Z, r1
      UserLocation = NumberOfUsers * 7;     /*UserLocation = 0*/
    2356:	fe 01       	movw	r30, r28
    2358:	ee 5a       	subi	r30, 0xAE	; 174
    235a:	ff 4f       	sbci	r31, 0xFF	; 255
    235c:	80 81       	ld	r24, Z
    235e:	28 2f       	mov	r18, r24
    2360:	30 e0       	ldi	r19, 0x00	; 0
    2362:	c9 01       	movw	r24, r18
    2364:	88 0f       	add	r24, r24
    2366:	99 1f       	adc	r25, r25
    2368:	88 0f       	add	r24, r24
    236a:	99 1f       	adc	r25, r25
    236c:	88 0f       	add	r24, r24
    236e:	99 1f       	adc	r25, r25
    2370:	82 1b       	sub	r24, r18
    2372:	93 0b       	sbc	r25, r19
    2374:	fe 01       	movw	r30, r28
    2376:	e0 5b       	subi	r30, 0xB0	; 176
    2378:	ff 4f       	sbci	r31, 0xFF	; 255
    237a:	80 83       	st	Z, r24
    237c:	30 c0       	rjmp	.+96     	; 0x23de <AddUser+0x68e>
      for (; Check < 3; Check++)
      {
        EEPROMDataLocation = UserLocation + Check;
    237e:	9e 01       	movw	r18, r28
    2380:	29 5b       	subi	r18, 0xB9	; 185
    2382:	3f 4f       	sbci	r19, 0xFF	; 255
    2384:	fe 01       	movw	r30, r28
    2386:	e0 5b       	subi	r30, 0xB0	; 176
    2388:	ff 4f       	sbci	r31, 0xFF	; 255
    238a:	de 01       	movw	r26, r28
    238c:	a8 5b       	subi	r26, 0xB8	; 184
    238e:	bf 4f       	sbci	r27, 0xFF	; 255
    2390:	90 81       	ld	r25, Z
    2392:	8c 91       	ld	r24, X
    2394:	89 0f       	add	r24, r25
    2396:	f9 01       	movw	r30, r18
    2398:	80 83       	st	Z, r24
        EEPROM_Write(EEPROMDataLocation, ID[Check] );
    239a:	fe 01       	movw	r30, r28
    239c:	e9 5b       	subi	r30, 0xB9	; 185
    239e:	ff 4f       	sbci	r31, 0xFF	; 255
    23a0:	80 81       	ld	r24, Z
    23a2:	48 2f       	mov	r20, r24
    23a4:	50 e0       	ldi	r21, 0x00	; 0
    23a6:	fe 01       	movw	r30, r28
    23a8:	e8 5b       	subi	r30, 0xB8	; 184
    23aa:	ff 4f       	sbci	r31, 0xFF	; 255
    23ac:	80 81       	ld	r24, Z
    23ae:	28 2f       	mov	r18, r24
    23b0:	30 e0       	ldi	r19, 0x00	; 0
    23b2:	fe 01       	movw	r30, r28
    23b4:	ed 5a       	subi	r30, 0xAD	; 173
    23b6:	ff 4f       	sbci	r31, 0xFF	; 255
    23b8:	80 81       	ld	r24, Z
    23ba:	91 81       	ldd	r25, Z+1	; 0x01
    23bc:	fc 01       	movw	r30, r24
    23be:	e2 0f       	add	r30, r18
    23c0:	f3 1f       	adc	r31, r19
    23c2:	20 81       	ld	r18, Z
    23c4:	ca 01       	movw	r24, r20
    23c6:	62 2f       	mov	r22, r18
    23c8:	0e 94 f1 2e 	call	0x5de2	; 0x5de2 <EEPROM_Write>
      Lcd_vidDisplayStr("Valid Entry");
      _delay_ms(500);
      Hc05_SendString("Valid Entry");
      u8 Check = 0, EEPROMDataLocation = 0;
      UserLocation = NumberOfUsers * 7;     /*UserLocation = 0*/
      for (; Check < 3; Check++)
    23cc:	de 01       	movw	r26, r28
    23ce:	a8 5b       	subi	r26, 0xB8	; 184
    23d0:	bf 4f       	sbci	r27, 0xFF	; 255
    23d2:	fe 01       	movw	r30, r28
    23d4:	e8 5b       	subi	r30, 0xB8	; 184
    23d6:	ff 4f       	sbci	r31, 0xFF	; 255
    23d8:	80 81       	ld	r24, Z
    23da:	8f 5f       	subi	r24, 0xFF	; 255
    23dc:	8c 93       	st	X, r24
    23de:	fe 01       	movw	r30, r28
    23e0:	e8 5b       	subi	r30, 0xB8	; 184
    23e2:	ff 4f       	sbci	r31, 0xFF	; 255
    23e4:	80 81       	ld	r24, Z
    23e6:	83 30       	cpi	r24, 0x03	; 3
    23e8:	50 f2       	brcs	.-108    	; 0x237e <AddUser+0x62e>
      {
        EEPROMDataLocation = UserLocation + Check;
        EEPROM_Write(EEPROMDataLocation, ID[Check] );
      }

      for (Check = 0; Check < 4; Check++)
    23ea:	fe 01       	movw	r30, r28
    23ec:	e8 5b       	subi	r30, 0xB8	; 184
    23ee:	ff 4f       	sbci	r31, 0xFF	; 255
    23f0:	10 82       	st	Z, r1
    23f2:	30 c0       	rjmp	.+96     	; 0x2454 <AddUser+0x704>
      {
        EEPROMDataLocation = UserLocation + Check + 3;
    23f4:	fe 01       	movw	r30, r28
    23f6:	e0 5b       	subi	r30, 0xB0	; 176
    23f8:	ff 4f       	sbci	r31, 0xFF	; 255
    23fa:	de 01       	movw	r26, r28
    23fc:	a8 5b       	subi	r26, 0xB8	; 184
    23fe:	bf 4f       	sbci	r27, 0xFF	; 255
    2400:	90 81       	ld	r25, Z
    2402:	8c 91       	ld	r24, X
    2404:	89 0f       	add	r24, r25
    2406:	fe 01       	movw	r30, r28
    2408:	e9 5b       	subi	r30, 0xB9	; 185
    240a:	ff 4f       	sbci	r31, 0xFF	; 255
    240c:	8d 5f       	subi	r24, 0xFD	; 253
    240e:	80 83       	st	Z, r24
        EEPROM_Write(EEPROMDataLocation, Password[Check]);
    2410:	fe 01       	movw	r30, r28
    2412:	e9 5b       	subi	r30, 0xB9	; 185
    2414:	ff 4f       	sbci	r31, 0xFF	; 255
    2416:	80 81       	ld	r24, Z
    2418:	48 2f       	mov	r20, r24
    241a:	50 e0       	ldi	r21, 0x00	; 0
    241c:	fe 01       	movw	r30, r28
    241e:	e8 5b       	subi	r30, 0xB8	; 184
    2420:	ff 4f       	sbci	r31, 0xFF	; 255
    2422:	80 81       	ld	r24, Z
    2424:	28 2f       	mov	r18, r24
    2426:	30 e0       	ldi	r19, 0x00	; 0
    2428:	fe 01       	movw	r30, r28
    242a:	eb 5a       	subi	r30, 0xAB	; 171
    242c:	ff 4f       	sbci	r31, 0xFF	; 255
    242e:	80 81       	ld	r24, Z
    2430:	91 81       	ldd	r25, Z+1	; 0x01
    2432:	fc 01       	movw	r30, r24
    2434:	e2 0f       	add	r30, r18
    2436:	f3 1f       	adc	r31, r19
    2438:	20 81       	ld	r18, Z
    243a:	ca 01       	movw	r24, r20
    243c:	62 2f       	mov	r22, r18
    243e:	0e 94 f1 2e 	call	0x5de2	; 0x5de2 <EEPROM_Write>
      {
        EEPROMDataLocation = UserLocation + Check;
        EEPROM_Write(EEPROMDataLocation, ID[Check] );
      }

      for (Check = 0; Check < 4; Check++)
    2442:	de 01       	movw	r26, r28
    2444:	a8 5b       	subi	r26, 0xB8	; 184
    2446:	bf 4f       	sbci	r27, 0xFF	; 255
    2448:	fe 01       	movw	r30, r28
    244a:	e8 5b       	subi	r30, 0xB8	; 184
    244c:	ff 4f       	sbci	r31, 0xFF	; 255
    244e:	80 81       	ld	r24, Z
    2450:	8f 5f       	subi	r24, 0xFF	; 255
    2452:	8c 93       	st	X, r24
    2454:	fe 01       	movw	r30, r28
    2456:	e8 5b       	subi	r30, 0xB8	; 184
    2458:	ff 4f       	sbci	r31, 0xFF	; 255
    245a:	80 81       	ld	r24, Z
    245c:	84 30       	cpi	r24, 0x04	; 4
    245e:	50 f2       	brcs	.-108    	; 0x23f4 <AddUser+0x6a4>
      {
        EEPROMDataLocation = UserLocation + Check + 3;
        EEPROM_Write(EEPROMDataLocation, Password[Check]);
      }
      NumberOfUsers++;
    2460:	de 01       	movw	r26, r28
    2462:	ae 5a       	subi	r26, 0xAE	; 174
    2464:	bf 4f       	sbci	r27, 0xFF	; 255
    2466:	fe 01       	movw	r30, r28
    2468:	ee 5a       	subi	r30, 0xAE	; 174
    246a:	ff 4f       	sbci	r31, 0xFF	; 255
    246c:	80 81       	ld	r24, Z
    246e:	8f 5f       	subi	r24, 0xFF	; 255
    2470:	8c 93       	st	X, r24
      EEPROM_Write(100, NumberOfUsers );
    2472:	fe 01       	movw	r30, r28
    2474:	ee 5a       	subi	r30, 0xAE	; 174
    2476:	ff 4f       	sbci	r31, 0xFF	; 255
    2478:	84 e6       	ldi	r24, 0x64	; 100
    247a:	90 e0       	ldi	r25, 0x00	; 0
    247c:	60 81       	ld	r22, Z
    247e:	0e 94 f1 2e 	call	0x5de2	; 0x5de2 <EEPROM_Write>

      Lcd_vidCmd(_LCD_CLEAR);
    2482:	81 e0       	ldi	r24, 0x01	; 1
    2484:	0e 94 e6 26 	call	0x4dcc	; 0x4dcc <Lcd_vidCmd>
      Lcd_vidDisplayStr("User Added");
    2488:	85 e3       	ldi	r24, 0x35	; 53
    248a:	91 e0       	ldi	r25, 0x01	; 1
    248c:	0e 94 34 27 	call	0x4e68	; 0x4e68 <Lcd_vidDisplayStr>
      Hc05_SendString("User Added");
    2490:	85 e3       	ldi	r24, 0x35	; 53
    2492:	91 e0       	ldi	r25, 0x01	; 1
    2494:	0e 94 17 29 	call	0x522e	; 0x522e <Hc05_SendString>
      Lcd_vidRowColumn(1, 0);
    2498:	81 e0       	ldi	r24, 0x01	; 1
    249a:	60 e0       	ldi	r22, 0x00	; 0
    249c:	0e 94 0d 27 	call	0x4e1a	; 0x4e1a <Lcd_vidRowColumn>
      Lcd_vidDisplayStr("No of Users ");
    24a0:	80 e4       	ldi	r24, 0x40	; 64
    24a2:	91 e0       	ldi	r25, 0x01	; 1
    24a4:	0e 94 34 27 	call	0x4e68	; 0x4e68 <Lcd_vidDisplayStr>
      Hc05_SendString("No of Users ");
    24a8:	80 e4       	ldi	r24, 0x40	; 64
    24aa:	91 e0       	ldi	r25, 0x01	; 1
    24ac:	0e 94 17 29 	call	0x522e	; 0x522e <Hc05_SendString>
      Lcd_vidDisplayInt(EEPROM_Read(100));
    24b0:	84 e6       	ldi	r24, 0x64	; 100
    24b2:	90 e0       	ldi	r25, 0x00	; 0
    24b4:	0e 94 26 2f 	call	0x5e4c	; 0x5e4c <EEPROM_Read>
    24b8:	88 2f       	mov	r24, r24
    24ba:	90 e0       	ldi	r25, 0x00	; 0
    24bc:	a0 e0       	ldi	r26, 0x00	; 0
    24be:	b0 e0       	ldi	r27, 0x00	; 0
    24c0:	bc 01       	movw	r22, r24
    24c2:	cd 01       	movw	r24, r26
    24c4:	0e 94 50 27 	call	0x4ea0	; 0x4ea0 <Lcd_vidDisplayInt>
      Hc05_Send(EEPROM_Read(100));
    24c8:	84 e6       	ldi	r24, 0x64	; 100
    24ca:	90 e0       	ldi	r25, 0x00	; 0
    24cc:	0e 94 26 2f 	call	0x5e4c	; 0x5e4c <EEPROM_Read>
    24d0:	0e 94 0a 29 	call	0x5214	; 0x5214 <Hc05_Send>
    24d4:	80 e0       	ldi	r24, 0x00	; 0
    24d6:	90 e0       	ldi	r25, 0x00	; 0
    24d8:	aa ef       	ldi	r26, 0xFA	; 250
    24da:	b3 e4       	ldi	r27, 0x43	; 67
    24dc:	89 8f       	std	Y+25, r24	; 0x19
    24de:	9a 8f       	std	Y+26, r25	; 0x1a
    24e0:	ab 8f       	std	Y+27, r26	; 0x1b
    24e2:	bc 8f       	std	Y+28, r27	; 0x1c
 */
void
_delay_ms(double __ms)
{
	uint16_t __ticks;
	double __tmp = ((F_CPU) / 4e3) * __ms;
    24e4:	69 8d       	ldd	r22, Y+25	; 0x19
    24e6:	7a 8d       	ldd	r23, Y+26	; 0x1a
    24e8:	8b 8d       	ldd	r24, Y+27	; 0x1b
    24ea:	9c 8d       	ldd	r25, Y+28	; 0x1c
    24ec:	20 e0       	ldi	r18, 0x00	; 0
    24ee:	30 e0       	ldi	r19, 0x00	; 0
    24f0:	4a e7       	ldi	r20, 0x7A	; 122
    24f2:	55 e4       	ldi	r21, 0x45	; 69
    24f4:	0e 94 9c 02 	call	0x538	; 0x538 <__mulsf3>
    24f8:	dc 01       	movw	r26, r24
    24fa:	cb 01       	movw	r24, r22
    24fc:	8d 8b       	std	Y+21, r24	; 0x15
    24fe:	9e 8b       	std	Y+22, r25	; 0x16
    2500:	af 8b       	std	Y+23, r26	; 0x17
    2502:	b8 8f       	std	Y+24, r27	; 0x18
	if (__tmp < 1.0)
    2504:	6d 89       	ldd	r22, Y+21	; 0x15
    2506:	7e 89       	ldd	r23, Y+22	; 0x16
    2508:	8f 89       	ldd	r24, Y+23	; 0x17
    250a:	98 8d       	ldd	r25, Y+24	; 0x18
    250c:	20 e0       	ldi	r18, 0x00	; 0
    250e:	30 e0       	ldi	r19, 0x00	; 0
    2510:	40 e8       	ldi	r20, 0x80	; 128
    2512:	5f e3       	ldi	r21, 0x3F	; 63
    2514:	0e 94 a2 04 	call	0x944	; 0x944 <__ltsf2>
    2518:	88 23       	and	r24, r24
    251a:	2c f4       	brge	.+10     	; 0x2526 <AddUser+0x7d6>
		__ticks = 1;
    251c:	81 e0       	ldi	r24, 0x01	; 1
    251e:	90 e0       	ldi	r25, 0x00	; 0
    2520:	9c 8b       	std	Y+20, r25	; 0x14
    2522:	8b 8b       	std	Y+19, r24	; 0x13
    2524:	3f c0       	rjmp	.+126    	; 0x25a4 <AddUser+0x854>
	else if (__tmp > 65535)
    2526:	6d 89       	ldd	r22, Y+21	; 0x15
    2528:	7e 89       	ldd	r23, Y+22	; 0x16
    252a:	8f 89       	ldd	r24, Y+23	; 0x17
    252c:	98 8d       	ldd	r25, Y+24	; 0x18
    252e:	20 e0       	ldi	r18, 0x00	; 0
    2530:	3f ef       	ldi	r19, 0xFF	; 255
    2532:	4f e7       	ldi	r20, 0x7F	; 127
    2534:	57 e4       	ldi	r21, 0x47	; 71
    2536:	0e 94 42 04 	call	0x884	; 0x884 <__gtsf2>
    253a:	18 16       	cp	r1, r24
    253c:	4c f5       	brge	.+82     	; 0x2590 <AddUser+0x840>
	{
		//	__ticks = requested delay in 1/10 ms
		__ticks = (uint16_t) (__ms * 10.0);
    253e:	69 8d       	ldd	r22, Y+25	; 0x19
    2540:	7a 8d       	ldd	r23, Y+26	; 0x1a
    2542:	8b 8d       	ldd	r24, Y+27	; 0x1b
    2544:	9c 8d       	ldd	r25, Y+28	; 0x1c
    2546:	20 e0       	ldi	r18, 0x00	; 0
    2548:	30 e0       	ldi	r19, 0x00	; 0
    254a:	40 e2       	ldi	r20, 0x20	; 32
    254c:	51 e4       	ldi	r21, 0x41	; 65
    254e:	0e 94 9c 02 	call	0x538	; 0x538 <__mulsf3>
    2552:	dc 01       	movw	r26, r24
    2554:	cb 01       	movw	r24, r22
    2556:	bc 01       	movw	r22, r24
    2558:	cd 01       	movw	r24, r26
    255a:	0e 94 c6 00 	call	0x18c	; 0x18c <__fixunssfsi>
    255e:	dc 01       	movw	r26, r24
    2560:	cb 01       	movw	r24, r22
    2562:	9c 8b       	std	Y+20, r25	; 0x14
    2564:	8b 8b       	std	Y+19, r24	; 0x13
    2566:	0f c0       	rjmp	.+30     	; 0x2586 <AddUser+0x836>
    2568:	80 e9       	ldi	r24, 0x90	; 144
    256a:	91 e0       	ldi	r25, 0x01	; 1
    256c:	9a 8b       	std	Y+18, r25	; 0x12
    256e:	89 8b       	std	Y+17, r24	; 0x11
    2570:	89 89       	ldd	r24, Y+17	; 0x11
    2572:	9a 89       	ldd	r25, Y+18	; 0x12
    2574:	01 97       	sbiw	r24, 0x01	; 1
    2576:	f1 f7       	brne	.-4      	; 0x2574 <AddUser+0x824>
    2578:	9a 8b       	std	Y+18, r25	; 0x12
    257a:	89 8b       	std	Y+17, r24	; 0x11
		while(__ticks)
		{
			// wait 1/10 ms
			_delay_loop_2(((F_CPU) / 4e3) / 10);
			__ticks --;
    257c:	8b 89       	ldd	r24, Y+19	; 0x13
    257e:	9c 89       	ldd	r25, Y+20	; 0x14
    2580:	01 97       	sbiw	r24, 0x01	; 1
    2582:	9c 8b       	std	Y+20, r25	; 0x14
    2584:	8b 8b       	std	Y+19, r24	; 0x13
		__ticks = 1;
	else if (__tmp > 65535)
	{
		//	__ticks = requested delay in 1/10 ms
		__ticks = (uint16_t) (__ms * 10.0);
		while(__ticks)
    2586:	8b 89       	ldd	r24, Y+19	; 0x13
    2588:	9c 89       	ldd	r25, Y+20	; 0x14
    258a:	00 97       	sbiw	r24, 0x00	; 0
    258c:	69 f7       	brne	.-38     	; 0x2568 <AddUser+0x818>
    258e:	9a c0       	rjmp	.+308    	; 0x26c4 <AddUser+0x974>
			__ticks --;
		}
		return;
	}
	else
		__ticks = (uint16_t)__tmp;
    2590:	6d 89       	ldd	r22, Y+21	; 0x15
    2592:	7e 89       	ldd	r23, Y+22	; 0x16
    2594:	8f 89       	ldd	r24, Y+23	; 0x17
    2596:	98 8d       	ldd	r25, Y+24	; 0x18
    2598:	0e 94 c6 00 	call	0x18c	; 0x18c <__fixunssfsi>
    259c:	dc 01       	movw	r26, r24
    259e:	cb 01       	movw	r24, r22
    25a0:	9c 8b       	std	Y+20, r25	; 0x14
    25a2:	8b 8b       	std	Y+19, r24	; 0x13
    25a4:	8b 89       	ldd	r24, Y+19	; 0x13
    25a6:	9c 89       	ldd	r25, Y+20	; 0x14
    25a8:	98 8b       	std	Y+16, r25	; 0x10
    25aa:	8f 87       	std	Y+15, r24	; 0x0f
    25ac:	8f 85       	ldd	r24, Y+15	; 0x0f
    25ae:	98 89       	ldd	r25, Y+16	; 0x10
    25b0:	01 97       	sbiw	r24, 0x01	; 1
    25b2:	f1 f7       	brne	.-4      	; 0x25b0 <AddUser+0x860>
    25b4:	98 8b       	std	Y+16, r25	; 0x10
    25b6:	8f 87       	std	Y+15, r24	; 0x0f
    25b8:	85 c0       	rjmp	.+266    	; 0x26c4 <AddUser+0x974>
    }
  }
  else /*Number of users is equal or more than 10 users */
  {
    /*Print on LCD you reached max number of users*/
	Lcd_vidCmd(_LCD_CLEAR);
    25ba:	81 e0       	ldi	r24, 0x01	; 1
    25bc:	0e 94 e6 26 	call	0x4dcc	; 0x4dcc <Lcd_vidCmd>
    Lcd_vidDisplayStr("Reached max");
    25c0:	8d e4       	ldi	r24, 0x4D	; 77
    25c2:	91 e0       	ldi	r25, 0x01	; 1
    25c4:	0e 94 34 27 	call	0x4e68	; 0x4e68 <Lcd_vidDisplayStr>
    Lcd_vidRowColumn(1, 0);
    25c8:	81 e0       	ldi	r24, 0x01	; 1
    25ca:	60 e0       	ldi	r22, 0x00	; 0
    25cc:	0e 94 0d 27 	call	0x4e1a	; 0x4e1a <Lcd_vidRowColumn>
    Lcd_vidDisplayStr("Number Of Users");
    25d0:	89 e5       	ldi	r24, 0x59	; 89
    25d2:	91 e0       	ldi	r25, 0x01	; 1
    25d4:	0e 94 34 27 	call	0x4e68	; 0x4e68 <Lcd_vidDisplayStr>
    Hc05_SendString("Reached max number Of Users");
    25d8:	89 e6       	ldi	r24, 0x69	; 105
    25da:	91 e0       	ldi	r25, 0x01	; 1
    25dc:	0e 94 17 29 	call	0x522e	; 0x522e <Hc05_SendString>
    25e0:	80 e0       	ldi	r24, 0x00	; 0
    25e2:	90 e0       	ldi	r25, 0x00	; 0
    25e4:	aa ef       	ldi	r26, 0xFA	; 250
    25e6:	b3 e4       	ldi	r27, 0x43	; 67
    25e8:	8b 87       	std	Y+11, r24	; 0x0b
    25ea:	9c 87       	std	Y+12, r25	; 0x0c
    25ec:	ad 87       	std	Y+13, r26	; 0x0d
    25ee:	be 87       	std	Y+14, r27	; 0x0e
 */
void
_delay_ms(double __ms)
{
	uint16_t __ticks;
	double __tmp = ((F_CPU) / 4e3) * __ms;
    25f0:	6b 85       	ldd	r22, Y+11	; 0x0b
    25f2:	7c 85       	ldd	r23, Y+12	; 0x0c
    25f4:	8d 85       	ldd	r24, Y+13	; 0x0d
    25f6:	9e 85       	ldd	r25, Y+14	; 0x0e
    25f8:	20 e0       	ldi	r18, 0x00	; 0
    25fa:	30 e0       	ldi	r19, 0x00	; 0
    25fc:	4a e7       	ldi	r20, 0x7A	; 122
    25fe:	55 e4       	ldi	r21, 0x45	; 69
    2600:	0e 94 9c 02 	call	0x538	; 0x538 <__mulsf3>
    2604:	dc 01       	movw	r26, r24
    2606:	cb 01       	movw	r24, r22
    2608:	8f 83       	std	Y+7, r24	; 0x07
    260a:	98 87       	std	Y+8, r25	; 0x08
    260c:	a9 87       	std	Y+9, r26	; 0x09
    260e:	ba 87       	std	Y+10, r27	; 0x0a
	if (__tmp < 1.0)
    2610:	6f 81       	ldd	r22, Y+7	; 0x07
    2612:	78 85       	ldd	r23, Y+8	; 0x08
    2614:	89 85       	ldd	r24, Y+9	; 0x09
    2616:	9a 85       	ldd	r25, Y+10	; 0x0a
    2618:	20 e0       	ldi	r18, 0x00	; 0
    261a:	30 e0       	ldi	r19, 0x00	; 0
    261c:	40 e8       	ldi	r20, 0x80	; 128
    261e:	5f e3       	ldi	r21, 0x3F	; 63
    2620:	0e 94 a2 04 	call	0x944	; 0x944 <__ltsf2>
    2624:	88 23       	and	r24, r24
    2626:	2c f4       	brge	.+10     	; 0x2632 <AddUser+0x8e2>
		__ticks = 1;
    2628:	81 e0       	ldi	r24, 0x01	; 1
    262a:	90 e0       	ldi	r25, 0x00	; 0
    262c:	9e 83       	std	Y+6, r25	; 0x06
    262e:	8d 83       	std	Y+5, r24	; 0x05
    2630:	3f c0       	rjmp	.+126    	; 0x26b0 <AddUser+0x960>
	else if (__tmp > 65535)
    2632:	6f 81       	ldd	r22, Y+7	; 0x07
    2634:	78 85       	ldd	r23, Y+8	; 0x08
    2636:	89 85       	ldd	r24, Y+9	; 0x09
    2638:	9a 85       	ldd	r25, Y+10	; 0x0a
    263a:	20 e0       	ldi	r18, 0x00	; 0
    263c:	3f ef       	ldi	r19, 0xFF	; 255
    263e:	4f e7       	ldi	r20, 0x7F	; 127
    2640:	57 e4       	ldi	r21, 0x47	; 71
    2642:	0e 94 42 04 	call	0x884	; 0x884 <__gtsf2>
    2646:	18 16       	cp	r1, r24
    2648:	4c f5       	brge	.+82     	; 0x269c <AddUser+0x94c>
	{
		//	__ticks = requested delay in 1/10 ms
		__ticks = (uint16_t) (__ms * 10.0);
    264a:	6b 85       	ldd	r22, Y+11	; 0x0b
    264c:	7c 85       	ldd	r23, Y+12	; 0x0c
    264e:	8d 85       	ldd	r24, Y+13	; 0x0d
    2650:	9e 85       	ldd	r25, Y+14	; 0x0e
    2652:	20 e0       	ldi	r18, 0x00	; 0
    2654:	30 e0       	ldi	r19, 0x00	; 0
    2656:	40 e2       	ldi	r20, 0x20	; 32
    2658:	51 e4       	ldi	r21, 0x41	; 65
    265a:	0e 94 9c 02 	call	0x538	; 0x538 <__mulsf3>
    265e:	dc 01       	movw	r26, r24
    2660:	cb 01       	movw	r24, r22
    2662:	bc 01       	movw	r22, r24
    2664:	cd 01       	movw	r24, r26
    2666:	0e 94 c6 00 	call	0x18c	; 0x18c <__fixunssfsi>
    266a:	dc 01       	movw	r26, r24
    266c:	cb 01       	movw	r24, r22
    266e:	9e 83       	std	Y+6, r25	; 0x06
    2670:	8d 83       	std	Y+5, r24	; 0x05
    2672:	0f c0       	rjmp	.+30     	; 0x2692 <AddUser+0x942>
    2674:	80 e9       	ldi	r24, 0x90	; 144
    2676:	91 e0       	ldi	r25, 0x01	; 1
    2678:	9c 83       	std	Y+4, r25	; 0x04
    267a:	8b 83       	std	Y+3, r24	; 0x03
    267c:	8b 81       	ldd	r24, Y+3	; 0x03
    267e:	9c 81       	ldd	r25, Y+4	; 0x04
    2680:	01 97       	sbiw	r24, 0x01	; 1
    2682:	f1 f7       	brne	.-4      	; 0x2680 <AddUser+0x930>
    2684:	9c 83       	std	Y+4, r25	; 0x04
    2686:	8b 83       	std	Y+3, r24	; 0x03
		while(__ticks)
		{
			// wait 1/10 ms
			_delay_loop_2(((F_CPU) / 4e3) / 10);
			__ticks --;
    2688:	8d 81       	ldd	r24, Y+5	; 0x05
    268a:	9e 81       	ldd	r25, Y+6	; 0x06
    268c:	01 97       	sbiw	r24, 0x01	; 1
    268e:	9e 83       	std	Y+6, r25	; 0x06
    2690:	8d 83       	std	Y+5, r24	; 0x05
		__ticks = 1;
	else if (__tmp > 65535)
	{
		//	__ticks = requested delay in 1/10 ms
		__ticks = (uint16_t) (__ms * 10.0);
		while(__ticks)
    2692:	8d 81       	ldd	r24, Y+5	; 0x05
    2694:	9e 81       	ldd	r25, Y+6	; 0x06
    2696:	00 97       	sbiw	r24, 0x00	; 0
    2698:	69 f7       	brne	.-38     	; 0x2674 <AddUser+0x924>
    269a:	14 c0       	rjmp	.+40     	; 0x26c4 <AddUser+0x974>
			__ticks --;
		}
		return;
	}
	else
		__ticks = (uint16_t)__tmp;
    269c:	6f 81       	ldd	r22, Y+7	; 0x07
    269e:	78 85       	ldd	r23, Y+8	; 0x08
    26a0:	89 85       	ldd	r24, Y+9	; 0x09
    26a2:	9a 85       	ldd	r25, Y+10	; 0x0a
    26a4:	0e 94 c6 00 	call	0x18c	; 0x18c <__fixunssfsi>
    26a8:	dc 01       	movw	r26, r24
    26aa:	cb 01       	movw	r24, r22
    26ac:	9e 83       	std	Y+6, r25	; 0x06
    26ae:	8d 83       	std	Y+5, r24	; 0x05
    26b0:	8d 81       	ldd	r24, Y+5	; 0x05
    26b2:	9e 81       	ldd	r25, Y+6	; 0x06
    26b4:	9a 83       	std	Y+2, r25	; 0x02
    26b6:	89 83       	std	Y+1, r24	; 0x01
    26b8:	89 81       	ldd	r24, Y+1	; 0x01
    26ba:	9a 81       	ldd	r25, Y+2	; 0x02
    26bc:	01 97       	sbiw	r24, 0x01	; 1
    26be:	f1 f7       	brne	.-4      	; 0x26bc <AddUser+0x96c>
    26c0:	9a 83       	std	Y+2, r25	; 0x02
    26c2:	89 83       	std	Y+1, r24	; 0x01
    _delay_ms(500);
  }
}
    26c4:	ca 5a       	subi	r28, 0xAA	; 170
    26c6:	df 4f       	sbci	r29, 0xFF	; 255
    26c8:	0f b6       	in	r0, 0x3f	; 63
    26ca:	f8 94       	cli
    26cc:	de bf       	out	0x3e, r29	; 62
    26ce:	0f be       	out	0x3f, r0	; 63
    26d0:	cd bf       	out	0x3d, r28	; 61
    26d2:	cf 91       	pop	r28
    26d4:	df 91       	pop	r29
    26d6:	1f 91       	pop	r17
    26d8:	0f 91       	pop	r16
    26da:	08 95       	ret

000026dc <DeleteUser>:

void DeleteUser (u8 NumberOfUsers, u8* ID)
{
    26dc:	df 93       	push	r29
    26de:	cf 93       	push	r28
    26e0:	cd b7       	in	r28, 0x3d	; 61
    26e2:	de b7       	in	r29, 0x3e	; 62
    26e4:	a8 97       	sbiw	r28, 0x28	; 40
    26e6:	0f b6       	in	r0, 0x3f	; 63
    26e8:	f8 94       	cli
    26ea:	de bf       	out	0x3e, r29	; 62
    26ec:	0f be       	out	0x3f, r0	; 63
    26ee:	cd bf       	out	0x3d, r28	; 61
    26f0:	8e a3       	std	Y+38, r24	; 0x26
    26f2:	78 a7       	std	Y+40, r23	; 0x28
    26f4:	6f a3       	std	Y+39, r22	; 0x27
    26f6:	80 e0       	ldi	r24, 0x00	; 0
    26f8:	90 e0       	ldi	r25, 0x00	; 0
    26fa:	a8 ec       	ldi	r26, 0xC8	; 200
    26fc:	b2 e4       	ldi	r27, 0x42	; 66
    26fe:	89 8f       	std	Y+25, r24	; 0x19
    2700:	9a 8f       	std	Y+26, r25	; 0x1a
    2702:	ab 8f       	std	Y+27, r26	; 0x1b
    2704:	bc 8f       	std	Y+28, r27	; 0x1c
 */
void
_delay_ms(double __ms)
{
	uint16_t __ticks;
	double __tmp = ((F_CPU) / 4e3) * __ms;
    2706:	69 8d       	ldd	r22, Y+25	; 0x19
    2708:	7a 8d       	ldd	r23, Y+26	; 0x1a
    270a:	8b 8d       	ldd	r24, Y+27	; 0x1b
    270c:	9c 8d       	ldd	r25, Y+28	; 0x1c
    270e:	20 e0       	ldi	r18, 0x00	; 0
    2710:	30 e0       	ldi	r19, 0x00	; 0
    2712:	4a e7       	ldi	r20, 0x7A	; 122
    2714:	55 e4       	ldi	r21, 0x45	; 69
    2716:	0e 94 9c 02 	call	0x538	; 0x538 <__mulsf3>
    271a:	dc 01       	movw	r26, r24
    271c:	cb 01       	movw	r24, r22
    271e:	8d 8b       	std	Y+21, r24	; 0x15
    2720:	9e 8b       	std	Y+22, r25	; 0x16
    2722:	af 8b       	std	Y+23, r26	; 0x17
    2724:	b8 8f       	std	Y+24, r27	; 0x18
	if (__tmp < 1.0)
    2726:	6d 89       	ldd	r22, Y+21	; 0x15
    2728:	7e 89       	ldd	r23, Y+22	; 0x16
    272a:	8f 89       	ldd	r24, Y+23	; 0x17
    272c:	98 8d       	ldd	r25, Y+24	; 0x18
    272e:	20 e0       	ldi	r18, 0x00	; 0
    2730:	30 e0       	ldi	r19, 0x00	; 0
    2732:	40 e8       	ldi	r20, 0x80	; 128
    2734:	5f e3       	ldi	r21, 0x3F	; 63
    2736:	0e 94 a2 04 	call	0x944	; 0x944 <__ltsf2>
    273a:	88 23       	and	r24, r24
    273c:	2c f4       	brge	.+10     	; 0x2748 <DeleteUser+0x6c>
		__ticks = 1;
    273e:	81 e0       	ldi	r24, 0x01	; 1
    2740:	90 e0       	ldi	r25, 0x00	; 0
    2742:	9c 8b       	std	Y+20, r25	; 0x14
    2744:	8b 8b       	std	Y+19, r24	; 0x13
    2746:	3f c0       	rjmp	.+126    	; 0x27c6 <DeleteUser+0xea>
	else if (__tmp > 65535)
    2748:	6d 89       	ldd	r22, Y+21	; 0x15
    274a:	7e 89       	ldd	r23, Y+22	; 0x16
    274c:	8f 89       	ldd	r24, Y+23	; 0x17
    274e:	98 8d       	ldd	r25, Y+24	; 0x18
    2750:	20 e0       	ldi	r18, 0x00	; 0
    2752:	3f ef       	ldi	r19, 0xFF	; 255
    2754:	4f e7       	ldi	r20, 0x7F	; 127
    2756:	57 e4       	ldi	r21, 0x47	; 71
    2758:	0e 94 42 04 	call	0x884	; 0x884 <__gtsf2>
    275c:	18 16       	cp	r1, r24
    275e:	4c f5       	brge	.+82     	; 0x27b2 <DeleteUser+0xd6>
	{
		//	__ticks = requested delay in 1/10 ms
		__ticks = (uint16_t) (__ms * 10.0);
    2760:	69 8d       	ldd	r22, Y+25	; 0x19
    2762:	7a 8d       	ldd	r23, Y+26	; 0x1a
    2764:	8b 8d       	ldd	r24, Y+27	; 0x1b
    2766:	9c 8d       	ldd	r25, Y+28	; 0x1c
    2768:	20 e0       	ldi	r18, 0x00	; 0
    276a:	30 e0       	ldi	r19, 0x00	; 0
    276c:	40 e2       	ldi	r20, 0x20	; 32
    276e:	51 e4       	ldi	r21, 0x41	; 65
    2770:	0e 94 9c 02 	call	0x538	; 0x538 <__mulsf3>
    2774:	dc 01       	movw	r26, r24
    2776:	cb 01       	movw	r24, r22
    2778:	bc 01       	movw	r22, r24
    277a:	cd 01       	movw	r24, r26
    277c:	0e 94 c6 00 	call	0x18c	; 0x18c <__fixunssfsi>
    2780:	dc 01       	movw	r26, r24
    2782:	cb 01       	movw	r24, r22
    2784:	9c 8b       	std	Y+20, r25	; 0x14
    2786:	8b 8b       	std	Y+19, r24	; 0x13
    2788:	0f c0       	rjmp	.+30     	; 0x27a8 <DeleteUser+0xcc>
    278a:	80 e9       	ldi	r24, 0x90	; 144
    278c:	91 e0       	ldi	r25, 0x01	; 1
    278e:	9a 8b       	std	Y+18, r25	; 0x12
    2790:	89 8b       	std	Y+17, r24	; 0x11
    2792:	89 89       	ldd	r24, Y+17	; 0x11
    2794:	9a 89       	ldd	r25, Y+18	; 0x12
    2796:	01 97       	sbiw	r24, 0x01	; 1
    2798:	f1 f7       	brne	.-4      	; 0x2796 <DeleteUser+0xba>
    279a:	9a 8b       	std	Y+18, r25	; 0x12
    279c:	89 8b       	std	Y+17, r24	; 0x11
		while(__ticks)
		{
			// wait 1/10 ms
			_delay_loop_2(((F_CPU) / 4e3) / 10);
			__ticks --;
    279e:	8b 89       	ldd	r24, Y+19	; 0x13
    27a0:	9c 89       	ldd	r25, Y+20	; 0x14
    27a2:	01 97       	sbiw	r24, 0x01	; 1
    27a4:	9c 8b       	std	Y+20, r25	; 0x14
    27a6:	8b 8b       	std	Y+19, r24	; 0x13
		__ticks = 1;
	else if (__tmp > 65535)
	{
		//	__ticks = requested delay in 1/10 ms
		__ticks = (uint16_t) (__ms * 10.0);
		while(__ticks)
    27a8:	8b 89       	ldd	r24, Y+19	; 0x13
    27aa:	9c 89       	ldd	r25, Y+20	; 0x14
    27ac:	00 97       	sbiw	r24, 0x00	; 0
    27ae:	69 f7       	brne	.-38     	; 0x278a <DeleteUser+0xae>
    27b0:	14 c0       	rjmp	.+40     	; 0x27da <DeleteUser+0xfe>
			__ticks --;
		}
		return;
	}
	else
		__ticks = (uint16_t)__tmp;
    27b2:	6d 89       	ldd	r22, Y+21	; 0x15
    27b4:	7e 89       	ldd	r23, Y+22	; 0x16
    27b6:	8f 89       	ldd	r24, Y+23	; 0x17
    27b8:	98 8d       	ldd	r25, Y+24	; 0x18
    27ba:	0e 94 c6 00 	call	0x18c	; 0x18c <__fixunssfsi>
    27be:	dc 01       	movw	r26, r24
    27c0:	cb 01       	movw	r24, r22
    27c2:	9c 8b       	std	Y+20, r25	; 0x14
    27c4:	8b 8b       	std	Y+19, r24	; 0x13
    27c6:	8b 89       	ldd	r24, Y+19	; 0x13
    27c8:	9c 89       	ldd	r25, Y+20	; 0x14
    27ca:	98 8b       	std	Y+16, r25	; 0x10
    27cc:	8f 87       	std	Y+15, r24	; 0x0f
    27ce:	8f 85       	ldd	r24, Y+15	; 0x0f
    27d0:	98 89       	ldd	r25, Y+16	; 0x10
    27d2:	01 97       	sbiw	r24, 0x01	; 1
    27d4:	f1 f7       	brne	.-4      	; 0x27d2 <DeleteUser+0xf6>
    27d6:	98 8b       	std	Y+16, r25	; 0x10
    27d8:	8f 87       	std	Y+15, r24	; 0x0f
  _delay_ms(100);
  Lcd_vidCmd(_LCD_CLEAR);
    27da:	81 e0       	ldi	r24, 0x01	; 1
    27dc:	0e 94 e6 26 	call	0x4dcc	; 0x4dcc <Lcd_vidCmd>

  if (NumberOfUsers > 0)
    27e0:	8e a1       	ldd	r24, Y+38	; 0x26
    27e2:	88 23       	and	r24, r24
    27e4:	09 f4       	brne	.+2      	; 0x27e8 <DeleteUser+0x10c>
    27e6:	01 c1       	rjmp	.+514    	; 0x29ea <DeleteUser+0x30e>
  {
    u8 Counter = 0, UserLocation  = 0, PerfectMatch = 0;
    27e8:	1d a2       	std	Y+37, r1	; 0x25
    27ea:	1c a2       	std	Y+36, r1	; 0x24
    27ec:	1b a2       	std	Y+35, r1	; 0x23
    27ee:	ec c0       	rjmp	.+472    	; 0x29c8 <DeleteUser+0x2ec>

    for (; Counter < NumberOfUsers; Counter++)
    {
      UserLocation = (Counter * 7);
    27f0:	8d a1       	ldd	r24, Y+37	; 0x25
    27f2:	28 2f       	mov	r18, r24
    27f4:	30 e0       	ldi	r19, 0x00	; 0
    27f6:	c9 01       	movw	r24, r18
    27f8:	88 0f       	add	r24, r24
    27fa:	99 1f       	adc	r25, r25
    27fc:	88 0f       	add	r24, r24
    27fe:	99 1f       	adc	r25, r25
    2800:	88 0f       	add	r24, r24
    2802:	99 1f       	adc	r25, r25
    2804:	82 1b       	sub	r24, r18
    2806:	93 0b       	sbc	r25, r19
    2808:	8c a3       	std	Y+36, r24	; 0x24
      u8 Check = 0, EEPROMData = 0, EEPROMDataLocation = 0, ValidEntries = 0;
    280a:	1a a2       	std	Y+34, r1	; 0x22
    280c:	19 a2       	std	Y+33, r1	; 0x21
    280e:	18 a2       	std	Y+32, r1	; 0x20
    2810:	1f 8e       	std	Y+31, r1	; 0x1f
    2812:	1c c0       	rjmp	.+56     	; 0x284c <DeleteUser+0x170>

      for (; Check < 3; Check++)
      {
        EEPROMDataLocation = UserLocation + Check;
    2814:	9c a1       	ldd	r25, Y+36	; 0x24
    2816:	8a a1       	ldd	r24, Y+34	; 0x22
    2818:	89 0f       	add	r24, r25
    281a:	88 a3       	std	Y+32, r24	; 0x20
        EEPROMData = EEPROM_Read(EEPROMDataLocation);
    281c:	88 a1       	ldd	r24, Y+32	; 0x20
    281e:	88 2f       	mov	r24, r24
    2820:	90 e0       	ldi	r25, 0x00	; 0
    2822:	0e 94 26 2f 	call	0x5e4c	; 0x5e4c <EEPROM_Read>
    2826:	89 a3       	std	Y+33, r24	; 0x21
        if (ID[Check] == EEPROMData )
    2828:	8a a1       	ldd	r24, Y+34	; 0x22
    282a:	28 2f       	mov	r18, r24
    282c:	30 e0       	ldi	r19, 0x00	; 0
    282e:	8f a1       	ldd	r24, Y+39	; 0x27
    2830:	98 a5       	ldd	r25, Y+40	; 0x28
    2832:	fc 01       	movw	r30, r24
    2834:	e2 0f       	add	r30, r18
    2836:	f3 1f       	adc	r31, r19
    2838:	90 81       	ld	r25, Z
    283a:	89 a1       	ldd	r24, Y+33	; 0x21
    283c:	98 17       	cp	r25, r24
    283e:	19 f4       	brne	.+6      	; 0x2846 <DeleteUser+0x16a>
        {
          ValidEntries++;
    2840:	8f 8d       	ldd	r24, Y+31	; 0x1f
    2842:	8f 5f       	subi	r24, 0xFF	; 255
    2844:	8f 8f       	std	Y+31, r24	; 0x1f
    for (; Counter < NumberOfUsers; Counter++)
    {
      UserLocation = (Counter * 7);
      u8 Check = 0, EEPROMData = 0, EEPROMDataLocation = 0, ValidEntries = 0;

      for (; Check < 3; Check++)
    2846:	8a a1       	ldd	r24, Y+34	; 0x22
    2848:	8f 5f       	subi	r24, 0xFF	; 255
    284a:	8a a3       	std	Y+34, r24	; 0x22
    284c:	8a a1       	ldd	r24, Y+34	; 0x22
    284e:	83 30       	cpi	r24, 0x03	; 3
    2850:	08 f3       	brcs	.-62     	; 0x2814 <DeleteUser+0x138>
          ValidEntries++;
        }

      }

      if (ValidEntries == 3)
    2852:	8f 8d       	ldd	r24, Y+31	; 0x1f
    2854:	83 30       	cpi	r24, 0x03	; 3
    2856:	09 f0       	breq	.+2      	; 0x285a <DeleteUser+0x17e>
    2858:	7d c0       	rjmp	.+250    	; 0x2954 <DeleteUser+0x278>
      {
        /*print on LCD valid username*/
        Lcd_vidDisplayStr("Valid Username");
    285a:	85 e8       	ldi	r24, 0x85	; 133
    285c:	91 e0       	ldi	r25, 0x01	; 1
    285e:	0e 94 34 27 	call	0x4e68	; 0x4e68 <Lcd_vidDisplayStr>
        Hc05_SendString("Valid Username");
    2862:	85 e8       	ldi	r24, 0x85	; 133
    2864:	91 e0       	ldi	r25, 0x01	; 1
    2866:	0e 94 17 29 	call	0x522e	; 0x522e <Hc05_SendString>
    286a:	80 e0       	ldi	r24, 0x00	; 0
    286c:	90 e0       	ldi	r25, 0x00	; 0
    286e:	a8 e4       	ldi	r26, 0x48	; 72
    2870:	b3 e4       	ldi	r27, 0x43	; 67
    2872:	8b 87       	std	Y+11, r24	; 0x0b
    2874:	9c 87       	std	Y+12, r25	; 0x0c
    2876:	ad 87       	std	Y+13, r26	; 0x0d
    2878:	be 87       	std	Y+14, r27	; 0x0e
 */
void
_delay_ms(double __ms)
{
	uint16_t __ticks;
	double __tmp = ((F_CPU) / 4e3) * __ms;
    287a:	6b 85       	ldd	r22, Y+11	; 0x0b
    287c:	7c 85       	ldd	r23, Y+12	; 0x0c
    287e:	8d 85       	ldd	r24, Y+13	; 0x0d
    2880:	9e 85       	ldd	r25, Y+14	; 0x0e
    2882:	20 e0       	ldi	r18, 0x00	; 0
    2884:	30 e0       	ldi	r19, 0x00	; 0
    2886:	4a e7       	ldi	r20, 0x7A	; 122
    2888:	55 e4       	ldi	r21, 0x45	; 69
    288a:	0e 94 9c 02 	call	0x538	; 0x538 <__mulsf3>
    288e:	dc 01       	movw	r26, r24
    2890:	cb 01       	movw	r24, r22
    2892:	8f 83       	std	Y+7, r24	; 0x07
    2894:	98 87       	std	Y+8, r25	; 0x08
    2896:	a9 87       	std	Y+9, r26	; 0x09
    2898:	ba 87       	std	Y+10, r27	; 0x0a
	if (__tmp < 1.0)
    289a:	6f 81       	ldd	r22, Y+7	; 0x07
    289c:	78 85       	ldd	r23, Y+8	; 0x08
    289e:	89 85       	ldd	r24, Y+9	; 0x09
    28a0:	9a 85       	ldd	r25, Y+10	; 0x0a
    28a2:	20 e0       	ldi	r18, 0x00	; 0
    28a4:	30 e0       	ldi	r19, 0x00	; 0
    28a6:	40 e8       	ldi	r20, 0x80	; 128
    28a8:	5f e3       	ldi	r21, 0x3F	; 63
    28aa:	0e 94 a2 04 	call	0x944	; 0x944 <__ltsf2>
    28ae:	88 23       	and	r24, r24
    28b0:	2c f4       	brge	.+10     	; 0x28bc <DeleteUser+0x1e0>
		__ticks = 1;
    28b2:	81 e0       	ldi	r24, 0x01	; 1
    28b4:	90 e0       	ldi	r25, 0x00	; 0
    28b6:	9e 83       	std	Y+6, r25	; 0x06
    28b8:	8d 83       	std	Y+5, r24	; 0x05
    28ba:	3f c0       	rjmp	.+126    	; 0x293a <DeleteUser+0x25e>
	else if (__tmp > 65535)
    28bc:	6f 81       	ldd	r22, Y+7	; 0x07
    28be:	78 85       	ldd	r23, Y+8	; 0x08
    28c0:	89 85       	ldd	r24, Y+9	; 0x09
    28c2:	9a 85       	ldd	r25, Y+10	; 0x0a
    28c4:	20 e0       	ldi	r18, 0x00	; 0
    28c6:	3f ef       	ldi	r19, 0xFF	; 255
    28c8:	4f e7       	ldi	r20, 0x7F	; 127
    28ca:	57 e4       	ldi	r21, 0x47	; 71
    28cc:	0e 94 42 04 	call	0x884	; 0x884 <__gtsf2>
    28d0:	18 16       	cp	r1, r24
    28d2:	4c f5       	brge	.+82     	; 0x2926 <DeleteUser+0x24a>
	{
		//	__ticks = requested delay in 1/10 ms
		__ticks = (uint16_t) (__ms * 10.0);
    28d4:	6b 85       	ldd	r22, Y+11	; 0x0b
    28d6:	7c 85       	ldd	r23, Y+12	; 0x0c
    28d8:	8d 85       	ldd	r24, Y+13	; 0x0d
    28da:	9e 85       	ldd	r25, Y+14	; 0x0e
    28dc:	20 e0       	ldi	r18, 0x00	; 0
    28de:	30 e0       	ldi	r19, 0x00	; 0
    28e0:	40 e2       	ldi	r20, 0x20	; 32
    28e2:	51 e4       	ldi	r21, 0x41	; 65
    28e4:	0e 94 9c 02 	call	0x538	; 0x538 <__mulsf3>
    28e8:	dc 01       	movw	r26, r24
    28ea:	cb 01       	movw	r24, r22
    28ec:	bc 01       	movw	r22, r24
    28ee:	cd 01       	movw	r24, r26
    28f0:	0e 94 c6 00 	call	0x18c	; 0x18c <__fixunssfsi>
    28f4:	dc 01       	movw	r26, r24
    28f6:	cb 01       	movw	r24, r22
    28f8:	9e 83       	std	Y+6, r25	; 0x06
    28fa:	8d 83       	std	Y+5, r24	; 0x05
    28fc:	0f c0       	rjmp	.+30     	; 0x291c <DeleteUser+0x240>
    28fe:	80 e9       	ldi	r24, 0x90	; 144
    2900:	91 e0       	ldi	r25, 0x01	; 1
    2902:	9c 83       	std	Y+4, r25	; 0x04
    2904:	8b 83       	std	Y+3, r24	; 0x03
    2906:	8b 81       	ldd	r24, Y+3	; 0x03
    2908:	9c 81       	ldd	r25, Y+4	; 0x04
    290a:	01 97       	sbiw	r24, 0x01	; 1
    290c:	f1 f7       	brne	.-4      	; 0x290a <DeleteUser+0x22e>
    290e:	9c 83       	std	Y+4, r25	; 0x04
    2910:	8b 83       	std	Y+3, r24	; 0x03
		while(__ticks)
		{
			// wait 1/10 ms
			_delay_loop_2(((F_CPU) / 4e3) / 10);
			__ticks --;
    2912:	8d 81       	ldd	r24, Y+5	; 0x05
    2914:	9e 81       	ldd	r25, Y+6	; 0x06
    2916:	01 97       	sbiw	r24, 0x01	; 1
    2918:	9e 83       	std	Y+6, r25	; 0x06
    291a:	8d 83       	std	Y+5, r24	; 0x05
		__ticks = 1;
	else if (__tmp > 65535)
	{
		//	__ticks = requested delay in 1/10 ms
		__ticks = (uint16_t) (__ms * 10.0);
		while(__ticks)
    291c:	8d 81       	ldd	r24, Y+5	; 0x05
    291e:	9e 81       	ldd	r25, Y+6	; 0x06
    2920:	00 97       	sbiw	r24, 0x00	; 0
    2922:	69 f7       	brne	.-38     	; 0x28fe <DeleteUser+0x222>
    2924:	14 c0       	rjmp	.+40     	; 0x294e <DeleteUser+0x272>
			__ticks --;
		}
		return;
	}
	else
		__ticks = (uint16_t)__tmp;
    2926:	6f 81       	ldd	r22, Y+7	; 0x07
    2928:	78 85       	ldd	r23, Y+8	; 0x08
    292a:	89 85       	ldd	r24, Y+9	; 0x09
    292c:	9a 85       	ldd	r25, Y+10	; 0x0a
    292e:	0e 94 c6 00 	call	0x18c	; 0x18c <__fixunssfsi>
    2932:	dc 01       	movw	r26, r24
    2934:	cb 01       	movw	r24, r22
    2936:	9e 83       	std	Y+6, r25	; 0x06
    2938:	8d 83       	std	Y+5, r24	; 0x05
    293a:	8d 81       	ldd	r24, Y+5	; 0x05
    293c:	9e 81       	ldd	r25, Y+6	; 0x06
    293e:	9a 83       	std	Y+2, r25	; 0x02
    2940:	89 83       	std	Y+1, r24	; 0x01
    2942:	89 81       	ldd	r24, Y+1	; 0x01
    2944:	9a 81       	ldd	r25, Y+2	; 0x02
    2946:	01 97       	sbiw	r24, 0x01	; 1
    2948:	f1 f7       	brne	.-4      	; 0x2946 <DeleteUser+0x26a>
    294a:	9a 83       	std	Y+2, r25	; 0x02
    294c:	89 83       	std	Y+1, r24	; 0x01
        _delay_ms(200);
        PerfectMatch ++;
    294e:	8b a1       	ldd	r24, Y+35	; 0x23
    2950:	8f 5f       	subi	r24, 0xFF	; 255
    2952:	8b a3       	std	Y+35, r24	; 0x23

      }
      if (PerfectMatch == 1)
    2954:	8b a1       	ldd	r24, Y+35	; 0x23
    2956:	81 30       	cpi	r24, 0x01	; 1
    2958:	a1 f5       	brne	.+104    	; 0x29c2 <DeleteUser+0x2e6>
      {
        u8 Check = 0, EEPROMDataLocation = 0;
    295a:	1e 8e       	std	Y+30, r1	; 0x1e
    295c:	1d 8e       	std	Y+29, r1	; 0x1d
    295e:	14 c0       	rjmp	.+40     	; 0x2988 <DeleteUser+0x2ac>
        for (; Check < 3; Check++)
        {
          EEPROMDataLocation = UserLocation + Check;
    2960:	9c a1       	ldd	r25, Y+36	; 0x24
    2962:	8e 8d       	ldd	r24, Y+30	; 0x1e
    2964:	89 0f       	add	r24, r25
    2966:	8d 8f       	std	Y+29, r24	; 0x1d
          EEPROMData = EEPROM_Read( EEPROMDataLocation + 7);
    2968:	8d 8d       	ldd	r24, Y+29	; 0x1d
    296a:	88 2f       	mov	r24, r24
    296c:	90 e0       	ldi	r25, 0x00	; 0
    296e:	07 96       	adiw	r24, 0x07	; 7
    2970:	0e 94 26 2f 	call	0x5e4c	; 0x5e4c <EEPROM_Read>
    2974:	89 a3       	std	Y+33, r24	; 0x21
          EEPROM_Write(EEPROMDataLocation, EEPROMData );
    2976:	8d 8d       	ldd	r24, Y+29	; 0x1d
    2978:	88 2f       	mov	r24, r24
    297a:	90 e0       	ldi	r25, 0x00	; 0
    297c:	69 a1       	ldd	r22, Y+33	; 0x21
    297e:	0e 94 f1 2e 	call	0x5de2	; 0x5de2 <EEPROM_Write>

      }
      if (PerfectMatch == 1)
      {
        u8 Check = 0, EEPROMDataLocation = 0;
        for (; Check < 3; Check++)
    2982:	8e 8d       	ldd	r24, Y+30	; 0x1e
    2984:	8f 5f       	subi	r24, 0xFF	; 255
    2986:	8e 8f       	std	Y+30, r24	; 0x1e
    2988:	8e 8d       	ldd	r24, Y+30	; 0x1e
    298a:	83 30       	cpi	r24, 0x03	; 3
    298c:	48 f3       	brcs	.-46     	; 0x2960 <DeleteUser+0x284>
        {
          EEPROMDataLocation = UserLocation + Check;
          EEPROMData = EEPROM_Read( EEPROMDataLocation + 7);
          EEPROM_Write(EEPROMDataLocation, EEPROMData );
        }
        Check = 0;
    298e:	1e 8e       	std	Y+30, r1	; 0x1e
    2990:	15 c0       	rjmp	.+42     	; 0x29bc <DeleteUser+0x2e0>
        for (; Check < 4; Check++)
        {
          EEPROMDataLocation = UserLocation + Check + 3;
    2992:	9c a1       	ldd	r25, Y+36	; 0x24
    2994:	8e 8d       	ldd	r24, Y+30	; 0x1e
    2996:	89 0f       	add	r24, r25
    2998:	8d 5f       	subi	r24, 0xFD	; 253
    299a:	8d 8f       	std	Y+29, r24	; 0x1d
          EEPROMData = EEPROM_Read( EEPROMDataLocation + 7);
    299c:	8d 8d       	ldd	r24, Y+29	; 0x1d
    299e:	88 2f       	mov	r24, r24
    29a0:	90 e0       	ldi	r25, 0x00	; 0
    29a2:	07 96       	adiw	r24, 0x07	; 7
    29a4:	0e 94 26 2f 	call	0x5e4c	; 0x5e4c <EEPROM_Read>
    29a8:	89 a3       	std	Y+33, r24	; 0x21
          EEPROM_Write(EEPROMDataLocation, EEPROMData );
    29aa:	8d 8d       	ldd	r24, Y+29	; 0x1d
    29ac:	88 2f       	mov	r24, r24
    29ae:	90 e0       	ldi	r25, 0x00	; 0
    29b0:	69 a1       	ldd	r22, Y+33	; 0x21
    29b2:	0e 94 f1 2e 	call	0x5de2	; 0x5de2 <EEPROM_Write>
          EEPROMDataLocation = UserLocation + Check;
          EEPROMData = EEPROM_Read( EEPROMDataLocation + 7);
          EEPROM_Write(EEPROMDataLocation, EEPROMData );
        }
        Check = 0;
        for (; Check < 4; Check++)
    29b6:	8e 8d       	ldd	r24, Y+30	; 0x1e
    29b8:	8f 5f       	subi	r24, 0xFF	; 255
    29ba:	8e 8f       	std	Y+30, r24	; 0x1e
    29bc:	8e 8d       	ldd	r24, Y+30	; 0x1e
    29be:	84 30       	cpi	r24, 0x04	; 4
    29c0:	40 f3       	brcs	.-48     	; 0x2992 <DeleteUser+0x2b6>

  if (NumberOfUsers > 0)
  {
    u8 Counter = 0, UserLocation  = 0, PerfectMatch = 0;

    for (; Counter < NumberOfUsers; Counter++)
    29c2:	8d a1       	ldd	r24, Y+37	; 0x25
    29c4:	8f 5f       	subi	r24, 0xFF	; 255
    29c6:	8d a3       	std	Y+37, r24	; 0x25
    29c8:	9d a1       	ldd	r25, Y+37	; 0x25
    29ca:	8e a1       	ldd	r24, Y+38	; 0x26
    29cc:	98 17       	cp	r25, r24
    29ce:	08 f4       	brcc	.+2      	; 0x29d2 <DeleteUser+0x2f6>
    29d0:	0f cf       	rjmp	.-482    	; 0x27f0 <DeleteUser+0x114>
          EEPROMData = EEPROM_Read( EEPROMDataLocation + 7);
          EEPROM_Write(EEPROMDataLocation, EEPROMData );
        }
      }
    }
    if (PerfectMatch == 1)
    29d2:	8b a1       	ldd	r24, Y+35	; 0x23
    29d4:	81 30       	cpi	r24, 0x01	; 1
    29d6:	69 f4       	brne	.+26     	; 0x29f2 <DeleteUser+0x316>
    {
      NumberOfUsers--;
    29d8:	8e a1       	ldd	r24, Y+38	; 0x26
    29da:	81 50       	subi	r24, 0x01	; 1
    29dc:	8e a3       	std	Y+38, r24	; 0x26
      EEPROM_Write(100, NumberOfUsers);
    29de:	84 e6       	ldi	r24, 0x64	; 100
    29e0:	90 e0       	ldi	r25, 0x00	; 0
    29e2:	6e a1       	ldd	r22, Y+38	; 0x26
    29e4:	0e 94 f1 2e 	call	0x5de2	; 0x5de2 <EEPROM_Write>
    29e8:	04 c0       	rjmp	.+8      	; 0x29f2 <DeleteUser+0x316>
  }

  else
  {
    /*print on LCD There is no any users yet*/
	  Lcd_vidDisplayStr("No users yet");
    29ea:	84 e9       	ldi	r24, 0x94	; 148
    29ec:	91 e0       	ldi	r25, 0x01	; 1
    29ee:	0e 94 34 27 	call	0x4e68	; 0x4e68 <Lcd_vidDisplayStr>

  }

}
    29f2:	a8 96       	adiw	r28, 0x28	; 40
    29f4:	0f b6       	in	r0, 0x3f	; 63
    29f6:	f8 94       	cli
    29f8:	de bf       	out	0x3e, r29	; 62
    29fa:	0f be       	out	0x3f, r0	; 63
    29fc:	cd bf       	out	0x3d, r28	; 61
    29fe:	cf 91       	pop	r28
    2a00:	df 91       	pop	r29
    2a02:	08 95       	ret

00002a04 <AdminLogin>:

u8 AdminLogin (u8* ID, u8* Password)
{
    2a04:	0f 93       	push	r16
    2a06:	1f 93       	push	r17
    2a08:	df 93       	push	r29
    2a0a:	cf 93       	push	r28
    2a0c:	cd b7       	in	r28, 0x3d	; 61
    2a0e:	de b7       	in	r29, 0x3e	; 62
    2a10:	ce 55       	subi	r28, 0x5E	; 94
    2a12:	d0 40       	sbci	r29, 0x00	; 0
    2a14:	0f b6       	in	r0, 0x3f	; 63
    2a16:	f8 94       	cli
    2a18:	de bf       	out	0x3e, r29	; 62
    2a1a:	0f be       	out	0x3f, r0	; 63
    2a1c:	cd bf       	out	0x3d, r28	; 61
    2a1e:	fe 01       	movw	r30, r28
    2a20:	e5 5a       	subi	r30, 0xA5	; 165
    2a22:	ff 4f       	sbci	r31, 0xFF	; 255
    2a24:	91 83       	std	Z+1, r25	; 0x01
    2a26:	80 83       	st	Z, r24
    2a28:	fe 01       	movw	r30, r28
    2a2a:	e3 5a       	subi	r30, 0xA3	; 163
    2a2c:	ff 4f       	sbci	r31, 0xFF	; 255
    2a2e:	71 83       	std	Z+1, r23	; 0x01
    2a30:	60 83       	st	Z, r22
  Lcd_vidCmd(_LCD_CLEAR);
    2a32:	81 e0       	ldi	r24, 0x01	; 1
    2a34:	0e 94 e6 26 	call	0x4dcc	; 0x4dcc <Lcd_vidCmd>
  u8 ByteAddress = 0, ValidUsername = 0, ValidPassword = 0, Counter = 0, EEPROMData = 0, WrongEntry = 0;
    2a38:	fe 01       	movw	r30, r28
    2a3a:	e6 5a       	subi	r30, 0xA6	; 166
    2a3c:	ff 4f       	sbci	r31, 0xFF	; 255
    2a3e:	10 82       	st	Z, r1
    2a40:	fe 01       	movw	r30, r28
    2a42:	e7 5a       	subi	r30, 0xA7	; 167
    2a44:	ff 4f       	sbci	r31, 0xFF	; 255
    2a46:	10 82       	st	Z, r1
    2a48:	fe 01       	movw	r30, r28
    2a4a:	e8 5a       	subi	r30, 0xA8	; 168
    2a4c:	ff 4f       	sbci	r31, 0xFF	; 255
    2a4e:	10 82       	st	Z, r1
    2a50:	fe 01       	movw	r30, r28
    2a52:	e9 5a       	subi	r30, 0xA9	; 169
    2a54:	ff 4f       	sbci	r31, 0xFF	; 255
    2a56:	10 82       	st	Z, r1
    2a58:	fe 01       	movw	r30, r28
    2a5a:	ea 5a       	subi	r30, 0xAA	; 170
    2a5c:	ff 4f       	sbci	r31, 0xFF	; 255
    2a5e:	10 82       	st	Z, r1
    2a60:	fe 01       	movw	r30, r28
    2a62:	eb 5a       	subi	r30, 0xAB	; 171
    2a64:	ff 4f       	sbci	r31, 0xFF	; 255
    2a66:	10 82       	st	Z, r1
    2a68:	3c c0       	rjmp	.+120    	; 0x2ae2 <AdminLogin+0xde>
  for (; Counter < 3; Counter++)
  {
    ByteAddress = 101 + Counter;
    2a6a:	de 01       	movw	r26, r28
    2a6c:	a6 5a       	subi	r26, 0xA6	; 166
    2a6e:	bf 4f       	sbci	r27, 0xFF	; 255
    2a70:	fe 01       	movw	r30, r28
    2a72:	e9 5a       	subi	r30, 0xA9	; 169
    2a74:	ff 4f       	sbci	r31, 0xFF	; 255
    2a76:	80 81       	ld	r24, Z
    2a78:	8b 59       	subi	r24, 0x9B	; 155
    2a7a:	8c 93       	st	X, r24
    EEPROMData = EEPROM_Read( ByteAddress );
    2a7c:	fe 01       	movw	r30, r28
    2a7e:	e6 5a       	subi	r30, 0xA6	; 166
    2a80:	ff 4f       	sbci	r31, 0xFF	; 255
    2a82:	80 81       	ld	r24, Z
    2a84:	88 2f       	mov	r24, r24
    2a86:	90 e0       	ldi	r25, 0x00	; 0
    2a88:	0e 94 26 2f 	call	0x5e4c	; 0x5e4c <EEPROM_Read>
    2a8c:	fe 01       	movw	r30, r28
    2a8e:	ea 5a       	subi	r30, 0xAA	; 170
    2a90:	ff 4f       	sbci	r31, 0xFF	; 255
    2a92:	80 83       	st	Z, r24
    if (ID[Counter] == EEPROMData)
    2a94:	fe 01       	movw	r30, r28
    2a96:	e9 5a       	subi	r30, 0xA9	; 169
    2a98:	ff 4f       	sbci	r31, 0xFF	; 255
    2a9a:	80 81       	ld	r24, Z
    2a9c:	28 2f       	mov	r18, r24
    2a9e:	30 e0       	ldi	r19, 0x00	; 0
    2aa0:	fe 01       	movw	r30, r28
    2aa2:	e5 5a       	subi	r30, 0xA5	; 165
    2aa4:	ff 4f       	sbci	r31, 0xFF	; 255
    2aa6:	80 81       	ld	r24, Z
    2aa8:	91 81       	ldd	r25, Z+1	; 0x01
    2aaa:	fc 01       	movw	r30, r24
    2aac:	e2 0f       	add	r30, r18
    2aae:	f3 1f       	adc	r31, r19
    2ab0:	90 81       	ld	r25, Z
    2ab2:	fe 01       	movw	r30, r28
    2ab4:	ea 5a       	subi	r30, 0xAA	; 170
    2ab6:	ff 4f       	sbci	r31, 0xFF	; 255
    2ab8:	80 81       	ld	r24, Z
    2aba:	98 17       	cp	r25, r24
    2abc:	49 f4       	brne	.+18     	; 0x2ad0 <AdminLogin+0xcc>
    {
      ValidUsername++;
    2abe:	de 01       	movw	r26, r28
    2ac0:	a7 5a       	subi	r26, 0xA7	; 167
    2ac2:	bf 4f       	sbci	r27, 0xFF	; 255
    2ac4:	fe 01       	movw	r30, r28
    2ac6:	e7 5a       	subi	r30, 0xA7	; 167
    2ac8:	ff 4f       	sbci	r31, 0xFF	; 255
    2aca:	80 81       	ld	r24, Z
    2acc:	8f 5f       	subi	r24, 0xFF	; 255
    2ace:	8c 93       	st	X, r24

u8 AdminLogin (u8* ID, u8* Password)
{
  Lcd_vidCmd(_LCD_CLEAR);
  u8 ByteAddress = 0, ValidUsername = 0, ValidPassword = 0, Counter = 0, EEPROMData = 0, WrongEntry = 0;
  for (; Counter < 3; Counter++)
    2ad0:	de 01       	movw	r26, r28
    2ad2:	a9 5a       	subi	r26, 0xA9	; 169
    2ad4:	bf 4f       	sbci	r27, 0xFF	; 255
    2ad6:	fe 01       	movw	r30, r28
    2ad8:	e9 5a       	subi	r30, 0xA9	; 169
    2ada:	ff 4f       	sbci	r31, 0xFF	; 255
    2adc:	80 81       	ld	r24, Z
    2ade:	8f 5f       	subi	r24, 0xFF	; 255
    2ae0:	8c 93       	st	X, r24
    2ae2:	fe 01       	movw	r30, r28
    2ae4:	e9 5a       	subi	r30, 0xA9	; 169
    2ae6:	ff 4f       	sbci	r31, 0xFF	; 255
    2ae8:	80 81       	ld	r24, Z
    2aea:	83 30       	cpi	r24, 0x03	; 3
    2aec:	08 f4       	brcc	.+2      	; 0x2af0 <AdminLogin+0xec>
    2aee:	bd cf       	rjmp	.-134    	; 0x2a6a <AdminLogin+0x66>
      //      _delay_ms(500);
    }
    //  ValidUsername++;
  }

  for (Counter = 0; Counter < 4; Counter++)
    2af0:	fe 01       	movw	r30, r28
    2af2:	e9 5a       	subi	r30, 0xA9	; 169
    2af4:	ff 4f       	sbci	r31, 0xFF	; 255
    2af6:	10 82       	st	Z, r1
    2af8:	3c c0       	rjmp	.+120    	; 0x2b72 <AdminLogin+0x16e>
  {
    ByteAddress = 101 + Counter + 3;
    2afa:	de 01       	movw	r26, r28
    2afc:	a6 5a       	subi	r26, 0xA6	; 166
    2afe:	bf 4f       	sbci	r27, 0xFF	; 255
    2b00:	fe 01       	movw	r30, r28
    2b02:	e9 5a       	subi	r30, 0xA9	; 169
    2b04:	ff 4f       	sbci	r31, 0xFF	; 255
    2b06:	80 81       	ld	r24, Z
    2b08:	88 59       	subi	r24, 0x98	; 152
    2b0a:	8c 93       	st	X, r24
    EEPROMData = EEPROM_Read(ByteAddress);
    2b0c:	fe 01       	movw	r30, r28
    2b0e:	e6 5a       	subi	r30, 0xA6	; 166
    2b10:	ff 4f       	sbci	r31, 0xFF	; 255
    2b12:	80 81       	ld	r24, Z
    2b14:	88 2f       	mov	r24, r24
    2b16:	90 e0       	ldi	r25, 0x00	; 0
    2b18:	0e 94 26 2f 	call	0x5e4c	; 0x5e4c <EEPROM_Read>
    2b1c:	fe 01       	movw	r30, r28
    2b1e:	ea 5a       	subi	r30, 0xAA	; 170
    2b20:	ff 4f       	sbci	r31, 0xFF	; 255
    2b22:	80 83       	st	Z, r24
    if (Password[Counter] == EEPROMData)
    2b24:	fe 01       	movw	r30, r28
    2b26:	e9 5a       	subi	r30, 0xA9	; 169
    2b28:	ff 4f       	sbci	r31, 0xFF	; 255
    2b2a:	80 81       	ld	r24, Z
    2b2c:	28 2f       	mov	r18, r24
    2b2e:	30 e0       	ldi	r19, 0x00	; 0
    2b30:	fe 01       	movw	r30, r28
    2b32:	e3 5a       	subi	r30, 0xA3	; 163
    2b34:	ff 4f       	sbci	r31, 0xFF	; 255
    2b36:	80 81       	ld	r24, Z
    2b38:	91 81       	ldd	r25, Z+1	; 0x01
    2b3a:	fc 01       	movw	r30, r24
    2b3c:	e2 0f       	add	r30, r18
    2b3e:	f3 1f       	adc	r31, r19
    2b40:	90 81       	ld	r25, Z
    2b42:	fe 01       	movw	r30, r28
    2b44:	ea 5a       	subi	r30, 0xAA	; 170
    2b46:	ff 4f       	sbci	r31, 0xFF	; 255
    2b48:	80 81       	ld	r24, Z
    2b4a:	98 17       	cp	r25, r24
    2b4c:	49 f4       	brne	.+18     	; 0x2b60 <AdminLogin+0x15c>
    {
      ValidPassword++;
    2b4e:	de 01       	movw	r26, r28
    2b50:	a8 5a       	subi	r26, 0xA8	; 168
    2b52:	bf 4f       	sbci	r27, 0xFF	; 255
    2b54:	fe 01       	movw	r30, r28
    2b56:	e8 5a       	subi	r30, 0xA8	; 168
    2b58:	ff 4f       	sbci	r31, 0xFF	; 255
    2b5a:	80 81       	ld	r24, Z
    2b5c:	8f 5f       	subi	r24, 0xFF	; 255
    2b5e:	8c 93       	st	X, r24
      //      _delay_ms(500);
    }
    //  ValidUsername++;
  }

  for (Counter = 0; Counter < 4; Counter++)
    2b60:	de 01       	movw	r26, r28
    2b62:	a9 5a       	subi	r26, 0xA9	; 169
    2b64:	bf 4f       	sbci	r27, 0xFF	; 255
    2b66:	fe 01       	movw	r30, r28
    2b68:	e9 5a       	subi	r30, 0xA9	; 169
    2b6a:	ff 4f       	sbci	r31, 0xFF	; 255
    2b6c:	80 81       	ld	r24, Z
    2b6e:	8f 5f       	subi	r24, 0xFF	; 255
    2b70:	8c 93       	st	X, r24
    2b72:	fe 01       	movw	r30, r28
    2b74:	e9 5a       	subi	r30, 0xA9	; 169
    2b76:	ff 4f       	sbci	r31, 0xFF	; 255
    2b78:	80 81       	ld	r24, Z
    2b7a:	84 30       	cpi	r24, 0x04	; 4
    2b7c:	08 f4       	brcc	.+2      	; 0x2b80 <AdminLogin+0x17c>
    2b7e:	bd cf       	rjmp	.-134    	; 0x2afa <AdminLogin+0xf6>
    {
      /*Do Nothing*/
    }

  }
  if ((ValidUsername == 3) && (ValidPassword == 4))
    2b80:	fe 01       	movw	r30, r28
    2b82:	e7 5a       	subi	r30, 0xA7	; 167
    2b84:	ff 4f       	sbci	r31, 0xFF	; 255
    2b86:	80 81       	ld	r24, Z
    2b88:	83 30       	cpi	r24, 0x03	; 3
    2b8a:	09 f0       	breq	.+2      	; 0x2b8e <AdminLogin+0x18a>
    2b8c:	c4 c0       	rjmp	.+392    	; 0x2d16 <AdminLogin+0x312>
    2b8e:	fe 01       	movw	r30, r28
    2b90:	e8 5a       	subi	r30, 0xA8	; 168
    2b92:	ff 4f       	sbci	r31, 0xFF	; 255
    2b94:	80 81       	ld	r24, Z
    2b96:	84 30       	cpi	r24, 0x04	; 4
    2b98:	09 f0       	breq	.+2      	; 0x2b9c <AdminLogin+0x198>
    2b9a:	bd c0       	rjmp	.+378    	; 0x2d16 <AdminLogin+0x312>
  {
    /*Print on LCD Login Successful*/
    Lcd_vidDisplayStr("Login Successful");
    2b9c:	81 ea       	ldi	r24, 0xA1	; 161
    2b9e:	91 e0       	ldi	r25, 0x01	; 1
    2ba0:	0e 94 34 27 	call	0x4e68	; 0x4e68 <Lcd_vidDisplayStr>
    Hc05_SendString("Login Successful");
    2ba4:	81 ea       	ldi	r24, 0xA1	; 161
    2ba6:	91 e0       	ldi	r25, 0x01	; 1
    2ba8:	0e 94 17 29 	call	0x522e	; 0x522e <Hc05_SendString>
    2bac:	fe 01       	movw	r30, r28
    2bae:	ef 5a       	subi	r30, 0xAF	; 175
    2bb0:	ff 4f       	sbci	r31, 0xFF	; 255
    2bb2:	80 e0       	ldi	r24, 0x00	; 0
    2bb4:	90 e0       	ldi	r25, 0x00	; 0
    2bb6:	aa ef       	ldi	r26, 0xFA	; 250
    2bb8:	b3 e4       	ldi	r27, 0x43	; 67
    2bba:	80 83       	st	Z, r24
    2bbc:	91 83       	std	Z+1, r25	; 0x01
    2bbe:	a2 83       	std	Z+2, r26	; 0x02
    2bc0:	b3 83       	std	Z+3, r27	; 0x03
 */
void
_delay_ms(double __ms)
{
	uint16_t __ticks;
	double __tmp = ((F_CPU) / 4e3) * __ms;
    2bc2:	8e 01       	movw	r16, r28
    2bc4:	03 5b       	subi	r16, 0xB3	; 179
    2bc6:	1f 4f       	sbci	r17, 0xFF	; 255
    2bc8:	fe 01       	movw	r30, r28
    2bca:	ef 5a       	subi	r30, 0xAF	; 175
    2bcc:	ff 4f       	sbci	r31, 0xFF	; 255
    2bce:	60 81       	ld	r22, Z
    2bd0:	71 81       	ldd	r23, Z+1	; 0x01
    2bd2:	82 81       	ldd	r24, Z+2	; 0x02
    2bd4:	93 81       	ldd	r25, Z+3	; 0x03
    2bd6:	20 e0       	ldi	r18, 0x00	; 0
    2bd8:	30 e0       	ldi	r19, 0x00	; 0
    2bda:	4a e7       	ldi	r20, 0x7A	; 122
    2bdc:	55 e4       	ldi	r21, 0x45	; 69
    2bde:	0e 94 9c 02 	call	0x538	; 0x538 <__mulsf3>
    2be2:	dc 01       	movw	r26, r24
    2be4:	cb 01       	movw	r24, r22
    2be6:	f8 01       	movw	r30, r16
    2be8:	80 83       	st	Z, r24
    2bea:	91 83       	std	Z+1, r25	; 0x01
    2bec:	a2 83       	std	Z+2, r26	; 0x02
    2bee:	b3 83       	std	Z+3, r27	; 0x03
	if (__tmp < 1.0)
    2bf0:	fe 01       	movw	r30, r28
    2bf2:	e3 5b       	subi	r30, 0xB3	; 179
    2bf4:	ff 4f       	sbci	r31, 0xFF	; 255
    2bf6:	60 81       	ld	r22, Z
    2bf8:	71 81       	ldd	r23, Z+1	; 0x01
    2bfa:	82 81       	ldd	r24, Z+2	; 0x02
    2bfc:	93 81       	ldd	r25, Z+3	; 0x03
    2bfe:	20 e0       	ldi	r18, 0x00	; 0
    2c00:	30 e0       	ldi	r19, 0x00	; 0
    2c02:	40 e8       	ldi	r20, 0x80	; 128
    2c04:	5f e3       	ldi	r21, 0x3F	; 63
    2c06:	0e 94 a2 04 	call	0x944	; 0x944 <__ltsf2>
    2c0a:	88 23       	and	r24, r24
    2c0c:	44 f4       	brge	.+16     	; 0x2c1e <AdminLogin+0x21a>
		__ticks = 1;
    2c0e:	fe 01       	movw	r30, r28
    2c10:	e5 5b       	subi	r30, 0xB5	; 181
    2c12:	ff 4f       	sbci	r31, 0xFF	; 255
    2c14:	81 e0       	ldi	r24, 0x01	; 1
    2c16:	90 e0       	ldi	r25, 0x00	; 0
    2c18:	91 83       	std	Z+1, r25	; 0x01
    2c1a:	80 83       	st	Z, r24
    2c1c:	64 c0       	rjmp	.+200    	; 0x2ce6 <AdminLogin+0x2e2>
	else if (__tmp > 65535)
    2c1e:	fe 01       	movw	r30, r28
    2c20:	e3 5b       	subi	r30, 0xB3	; 179
    2c22:	ff 4f       	sbci	r31, 0xFF	; 255
    2c24:	60 81       	ld	r22, Z
    2c26:	71 81       	ldd	r23, Z+1	; 0x01
    2c28:	82 81       	ldd	r24, Z+2	; 0x02
    2c2a:	93 81       	ldd	r25, Z+3	; 0x03
    2c2c:	20 e0       	ldi	r18, 0x00	; 0
    2c2e:	3f ef       	ldi	r19, 0xFF	; 255
    2c30:	4f e7       	ldi	r20, 0x7F	; 127
    2c32:	57 e4       	ldi	r21, 0x47	; 71
    2c34:	0e 94 42 04 	call	0x884	; 0x884 <__gtsf2>
    2c38:	18 16       	cp	r1, r24
    2c3a:	0c f0       	brlt	.+2      	; 0x2c3e <AdminLogin+0x23a>
    2c3c:	43 c0       	rjmp	.+134    	; 0x2cc4 <AdminLogin+0x2c0>
	{
		//	__ticks = requested delay in 1/10 ms
		__ticks = (uint16_t) (__ms * 10.0);
    2c3e:	fe 01       	movw	r30, r28
    2c40:	ef 5a       	subi	r30, 0xAF	; 175
    2c42:	ff 4f       	sbci	r31, 0xFF	; 255
    2c44:	60 81       	ld	r22, Z
    2c46:	71 81       	ldd	r23, Z+1	; 0x01
    2c48:	82 81       	ldd	r24, Z+2	; 0x02
    2c4a:	93 81       	ldd	r25, Z+3	; 0x03
    2c4c:	20 e0       	ldi	r18, 0x00	; 0
    2c4e:	30 e0       	ldi	r19, 0x00	; 0
    2c50:	40 e2       	ldi	r20, 0x20	; 32
    2c52:	51 e4       	ldi	r21, 0x41	; 65
    2c54:	0e 94 9c 02 	call	0x538	; 0x538 <__mulsf3>
    2c58:	dc 01       	movw	r26, r24
    2c5a:	cb 01       	movw	r24, r22
    2c5c:	8e 01       	movw	r16, r28
    2c5e:	05 5b       	subi	r16, 0xB5	; 181
    2c60:	1f 4f       	sbci	r17, 0xFF	; 255
    2c62:	bc 01       	movw	r22, r24
    2c64:	cd 01       	movw	r24, r26
    2c66:	0e 94 c6 00 	call	0x18c	; 0x18c <__fixunssfsi>
    2c6a:	dc 01       	movw	r26, r24
    2c6c:	cb 01       	movw	r24, r22
    2c6e:	f8 01       	movw	r30, r16
    2c70:	91 83       	std	Z+1, r25	; 0x01
    2c72:	80 83       	st	Z, r24
    2c74:	1f c0       	rjmp	.+62     	; 0x2cb4 <AdminLogin+0x2b0>
    2c76:	fe 01       	movw	r30, r28
    2c78:	e7 5b       	subi	r30, 0xB7	; 183
    2c7a:	ff 4f       	sbci	r31, 0xFF	; 255
    2c7c:	80 e9       	ldi	r24, 0x90	; 144
    2c7e:	91 e0       	ldi	r25, 0x01	; 1
    2c80:	91 83       	std	Z+1, r25	; 0x01
    2c82:	80 83       	st	Z, r24
    2c84:	fe 01       	movw	r30, r28
    2c86:	e7 5b       	subi	r30, 0xB7	; 183
    2c88:	ff 4f       	sbci	r31, 0xFF	; 255
    2c8a:	80 81       	ld	r24, Z
    2c8c:	91 81       	ldd	r25, Z+1	; 0x01
    2c8e:	01 97       	sbiw	r24, 0x01	; 1
    2c90:	f1 f7       	brne	.-4      	; 0x2c8e <AdminLogin+0x28a>
    2c92:	fe 01       	movw	r30, r28
    2c94:	e7 5b       	subi	r30, 0xB7	; 183
    2c96:	ff 4f       	sbci	r31, 0xFF	; 255
    2c98:	91 83       	std	Z+1, r25	; 0x01
    2c9a:	80 83       	st	Z, r24
		while(__ticks)
		{
			// wait 1/10 ms
			_delay_loop_2(((F_CPU) / 4e3) / 10);
			__ticks --;
    2c9c:	de 01       	movw	r26, r28
    2c9e:	a5 5b       	subi	r26, 0xB5	; 181
    2ca0:	bf 4f       	sbci	r27, 0xFF	; 255
    2ca2:	fe 01       	movw	r30, r28
    2ca4:	e5 5b       	subi	r30, 0xB5	; 181
    2ca6:	ff 4f       	sbci	r31, 0xFF	; 255
    2ca8:	80 81       	ld	r24, Z
    2caa:	91 81       	ldd	r25, Z+1	; 0x01
    2cac:	01 97       	sbiw	r24, 0x01	; 1
    2cae:	11 96       	adiw	r26, 0x01	; 1
    2cb0:	9c 93       	st	X, r25
    2cb2:	8e 93       	st	-X, r24
		__ticks = 1;
	else if (__tmp > 65535)
	{
		//	__ticks = requested delay in 1/10 ms
		__ticks = (uint16_t) (__ms * 10.0);
		while(__ticks)
    2cb4:	fe 01       	movw	r30, r28
    2cb6:	e5 5b       	subi	r30, 0xB5	; 181
    2cb8:	ff 4f       	sbci	r31, 0xFF	; 255
    2cba:	80 81       	ld	r24, Z
    2cbc:	91 81       	ldd	r25, Z+1	; 0x01
    2cbe:	00 97       	sbiw	r24, 0x00	; 0
    2cc0:	d1 f6       	brne	.-76     	; 0x2c76 <AdminLogin+0x272>
    2cc2:	f9 c1       	rjmp	.+1010   	; 0x30b6 <AdminLogin+0x6b2>
			__ticks --;
		}
		return;
	}
	else
		__ticks = (uint16_t)__tmp;
    2cc4:	8e 01       	movw	r16, r28
    2cc6:	05 5b       	subi	r16, 0xB5	; 181
    2cc8:	1f 4f       	sbci	r17, 0xFF	; 255
    2cca:	fe 01       	movw	r30, r28
    2ccc:	e3 5b       	subi	r30, 0xB3	; 179
    2cce:	ff 4f       	sbci	r31, 0xFF	; 255
    2cd0:	60 81       	ld	r22, Z
    2cd2:	71 81       	ldd	r23, Z+1	; 0x01
    2cd4:	82 81       	ldd	r24, Z+2	; 0x02
    2cd6:	93 81       	ldd	r25, Z+3	; 0x03
    2cd8:	0e 94 c6 00 	call	0x18c	; 0x18c <__fixunssfsi>
    2cdc:	dc 01       	movw	r26, r24
    2cde:	cb 01       	movw	r24, r22
    2ce0:	f8 01       	movw	r30, r16
    2ce2:	91 83       	std	Z+1, r25	; 0x01
    2ce4:	80 83       	st	Z, r24
    2ce6:	de 01       	movw	r26, r28
    2ce8:	a9 5b       	subi	r26, 0xB9	; 185
    2cea:	bf 4f       	sbci	r27, 0xFF	; 255
    2cec:	fe 01       	movw	r30, r28
    2cee:	e5 5b       	subi	r30, 0xB5	; 181
    2cf0:	ff 4f       	sbci	r31, 0xFF	; 255
    2cf2:	80 81       	ld	r24, Z
    2cf4:	91 81       	ldd	r25, Z+1	; 0x01
    2cf6:	11 96       	adiw	r26, 0x01	; 1
    2cf8:	9c 93       	st	X, r25
    2cfa:	8e 93       	st	-X, r24
    2cfc:	fe 01       	movw	r30, r28
    2cfe:	e9 5b       	subi	r30, 0xB9	; 185
    2d00:	ff 4f       	sbci	r31, 0xFF	; 255
    2d02:	80 81       	ld	r24, Z
    2d04:	91 81       	ldd	r25, Z+1	; 0x01
    2d06:	01 97       	sbiw	r24, 0x01	; 1
    2d08:	f1 f7       	brne	.-4      	; 0x2d06 <AdminLogin+0x302>
    2d0a:	fe 01       	movw	r30, r28
    2d0c:	e9 5b       	subi	r30, 0xB9	; 185
    2d0e:	ff 4f       	sbci	r31, 0xFF	; 255
    2d10:	91 83       	std	Z+1, r25	; 0x01
    2d12:	80 83       	st	Z, r24
    2d14:	d0 c1       	rjmp	.+928    	; 0x30b6 <AdminLogin+0x6b2>
    _delay_ms(500);
  }
  else if ((ValidPassword == 4) && (ValidUsername != 3)  )
    2d16:	fe 01       	movw	r30, r28
    2d18:	e8 5a       	subi	r30, 0xA8	; 168
    2d1a:	ff 4f       	sbci	r31, 0xFF	; 255
    2d1c:	80 81       	ld	r24, Z
    2d1e:	84 30       	cpi	r24, 0x04	; 4
    2d20:	09 f0       	breq	.+2      	; 0x2d24 <AdminLogin+0x320>
    2d22:	9e c0       	rjmp	.+316    	; 0x2e60 <AdminLogin+0x45c>
    2d24:	fe 01       	movw	r30, r28
    2d26:	e7 5a       	subi	r30, 0xA7	; 167
    2d28:	ff 4f       	sbci	r31, 0xFF	; 255
    2d2a:	80 81       	ld	r24, Z
    2d2c:	83 30       	cpi	r24, 0x03	; 3
    2d2e:	09 f4       	brne	.+2      	; 0x2d32 <AdminLogin+0x32e>
    2d30:	97 c0       	rjmp	.+302    	; 0x2e60 <AdminLogin+0x45c>
  {
    /*Print on LCD invalid Username*/
    Lcd_vidDisplayStr("Invalid Username");
    2d32:	88 e1       	ldi	r24, 0x18	; 24
    2d34:	91 e0       	ldi	r25, 0x01	; 1
    2d36:	0e 94 34 27 	call	0x4e68	; 0x4e68 <Lcd_vidDisplayStr>
    Hc05_SendString("Invalid Username");
    2d3a:	88 e1       	ldi	r24, 0x18	; 24
    2d3c:	91 e0       	ldi	r25, 0x01	; 1
    2d3e:	0e 94 17 29 	call	0x522e	; 0x522e <Hc05_SendString>
    2d42:	fe 01       	movw	r30, r28
    2d44:	ed 5b       	subi	r30, 0xBD	; 189
    2d46:	ff 4f       	sbci	r31, 0xFF	; 255
    2d48:	80 e0       	ldi	r24, 0x00	; 0
    2d4a:	90 e0       	ldi	r25, 0x00	; 0
    2d4c:	aa ef       	ldi	r26, 0xFA	; 250
    2d4e:	b3 e4       	ldi	r27, 0x43	; 67
    2d50:	80 83       	st	Z, r24
    2d52:	91 83       	std	Z+1, r25	; 0x01
    2d54:	a2 83       	std	Z+2, r26	; 0x02
    2d56:	b3 83       	std	Z+3, r27	; 0x03
 */
void
_delay_ms(double __ms)
{
	uint16_t __ticks;
	double __tmp = ((F_CPU) / 4e3) * __ms;
    2d58:	8e 01       	movw	r16, r28
    2d5a:	01 5c       	subi	r16, 0xC1	; 193
    2d5c:	1f 4f       	sbci	r17, 0xFF	; 255
    2d5e:	fe 01       	movw	r30, r28
    2d60:	ed 5b       	subi	r30, 0xBD	; 189
    2d62:	ff 4f       	sbci	r31, 0xFF	; 255
    2d64:	60 81       	ld	r22, Z
    2d66:	71 81       	ldd	r23, Z+1	; 0x01
    2d68:	82 81       	ldd	r24, Z+2	; 0x02
    2d6a:	93 81       	ldd	r25, Z+3	; 0x03
    2d6c:	20 e0       	ldi	r18, 0x00	; 0
    2d6e:	30 e0       	ldi	r19, 0x00	; 0
    2d70:	4a e7       	ldi	r20, 0x7A	; 122
    2d72:	55 e4       	ldi	r21, 0x45	; 69
    2d74:	0e 94 9c 02 	call	0x538	; 0x538 <__mulsf3>
    2d78:	dc 01       	movw	r26, r24
    2d7a:	cb 01       	movw	r24, r22
    2d7c:	f8 01       	movw	r30, r16
    2d7e:	80 83       	st	Z, r24
    2d80:	91 83       	std	Z+1, r25	; 0x01
    2d82:	a2 83       	std	Z+2, r26	; 0x02
    2d84:	b3 83       	std	Z+3, r27	; 0x03
	if (__tmp < 1.0)
    2d86:	fe 01       	movw	r30, r28
    2d88:	ff 96       	adiw	r30, 0x3f	; 63
    2d8a:	60 81       	ld	r22, Z
    2d8c:	71 81       	ldd	r23, Z+1	; 0x01
    2d8e:	82 81       	ldd	r24, Z+2	; 0x02
    2d90:	93 81       	ldd	r25, Z+3	; 0x03
    2d92:	20 e0       	ldi	r18, 0x00	; 0
    2d94:	30 e0       	ldi	r19, 0x00	; 0
    2d96:	40 e8       	ldi	r20, 0x80	; 128
    2d98:	5f e3       	ldi	r21, 0x3F	; 63
    2d9a:	0e 94 a2 04 	call	0x944	; 0x944 <__ltsf2>
    2d9e:	88 23       	and	r24, r24
    2da0:	2c f4       	brge	.+10     	; 0x2dac <AdminLogin+0x3a8>
		__ticks = 1;
    2da2:	81 e0       	ldi	r24, 0x01	; 1
    2da4:	90 e0       	ldi	r25, 0x00	; 0
    2da6:	9e af       	std	Y+62, r25	; 0x3e
    2da8:	8d af       	std	Y+61, r24	; 0x3d
    2daa:	46 c0       	rjmp	.+140    	; 0x2e38 <AdminLogin+0x434>
	else if (__tmp > 65535)
    2dac:	fe 01       	movw	r30, r28
    2dae:	ff 96       	adiw	r30, 0x3f	; 63
    2db0:	60 81       	ld	r22, Z
    2db2:	71 81       	ldd	r23, Z+1	; 0x01
    2db4:	82 81       	ldd	r24, Z+2	; 0x02
    2db6:	93 81       	ldd	r25, Z+3	; 0x03
    2db8:	20 e0       	ldi	r18, 0x00	; 0
    2dba:	3f ef       	ldi	r19, 0xFF	; 255
    2dbc:	4f e7       	ldi	r20, 0x7F	; 127
    2dbe:	57 e4       	ldi	r21, 0x47	; 71
    2dc0:	0e 94 42 04 	call	0x884	; 0x884 <__gtsf2>
    2dc4:	18 16       	cp	r1, r24
    2dc6:	64 f5       	brge	.+88     	; 0x2e20 <AdminLogin+0x41c>
	{
		//	__ticks = requested delay in 1/10 ms
		__ticks = (uint16_t) (__ms * 10.0);
    2dc8:	fe 01       	movw	r30, r28
    2dca:	ed 5b       	subi	r30, 0xBD	; 189
    2dcc:	ff 4f       	sbci	r31, 0xFF	; 255
    2dce:	60 81       	ld	r22, Z
    2dd0:	71 81       	ldd	r23, Z+1	; 0x01
    2dd2:	82 81       	ldd	r24, Z+2	; 0x02
    2dd4:	93 81       	ldd	r25, Z+3	; 0x03
    2dd6:	20 e0       	ldi	r18, 0x00	; 0
    2dd8:	30 e0       	ldi	r19, 0x00	; 0
    2dda:	40 e2       	ldi	r20, 0x20	; 32
    2ddc:	51 e4       	ldi	r21, 0x41	; 65
    2dde:	0e 94 9c 02 	call	0x538	; 0x538 <__mulsf3>
    2de2:	dc 01       	movw	r26, r24
    2de4:	cb 01       	movw	r24, r22
    2de6:	bc 01       	movw	r22, r24
    2de8:	cd 01       	movw	r24, r26
    2dea:	0e 94 c6 00 	call	0x18c	; 0x18c <__fixunssfsi>
    2dee:	dc 01       	movw	r26, r24
    2df0:	cb 01       	movw	r24, r22
    2df2:	9e af       	std	Y+62, r25	; 0x3e
    2df4:	8d af       	std	Y+61, r24	; 0x3d
    2df6:	0f c0       	rjmp	.+30     	; 0x2e16 <AdminLogin+0x412>
    2df8:	80 e9       	ldi	r24, 0x90	; 144
    2dfa:	91 e0       	ldi	r25, 0x01	; 1
    2dfc:	9c af       	std	Y+60, r25	; 0x3c
    2dfe:	8b af       	std	Y+59, r24	; 0x3b
    2e00:	8b ad       	ldd	r24, Y+59	; 0x3b
    2e02:	9c ad       	ldd	r25, Y+60	; 0x3c
    2e04:	01 97       	sbiw	r24, 0x01	; 1
    2e06:	f1 f7       	brne	.-4      	; 0x2e04 <AdminLogin+0x400>
    2e08:	9c af       	std	Y+60, r25	; 0x3c
    2e0a:	8b af       	std	Y+59, r24	; 0x3b
		while(__ticks)
		{
			// wait 1/10 ms
			_delay_loop_2(((F_CPU) / 4e3) / 10);
			__ticks --;
    2e0c:	8d ad       	ldd	r24, Y+61	; 0x3d
    2e0e:	9e ad       	ldd	r25, Y+62	; 0x3e
    2e10:	01 97       	sbiw	r24, 0x01	; 1
    2e12:	9e af       	std	Y+62, r25	; 0x3e
    2e14:	8d af       	std	Y+61, r24	; 0x3d
		__ticks = 1;
	else if (__tmp > 65535)
	{
		//	__ticks = requested delay in 1/10 ms
		__ticks = (uint16_t) (__ms * 10.0);
		while(__ticks)
    2e16:	8d ad       	ldd	r24, Y+61	; 0x3d
    2e18:	9e ad       	ldd	r25, Y+62	; 0x3e
    2e1a:	00 97       	sbiw	r24, 0x00	; 0
    2e1c:	69 f7       	brne	.-38     	; 0x2df8 <AdminLogin+0x3f4>
    2e1e:	16 c0       	rjmp	.+44     	; 0x2e4c <AdminLogin+0x448>
			__ticks --;
		}
		return;
	}
	else
		__ticks = (uint16_t)__tmp;
    2e20:	fe 01       	movw	r30, r28
    2e22:	ff 96       	adiw	r30, 0x3f	; 63
    2e24:	60 81       	ld	r22, Z
    2e26:	71 81       	ldd	r23, Z+1	; 0x01
    2e28:	82 81       	ldd	r24, Z+2	; 0x02
    2e2a:	93 81       	ldd	r25, Z+3	; 0x03
    2e2c:	0e 94 c6 00 	call	0x18c	; 0x18c <__fixunssfsi>
    2e30:	dc 01       	movw	r26, r24
    2e32:	cb 01       	movw	r24, r22
    2e34:	9e af       	std	Y+62, r25	; 0x3e
    2e36:	8d af       	std	Y+61, r24	; 0x3d
    2e38:	8d ad       	ldd	r24, Y+61	; 0x3d
    2e3a:	9e ad       	ldd	r25, Y+62	; 0x3e
    2e3c:	9a af       	std	Y+58, r25	; 0x3a
    2e3e:	89 af       	std	Y+57, r24	; 0x39
    2e40:	89 ad       	ldd	r24, Y+57	; 0x39
    2e42:	9a ad       	ldd	r25, Y+58	; 0x3a
    2e44:	01 97       	sbiw	r24, 0x01	; 1
    2e46:	f1 f7       	brne	.-4      	; 0x2e44 <AdminLogin+0x440>
    2e48:	9a af       	std	Y+58, r25	; 0x3a
    2e4a:	89 af       	std	Y+57, r24	; 0x39
    _delay_ms(500);
    WrongEntry++;
    2e4c:	de 01       	movw	r26, r28
    2e4e:	ab 5a       	subi	r26, 0xAB	; 171
    2e50:	bf 4f       	sbci	r27, 0xFF	; 255
    2e52:	fe 01       	movw	r30, r28
    2e54:	eb 5a       	subi	r30, 0xAB	; 171
    2e56:	ff 4f       	sbci	r31, 0xFF	; 255
    2e58:	80 81       	ld	r24, Z
    2e5a:	8f 5f       	subi	r24, 0xFF	; 255
    2e5c:	8c 93       	st	X, r24
    2e5e:	2b c1       	rjmp	.+598    	; 0x30b6 <AdminLogin+0x6b2>
  }
  else if ((ValidUsername == 3) && (ValidPassword != 4))
    2e60:	fe 01       	movw	r30, r28
    2e62:	e7 5a       	subi	r30, 0xA7	; 167
    2e64:	ff 4f       	sbci	r31, 0xFF	; 255
    2e66:	80 81       	ld	r24, Z
    2e68:	83 30       	cpi	r24, 0x03	; 3
    2e6a:	09 f0       	breq	.+2      	; 0x2e6e <AdminLogin+0x46a>
    2e6c:	8b c0       	rjmp	.+278    	; 0x2f84 <AdminLogin+0x580>
    2e6e:	fe 01       	movw	r30, r28
    2e70:	e8 5a       	subi	r30, 0xA8	; 168
    2e72:	ff 4f       	sbci	r31, 0xFF	; 255
    2e74:	80 81       	ld	r24, Z
    2e76:	84 30       	cpi	r24, 0x04	; 4
    2e78:	09 f4       	brne	.+2      	; 0x2e7c <AdminLogin+0x478>
    2e7a:	84 c0       	rjmp	.+264    	; 0x2f84 <AdminLogin+0x580>
  {
    /*Print on LCD Invalid Password*/
    Lcd_vidDisplayStr("Invalid Password");
    2e7c:	82 eb       	ldi	r24, 0xB2	; 178
    2e7e:	91 e0       	ldi	r25, 0x01	; 1
    2e80:	0e 94 34 27 	call	0x4e68	; 0x4e68 <Lcd_vidDisplayStr>
    Hc05_SendString("Invalid Password");
    2e84:	82 eb       	ldi	r24, 0xB2	; 178
    2e86:	91 e0       	ldi	r25, 0x01	; 1
    2e88:	0e 94 17 29 	call	0x522e	; 0x522e <Hc05_SendString>
    2e8c:	80 e0       	ldi	r24, 0x00	; 0
    2e8e:	90 e0       	ldi	r25, 0x00	; 0
    2e90:	aa ef       	ldi	r26, 0xFA	; 250
    2e92:	b3 e4       	ldi	r27, 0x43	; 67
    2e94:	8d ab       	std	Y+53, r24	; 0x35
    2e96:	9e ab       	std	Y+54, r25	; 0x36
    2e98:	af ab       	std	Y+55, r26	; 0x37
    2e9a:	b8 af       	std	Y+56, r27	; 0x38
 */
void
_delay_ms(double __ms)
{
	uint16_t __ticks;
	double __tmp = ((F_CPU) / 4e3) * __ms;
    2e9c:	6d a9       	ldd	r22, Y+53	; 0x35
    2e9e:	7e a9       	ldd	r23, Y+54	; 0x36
    2ea0:	8f a9       	ldd	r24, Y+55	; 0x37
    2ea2:	98 ad       	ldd	r25, Y+56	; 0x38
    2ea4:	20 e0       	ldi	r18, 0x00	; 0
    2ea6:	30 e0       	ldi	r19, 0x00	; 0
    2ea8:	4a e7       	ldi	r20, 0x7A	; 122
    2eaa:	55 e4       	ldi	r21, 0x45	; 69
    2eac:	0e 94 9c 02 	call	0x538	; 0x538 <__mulsf3>
    2eb0:	dc 01       	movw	r26, r24
    2eb2:	cb 01       	movw	r24, r22
    2eb4:	89 ab       	std	Y+49, r24	; 0x31
    2eb6:	9a ab       	std	Y+50, r25	; 0x32
    2eb8:	ab ab       	std	Y+51, r26	; 0x33
    2eba:	bc ab       	std	Y+52, r27	; 0x34
	if (__tmp < 1.0)
    2ebc:	69 a9       	ldd	r22, Y+49	; 0x31
    2ebe:	7a a9       	ldd	r23, Y+50	; 0x32
    2ec0:	8b a9       	ldd	r24, Y+51	; 0x33
    2ec2:	9c a9       	ldd	r25, Y+52	; 0x34
    2ec4:	20 e0       	ldi	r18, 0x00	; 0
    2ec6:	30 e0       	ldi	r19, 0x00	; 0
    2ec8:	40 e8       	ldi	r20, 0x80	; 128
    2eca:	5f e3       	ldi	r21, 0x3F	; 63
    2ecc:	0e 94 a2 04 	call	0x944	; 0x944 <__ltsf2>
    2ed0:	88 23       	and	r24, r24
    2ed2:	2c f4       	brge	.+10     	; 0x2ede <AdminLogin+0x4da>
		__ticks = 1;
    2ed4:	81 e0       	ldi	r24, 0x01	; 1
    2ed6:	90 e0       	ldi	r25, 0x00	; 0
    2ed8:	98 ab       	std	Y+48, r25	; 0x30
    2eda:	8f a7       	std	Y+47, r24	; 0x2f
    2edc:	3f c0       	rjmp	.+126    	; 0x2f5c <AdminLogin+0x558>
	else if (__tmp > 65535)
    2ede:	69 a9       	ldd	r22, Y+49	; 0x31
    2ee0:	7a a9       	ldd	r23, Y+50	; 0x32
    2ee2:	8b a9       	ldd	r24, Y+51	; 0x33
    2ee4:	9c a9       	ldd	r25, Y+52	; 0x34
    2ee6:	20 e0       	ldi	r18, 0x00	; 0
    2ee8:	3f ef       	ldi	r19, 0xFF	; 255
    2eea:	4f e7       	ldi	r20, 0x7F	; 127
    2eec:	57 e4       	ldi	r21, 0x47	; 71
    2eee:	0e 94 42 04 	call	0x884	; 0x884 <__gtsf2>
    2ef2:	18 16       	cp	r1, r24
    2ef4:	4c f5       	brge	.+82     	; 0x2f48 <AdminLogin+0x544>
	{
		//	__ticks = requested delay in 1/10 ms
		__ticks = (uint16_t) (__ms * 10.0);
    2ef6:	6d a9       	ldd	r22, Y+53	; 0x35
    2ef8:	7e a9       	ldd	r23, Y+54	; 0x36
    2efa:	8f a9       	ldd	r24, Y+55	; 0x37
    2efc:	98 ad       	ldd	r25, Y+56	; 0x38
    2efe:	20 e0       	ldi	r18, 0x00	; 0
    2f00:	30 e0       	ldi	r19, 0x00	; 0
    2f02:	40 e2       	ldi	r20, 0x20	; 32
    2f04:	51 e4       	ldi	r21, 0x41	; 65
    2f06:	0e 94 9c 02 	call	0x538	; 0x538 <__mulsf3>
    2f0a:	dc 01       	movw	r26, r24
    2f0c:	cb 01       	movw	r24, r22
    2f0e:	bc 01       	movw	r22, r24
    2f10:	cd 01       	movw	r24, r26
    2f12:	0e 94 c6 00 	call	0x18c	; 0x18c <__fixunssfsi>
    2f16:	dc 01       	movw	r26, r24
    2f18:	cb 01       	movw	r24, r22
    2f1a:	98 ab       	std	Y+48, r25	; 0x30
    2f1c:	8f a7       	std	Y+47, r24	; 0x2f
    2f1e:	0f c0       	rjmp	.+30     	; 0x2f3e <AdminLogin+0x53a>
    2f20:	80 e9       	ldi	r24, 0x90	; 144
    2f22:	91 e0       	ldi	r25, 0x01	; 1
    2f24:	9e a7       	std	Y+46, r25	; 0x2e
    2f26:	8d a7       	std	Y+45, r24	; 0x2d
    2f28:	8d a5       	ldd	r24, Y+45	; 0x2d
    2f2a:	9e a5       	ldd	r25, Y+46	; 0x2e
    2f2c:	01 97       	sbiw	r24, 0x01	; 1
    2f2e:	f1 f7       	brne	.-4      	; 0x2f2c <AdminLogin+0x528>
    2f30:	9e a7       	std	Y+46, r25	; 0x2e
    2f32:	8d a7       	std	Y+45, r24	; 0x2d
		while(__ticks)
		{
			// wait 1/10 ms
			_delay_loop_2(((F_CPU) / 4e3) / 10);
			__ticks --;
    2f34:	8f a5       	ldd	r24, Y+47	; 0x2f
    2f36:	98 a9       	ldd	r25, Y+48	; 0x30
    2f38:	01 97       	sbiw	r24, 0x01	; 1
    2f3a:	98 ab       	std	Y+48, r25	; 0x30
    2f3c:	8f a7       	std	Y+47, r24	; 0x2f
		__ticks = 1;
	else if (__tmp > 65535)
	{
		//	__ticks = requested delay in 1/10 ms
		__ticks = (uint16_t) (__ms * 10.0);
		while(__ticks)
    2f3e:	8f a5       	ldd	r24, Y+47	; 0x2f
    2f40:	98 a9       	ldd	r25, Y+48	; 0x30
    2f42:	00 97       	sbiw	r24, 0x00	; 0
    2f44:	69 f7       	brne	.-38     	; 0x2f20 <AdminLogin+0x51c>
    2f46:	14 c0       	rjmp	.+40     	; 0x2f70 <AdminLogin+0x56c>
			__ticks --;
		}
		return;
	}
	else
		__ticks = (uint16_t)__tmp;
    2f48:	69 a9       	ldd	r22, Y+49	; 0x31
    2f4a:	7a a9       	ldd	r23, Y+50	; 0x32
    2f4c:	8b a9       	ldd	r24, Y+51	; 0x33
    2f4e:	9c a9       	ldd	r25, Y+52	; 0x34
    2f50:	0e 94 c6 00 	call	0x18c	; 0x18c <__fixunssfsi>
    2f54:	dc 01       	movw	r26, r24
    2f56:	cb 01       	movw	r24, r22
    2f58:	98 ab       	std	Y+48, r25	; 0x30
    2f5a:	8f a7       	std	Y+47, r24	; 0x2f
    2f5c:	8f a5       	ldd	r24, Y+47	; 0x2f
    2f5e:	98 a9       	ldd	r25, Y+48	; 0x30
    2f60:	9c a7       	std	Y+44, r25	; 0x2c
    2f62:	8b a7       	std	Y+43, r24	; 0x2b
    2f64:	8b a5       	ldd	r24, Y+43	; 0x2b
    2f66:	9c a5       	ldd	r25, Y+44	; 0x2c
    2f68:	01 97       	sbiw	r24, 0x01	; 1
    2f6a:	f1 f7       	brne	.-4      	; 0x2f68 <AdminLogin+0x564>
    2f6c:	9c a7       	std	Y+44, r25	; 0x2c
    2f6e:	8b a7       	std	Y+43, r24	; 0x2b
    _delay_ms(500);
    WrongEntry++;
    2f70:	de 01       	movw	r26, r28
    2f72:	ab 5a       	subi	r26, 0xAB	; 171
    2f74:	bf 4f       	sbci	r27, 0xFF	; 255
    2f76:	fe 01       	movw	r30, r28
    2f78:	eb 5a       	subi	r30, 0xAB	; 171
    2f7a:	ff 4f       	sbci	r31, 0xFF	; 255
    2f7c:	80 81       	ld	r24, Z
    2f7e:	8f 5f       	subi	r24, 0xFF	; 255
    2f80:	8c 93       	st	X, r24
    2f82:	99 c0       	rjmp	.+306    	; 0x30b6 <AdminLogin+0x6b2>
  }
  else if ((ValidUsername != 3) && (ValidPassword != 4))
    2f84:	fe 01       	movw	r30, r28
    2f86:	e7 5a       	subi	r30, 0xA7	; 167
    2f88:	ff 4f       	sbci	r31, 0xFF	; 255
    2f8a:	80 81       	ld	r24, Z
    2f8c:	83 30       	cpi	r24, 0x03	; 3
    2f8e:	09 f4       	brne	.+2      	; 0x2f92 <AdminLogin+0x58e>
    2f90:	92 c0       	rjmp	.+292    	; 0x30b6 <AdminLogin+0x6b2>
    2f92:	fe 01       	movw	r30, r28
    2f94:	e8 5a       	subi	r30, 0xA8	; 168
    2f96:	ff 4f       	sbci	r31, 0xFF	; 255
    2f98:	80 81       	ld	r24, Z
    2f9a:	84 30       	cpi	r24, 0x04	; 4
    2f9c:	09 f4       	brne	.+2      	; 0x2fa0 <AdminLogin+0x59c>
    2f9e:	8b c0       	rjmp	.+278    	; 0x30b6 <AdminLogin+0x6b2>
  {
    Lcd_vidDisplayStr("Invalid Username");
    2fa0:	88 e1       	ldi	r24, 0x18	; 24
    2fa2:	91 e0       	ldi	r25, 0x01	; 1
    2fa4:	0e 94 34 27 	call	0x4e68	; 0x4e68 <Lcd_vidDisplayStr>
    Lcd_vidRowColumn(1, 0);
    2fa8:	81 e0       	ldi	r24, 0x01	; 1
    2faa:	60 e0       	ldi	r22, 0x00	; 0
    2fac:	0e 94 0d 27 	call	0x4e1a	; 0x4e1a <Lcd_vidRowColumn>
    Lcd_vidDisplayStr("Invalid Password");
    2fb0:	82 eb       	ldi	r24, 0xB2	; 178
    2fb2:	91 e0       	ldi	r25, 0x01	; 1
    2fb4:	0e 94 34 27 	call	0x4e68	; 0x4e68 <Lcd_vidDisplayStr>
    2fb8:	80 e0       	ldi	r24, 0x00	; 0
    2fba:	90 e0       	ldi	r25, 0x00	; 0
    2fbc:	aa ef       	ldi	r26, 0xFA	; 250
    2fbe:	b3 e4       	ldi	r27, 0x43	; 67
    2fc0:	8f a3       	std	Y+39, r24	; 0x27
    2fc2:	98 a7       	std	Y+40, r25	; 0x28
    2fc4:	a9 a7       	std	Y+41, r26	; 0x29
    2fc6:	ba a7       	std	Y+42, r27	; 0x2a
 */
void
_delay_ms(double __ms)
{
	uint16_t __ticks;
	double __tmp = ((F_CPU) / 4e3) * __ms;
    2fc8:	6f a1       	ldd	r22, Y+39	; 0x27
    2fca:	78 a5       	ldd	r23, Y+40	; 0x28
    2fcc:	89 a5       	ldd	r24, Y+41	; 0x29
    2fce:	9a a5       	ldd	r25, Y+42	; 0x2a
    2fd0:	20 e0       	ldi	r18, 0x00	; 0
    2fd2:	30 e0       	ldi	r19, 0x00	; 0
    2fd4:	4a e7       	ldi	r20, 0x7A	; 122
    2fd6:	55 e4       	ldi	r21, 0x45	; 69
    2fd8:	0e 94 9c 02 	call	0x538	; 0x538 <__mulsf3>
    2fdc:	dc 01       	movw	r26, r24
    2fde:	cb 01       	movw	r24, r22
    2fe0:	8b a3       	std	Y+35, r24	; 0x23
    2fe2:	9c a3       	std	Y+36, r25	; 0x24
    2fe4:	ad a3       	std	Y+37, r26	; 0x25
    2fe6:	be a3       	std	Y+38, r27	; 0x26
	if (__tmp < 1.0)
    2fe8:	6b a1       	ldd	r22, Y+35	; 0x23
    2fea:	7c a1       	ldd	r23, Y+36	; 0x24
    2fec:	8d a1       	ldd	r24, Y+37	; 0x25
    2fee:	9e a1       	ldd	r25, Y+38	; 0x26
    2ff0:	20 e0       	ldi	r18, 0x00	; 0
    2ff2:	30 e0       	ldi	r19, 0x00	; 0
    2ff4:	40 e8       	ldi	r20, 0x80	; 128
    2ff6:	5f e3       	ldi	r21, 0x3F	; 63
    2ff8:	0e 94 a2 04 	call	0x944	; 0x944 <__ltsf2>
    2ffc:	88 23       	and	r24, r24
    2ffe:	2c f4       	brge	.+10     	; 0x300a <AdminLogin+0x606>
		__ticks = 1;
    3000:	81 e0       	ldi	r24, 0x01	; 1
    3002:	90 e0       	ldi	r25, 0x00	; 0
    3004:	9a a3       	std	Y+34, r25	; 0x22
    3006:	89 a3       	std	Y+33, r24	; 0x21
    3008:	3f c0       	rjmp	.+126    	; 0x3088 <AdminLogin+0x684>
	else if (__tmp > 65535)
    300a:	6b a1       	ldd	r22, Y+35	; 0x23
    300c:	7c a1       	ldd	r23, Y+36	; 0x24
    300e:	8d a1       	ldd	r24, Y+37	; 0x25
    3010:	9e a1       	ldd	r25, Y+38	; 0x26
    3012:	20 e0       	ldi	r18, 0x00	; 0
    3014:	3f ef       	ldi	r19, 0xFF	; 255
    3016:	4f e7       	ldi	r20, 0x7F	; 127
    3018:	57 e4       	ldi	r21, 0x47	; 71
    301a:	0e 94 42 04 	call	0x884	; 0x884 <__gtsf2>
    301e:	18 16       	cp	r1, r24
    3020:	4c f5       	brge	.+82     	; 0x3074 <AdminLogin+0x670>
	{
		//	__ticks = requested delay in 1/10 ms
		__ticks = (uint16_t) (__ms * 10.0);
    3022:	6f a1       	ldd	r22, Y+39	; 0x27
    3024:	78 a5       	ldd	r23, Y+40	; 0x28
    3026:	89 a5       	ldd	r24, Y+41	; 0x29
    3028:	9a a5       	ldd	r25, Y+42	; 0x2a
    302a:	20 e0       	ldi	r18, 0x00	; 0
    302c:	30 e0       	ldi	r19, 0x00	; 0
    302e:	40 e2       	ldi	r20, 0x20	; 32
    3030:	51 e4       	ldi	r21, 0x41	; 65
    3032:	0e 94 9c 02 	call	0x538	; 0x538 <__mulsf3>
    3036:	dc 01       	movw	r26, r24
    3038:	cb 01       	movw	r24, r22
    303a:	bc 01       	movw	r22, r24
    303c:	cd 01       	movw	r24, r26
    303e:	0e 94 c6 00 	call	0x18c	; 0x18c <__fixunssfsi>
    3042:	dc 01       	movw	r26, r24
    3044:	cb 01       	movw	r24, r22
    3046:	9a a3       	std	Y+34, r25	; 0x22
    3048:	89 a3       	std	Y+33, r24	; 0x21
    304a:	0f c0       	rjmp	.+30     	; 0x306a <AdminLogin+0x666>
    304c:	80 e9       	ldi	r24, 0x90	; 144
    304e:	91 e0       	ldi	r25, 0x01	; 1
    3050:	98 a3       	std	Y+32, r25	; 0x20
    3052:	8f 8f       	std	Y+31, r24	; 0x1f
    3054:	8f 8d       	ldd	r24, Y+31	; 0x1f
    3056:	98 a1       	ldd	r25, Y+32	; 0x20
    3058:	01 97       	sbiw	r24, 0x01	; 1
    305a:	f1 f7       	brne	.-4      	; 0x3058 <AdminLogin+0x654>
    305c:	98 a3       	std	Y+32, r25	; 0x20
    305e:	8f 8f       	std	Y+31, r24	; 0x1f
		while(__ticks)
		{
			// wait 1/10 ms
			_delay_loop_2(((F_CPU) / 4e3) / 10);
			__ticks --;
    3060:	89 a1       	ldd	r24, Y+33	; 0x21
    3062:	9a a1       	ldd	r25, Y+34	; 0x22
    3064:	01 97       	sbiw	r24, 0x01	; 1
    3066:	9a a3       	std	Y+34, r25	; 0x22
    3068:	89 a3       	std	Y+33, r24	; 0x21
		__ticks = 1;
	else if (__tmp > 65535)
	{
		//	__ticks = requested delay in 1/10 ms
		__ticks = (uint16_t) (__ms * 10.0);
		while(__ticks)
    306a:	89 a1       	ldd	r24, Y+33	; 0x21
    306c:	9a a1       	ldd	r25, Y+34	; 0x22
    306e:	00 97       	sbiw	r24, 0x00	; 0
    3070:	69 f7       	brne	.-38     	; 0x304c <AdminLogin+0x648>
    3072:	14 c0       	rjmp	.+40     	; 0x309c <AdminLogin+0x698>
			__ticks --;
		}
		return;
	}
	else
		__ticks = (uint16_t)__tmp;
    3074:	6b a1       	ldd	r22, Y+35	; 0x23
    3076:	7c a1       	ldd	r23, Y+36	; 0x24
    3078:	8d a1       	ldd	r24, Y+37	; 0x25
    307a:	9e a1       	ldd	r25, Y+38	; 0x26
    307c:	0e 94 c6 00 	call	0x18c	; 0x18c <__fixunssfsi>
    3080:	dc 01       	movw	r26, r24
    3082:	cb 01       	movw	r24, r22
    3084:	9a a3       	std	Y+34, r25	; 0x22
    3086:	89 a3       	std	Y+33, r24	; 0x21
    3088:	89 a1       	ldd	r24, Y+33	; 0x21
    308a:	9a a1       	ldd	r25, Y+34	; 0x22
    308c:	9e 8f       	std	Y+30, r25	; 0x1e
    308e:	8d 8f       	std	Y+29, r24	; 0x1d
    3090:	8d 8d       	ldd	r24, Y+29	; 0x1d
    3092:	9e 8d       	ldd	r25, Y+30	; 0x1e
    3094:	01 97       	sbiw	r24, 0x01	; 1
    3096:	f1 f7       	brne	.-4      	; 0x3094 <AdminLogin+0x690>
    3098:	9e 8f       	std	Y+30, r25	; 0x1e
    309a:	8d 8f       	std	Y+29, r24	; 0x1d
    _delay_ms(500);
    Hc05_SendString("Invalid Username & Password");
    309c:	83 ec       	ldi	r24, 0xC3	; 195
    309e:	91 e0       	ldi	r25, 0x01	; 1
    30a0:	0e 94 17 29 	call	0x522e	; 0x522e <Hc05_SendString>
    /*Print on LCD Invalid Username & Invalid Password*/
    WrongEntry++;
    30a4:	de 01       	movw	r26, r28
    30a6:	ab 5a       	subi	r26, 0xAB	; 171
    30a8:	bf 4f       	sbci	r27, 0xFF	; 255
    30aa:	fe 01       	movw	r30, r28
    30ac:	eb 5a       	subi	r30, 0xAB	; 171
    30ae:	ff 4f       	sbci	r31, 0xFF	; 255
    30b0:	80 81       	ld	r24, Z
    30b2:	8f 5f       	subi	r24, 0xFF	; 255
    30b4:	8c 93       	st	X, r24
    30b6:	80 e0       	ldi	r24, 0x00	; 0
    30b8:	90 e0       	ldi	r25, 0x00	; 0
    30ba:	a6 e9       	ldi	r26, 0x96	; 150
    30bc:	b3 e4       	ldi	r27, 0x43	; 67
    30be:	89 8f       	std	Y+25, r24	; 0x19
    30c0:	9a 8f       	std	Y+26, r25	; 0x1a
    30c2:	ab 8f       	std	Y+27, r26	; 0x1b
    30c4:	bc 8f       	std	Y+28, r27	; 0x1c
 */
void
_delay_ms(double __ms)
{
	uint16_t __ticks;
	double __tmp = ((F_CPU) / 4e3) * __ms;
    30c6:	69 8d       	ldd	r22, Y+25	; 0x19
    30c8:	7a 8d       	ldd	r23, Y+26	; 0x1a
    30ca:	8b 8d       	ldd	r24, Y+27	; 0x1b
    30cc:	9c 8d       	ldd	r25, Y+28	; 0x1c
    30ce:	20 e0       	ldi	r18, 0x00	; 0
    30d0:	30 e0       	ldi	r19, 0x00	; 0
    30d2:	4a e7       	ldi	r20, 0x7A	; 122
    30d4:	55 e4       	ldi	r21, 0x45	; 69
    30d6:	0e 94 9c 02 	call	0x538	; 0x538 <__mulsf3>
    30da:	dc 01       	movw	r26, r24
    30dc:	cb 01       	movw	r24, r22
    30de:	8d 8b       	std	Y+21, r24	; 0x15
    30e0:	9e 8b       	std	Y+22, r25	; 0x16
    30e2:	af 8b       	std	Y+23, r26	; 0x17
    30e4:	b8 8f       	std	Y+24, r27	; 0x18
	if (__tmp < 1.0)
    30e6:	6d 89       	ldd	r22, Y+21	; 0x15
    30e8:	7e 89       	ldd	r23, Y+22	; 0x16
    30ea:	8f 89       	ldd	r24, Y+23	; 0x17
    30ec:	98 8d       	ldd	r25, Y+24	; 0x18
    30ee:	20 e0       	ldi	r18, 0x00	; 0
    30f0:	30 e0       	ldi	r19, 0x00	; 0
    30f2:	40 e8       	ldi	r20, 0x80	; 128
    30f4:	5f e3       	ldi	r21, 0x3F	; 63
    30f6:	0e 94 a2 04 	call	0x944	; 0x944 <__ltsf2>
    30fa:	88 23       	and	r24, r24
    30fc:	2c f4       	brge	.+10     	; 0x3108 <AdminLogin+0x704>
		__ticks = 1;
    30fe:	81 e0       	ldi	r24, 0x01	; 1
    3100:	90 e0       	ldi	r25, 0x00	; 0
    3102:	9c 8b       	std	Y+20, r25	; 0x14
    3104:	8b 8b       	std	Y+19, r24	; 0x13
    3106:	3f c0       	rjmp	.+126    	; 0x3186 <AdminLogin+0x782>
	else if (__tmp > 65535)
    3108:	6d 89       	ldd	r22, Y+21	; 0x15
    310a:	7e 89       	ldd	r23, Y+22	; 0x16
    310c:	8f 89       	ldd	r24, Y+23	; 0x17
    310e:	98 8d       	ldd	r25, Y+24	; 0x18
    3110:	20 e0       	ldi	r18, 0x00	; 0
    3112:	3f ef       	ldi	r19, 0xFF	; 255
    3114:	4f e7       	ldi	r20, 0x7F	; 127
    3116:	57 e4       	ldi	r21, 0x47	; 71
    3118:	0e 94 42 04 	call	0x884	; 0x884 <__gtsf2>
    311c:	18 16       	cp	r1, r24
    311e:	4c f5       	brge	.+82     	; 0x3172 <AdminLogin+0x76e>
	{
		//	__ticks = requested delay in 1/10 ms
		__ticks = (uint16_t) (__ms * 10.0);
    3120:	69 8d       	ldd	r22, Y+25	; 0x19
    3122:	7a 8d       	ldd	r23, Y+26	; 0x1a
    3124:	8b 8d       	ldd	r24, Y+27	; 0x1b
    3126:	9c 8d       	ldd	r25, Y+28	; 0x1c
    3128:	20 e0       	ldi	r18, 0x00	; 0
    312a:	30 e0       	ldi	r19, 0x00	; 0
    312c:	40 e2       	ldi	r20, 0x20	; 32
    312e:	51 e4       	ldi	r21, 0x41	; 65
    3130:	0e 94 9c 02 	call	0x538	; 0x538 <__mulsf3>
    3134:	dc 01       	movw	r26, r24
    3136:	cb 01       	movw	r24, r22
    3138:	bc 01       	movw	r22, r24
    313a:	cd 01       	movw	r24, r26
    313c:	0e 94 c6 00 	call	0x18c	; 0x18c <__fixunssfsi>
    3140:	dc 01       	movw	r26, r24
    3142:	cb 01       	movw	r24, r22
    3144:	9c 8b       	std	Y+20, r25	; 0x14
    3146:	8b 8b       	std	Y+19, r24	; 0x13
    3148:	0f c0       	rjmp	.+30     	; 0x3168 <AdminLogin+0x764>
    314a:	80 e9       	ldi	r24, 0x90	; 144
    314c:	91 e0       	ldi	r25, 0x01	; 1
    314e:	9a 8b       	std	Y+18, r25	; 0x12
    3150:	89 8b       	std	Y+17, r24	; 0x11
    3152:	89 89       	ldd	r24, Y+17	; 0x11
    3154:	9a 89       	ldd	r25, Y+18	; 0x12
    3156:	01 97       	sbiw	r24, 0x01	; 1
    3158:	f1 f7       	brne	.-4      	; 0x3156 <AdminLogin+0x752>
    315a:	9a 8b       	std	Y+18, r25	; 0x12
    315c:	89 8b       	std	Y+17, r24	; 0x11
		while(__ticks)
		{
			// wait 1/10 ms
			_delay_loop_2(((F_CPU) / 4e3) / 10);
			__ticks --;
    315e:	8b 89       	ldd	r24, Y+19	; 0x13
    3160:	9c 89       	ldd	r25, Y+20	; 0x14
    3162:	01 97       	sbiw	r24, 0x01	; 1
    3164:	9c 8b       	std	Y+20, r25	; 0x14
    3166:	8b 8b       	std	Y+19, r24	; 0x13
		__ticks = 1;
	else if (__tmp > 65535)
	{
		//	__ticks = requested delay in 1/10 ms
		__ticks = (uint16_t) (__ms * 10.0);
		while(__ticks)
    3168:	8b 89       	ldd	r24, Y+19	; 0x13
    316a:	9c 89       	ldd	r25, Y+20	; 0x14
    316c:	00 97       	sbiw	r24, 0x00	; 0
    316e:	69 f7       	brne	.-38     	; 0x314a <AdminLogin+0x746>
    3170:	14 c0       	rjmp	.+40     	; 0x319a <AdminLogin+0x796>
			__ticks --;
		}
		return;
	}
	else
		__ticks = (uint16_t)__tmp;
    3172:	6d 89       	ldd	r22, Y+21	; 0x15
    3174:	7e 89       	ldd	r23, Y+22	; 0x16
    3176:	8f 89       	ldd	r24, Y+23	; 0x17
    3178:	98 8d       	ldd	r25, Y+24	; 0x18
    317a:	0e 94 c6 00 	call	0x18c	; 0x18c <__fixunssfsi>
    317e:	dc 01       	movw	r26, r24
    3180:	cb 01       	movw	r24, r22
    3182:	9c 8b       	std	Y+20, r25	; 0x14
    3184:	8b 8b       	std	Y+19, r24	; 0x13
    3186:	8b 89       	ldd	r24, Y+19	; 0x13
    3188:	9c 89       	ldd	r25, Y+20	; 0x14
    318a:	98 8b       	std	Y+16, r25	; 0x10
    318c:	8f 87       	std	Y+15, r24	; 0x0f
    318e:	8f 85       	ldd	r24, Y+15	; 0x0f
    3190:	98 89       	ldd	r25, Y+16	; 0x10
    3192:	01 97       	sbiw	r24, 0x01	; 1
    3194:	f1 f7       	brne	.-4      	; 0x3192 <AdminLogin+0x78e>
    3196:	98 8b       	std	Y+16, r25	; 0x10
    3198:	8f 87       	std	Y+15, r24	; 0x0f
  else
  {
    /*Do Nothing*/
  }
  _delay_ms(300);
  Lcd_vidCmd(_LCD_CLEAR);
    319a:	81 e0       	ldi	r24, 0x01	; 1
    319c:	0e 94 e6 26 	call	0x4dcc	; 0x4dcc <Lcd_vidCmd>
    31a0:	80 e0       	ldi	r24, 0x00	; 0
    31a2:	90 e0       	ldi	r25, 0x00	; 0
    31a4:	a6 e9       	ldi	r26, 0x96	; 150
    31a6:	b3 e4       	ldi	r27, 0x43	; 67
    31a8:	8b 87       	std	Y+11, r24	; 0x0b
    31aa:	9c 87       	std	Y+12, r25	; 0x0c
    31ac:	ad 87       	std	Y+13, r26	; 0x0d
    31ae:	be 87       	std	Y+14, r27	; 0x0e
 */
void
_delay_ms(double __ms)
{
	uint16_t __ticks;
	double __tmp = ((F_CPU) / 4e3) * __ms;
    31b0:	6b 85       	ldd	r22, Y+11	; 0x0b
    31b2:	7c 85       	ldd	r23, Y+12	; 0x0c
    31b4:	8d 85       	ldd	r24, Y+13	; 0x0d
    31b6:	9e 85       	ldd	r25, Y+14	; 0x0e
    31b8:	20 e0       	ldi	r18, 0x00	; 0
    31ba:	30 e0       	ldi	r19, 0x00	; 0
    31bc:	4a e7       	ldi	r20, 0x7A	; 122
    31be:	55 e4       	ldi	r21, 0x45	; 69
    31c0:	0e 94 9c 02 	call	0x538	; 0x538 <__mulsf3>
    31c4:	dc 01       	movw	r26, r24
    31c6:	cb 01       	movw	r24, r22
    31c8:	8f 83       	std	Y+7, r24	; 0x07
    31ca:	98 87       	std	Y+8, r25	; 0x08
    31cc:	a9 87       	std	Y+9, r26	; 0x09
    31ce:	ba 87       	std	Y+10, r27	; 0x0a
	if (__tmp < 1.0)
    31d0:	6f 81       	ldd	r22, Y+7	; 0x07
    31d2:	78 85       	ldd	r23, Y+8	; 0x08
    31d4:	89 85       	ldd	r24, Y+9	; 0x09
    31d6:	9a 85       	ldd	r25, Y+10	; 0x0a
    31d8:	20 e0       	ldi	r18, 0x00	; 0
    31da:	30 e0       	ldi	r19, 0x00	; 0
    31dc:	40 e8       	ldi	r20, 0x80	; 128
    31de:	5f e3       	ldi	r21, 0x3F	; 63
    31e0:	0e 94 a2 04 	call	0x944	; 0x944 <__ltsf2>
    31e4:	88 23       	and	r24, r24
    31e6:	2c f4       	brge	.+10     	; 0x31f2 <AdminLogin+0x7ee>
		__ticks = 1;
    31e8:	81 e0       	ldi	r24, 0x01	; 1
    31ea:	90 e0       	ldi	r25, 0x00	; 0
    31ec:	9e 83       	std	Y+6, r25	; 0x06
    31ee:	8d 83       	std	Y+5, r24	; 0x05
    31f0:	3f c0       	rjmp	.+126    	; 0x3270 <AdminLogin+0x86c>
	else if (__tmp > 65535)
    31f2:	6f 81       	ldd	r22, Y+7	; 0x07
    31f4:	78 85       	ldd	r23, Y+8	; 0x08
    31f6:	89 85       	ldd	r24, Y+9	; 0x09
    31f8:	9a 85       	ldd	r25, Y+10	; 0x0a
    31fa:	20 e0       	ldi	r18, 0x00	; 0
    31fc:	3f ef       	ldi	r19, 0xFF	; 255
    31fe:	4f e7       	ldi	r20, 0x7F	; 127
    3200:	57 e4       	ldi	r21, 0x47	; 71
    3202:	0e 94 42 04 	call	0x884	; 0x884 <__gtsf2>
    3206:	18 16       	cp	r1, r24
    3208:	4c f5       	brge	.+82     	; 0x325c <AdminLogin+0x858>
	{
		//	__ticks = requested delay in 1/10 ms
		__ticks = (uint16_t) (__ms * 10.0);
    320a:	6b 85       	ldd	r22, Y+11	; 0x0b
    320c:	7c 85       	ldd	r23, Y+12	; 0x0c
    320e:	8d 85       	ldd	r24, Y+13	; 0x0d
    3210:	9e 85       	ldd	r25, Y+14	; 0x0e
    3212:	20 e0       	ldi	r18, 0x00	; 0
    3214:	30 e0       	ldi	r19, 0x00	; 0
    3216:	40 e2       	ldi	r20, 0x20	; 32
    3218:	51 e4       	ldi	r21, 0x41	; 65
    321a:	0e 94 9c 02 	call	0x538	; 0x538 <__mulsf3>
    321e:	dc 01       	movw	r26, r24
    3220:	cb 01       	movw	r24, r22
    3222:	bc 01       	movw	r22, r24
    3224:	cd 01       	movw	r24, r26
    3226:	0e 94 c6 00 	call	0x18c	; 0x18c <__fixunssfsi>
    322a:	dc 01       	movw	r26, r24
    322c:	cb 01       	movw	r24, r22
    322e:	9e 83       	std	Y+6, r25	; 0x06
    3230:	8d 83       	std	Y+5, r24	; 0x05
    3232:	0f c0       	rjmp	.+30     	; 0x3252 <AdminLogin+0x84e>
    3234:	80 e9       	ldi	r24, 0x90	; 144
    3236:	91 e0       	ldi	r25, 0x01	; 1
    3238:	9c 83       	std	Y+4, r25	; 0x04
    323a:	8b 83       	std	Y+3, r24	; 0x03
    323c:	8b 81       	ldd	r24, Y+3	; 0x03
    323e:	9c 81       	ldd	r25, Y+4	; 0x04
    3240:	01 97       	sbiw	r24, 0x01	; 1
    3242:	f1 f7       	brne	.-4      	; 0x3240 <AdminLogin+0x83c>
    3244:	9c 83       	std	Y+4, r25	; 0x04
    3246:	8b 83       	std	Y+3, r24	; 0x03
		while(__ticks)
		{
			// wait 1/10 ms
			_delay_loop_2(((F_CPU) / 4e3) / 10);
			__ticks --;
    3248:	8d 81       	ldd	r24, Y+5	; 0x05
    324a:	9e 81       	ldd	r25, Y+6	; 0x06
    324c:	01 97       	sbiw	r24, 0x01	; 1
    324e:	9e 83       	std	Y+6, r25	; 0x06
    3250:	8d 83       	std	Y+5, r24	; 0x05
		__ticks = 1;
	else if (__tmp > 65535)
	{
		//	__ticks = requested delay in 1/10 ms
		__ticks = (uint16_t) (__ms * 10.0);
		while(__ticks)
    3252:	8d 81       	ldd	r24, Y+5	; 0x05
    3254:	9e 81       	ldd	r25, Y+6	; 0x06
    3256:	00 97       	sbiw	r24, 0x00	; 0
    3258:	69 f7       	brne	.-38     	; 0x3234 <AdminLogin+0x830>
    325a:	14 c0       	rjmp	.+40     	; 0x3284 <AdminLogin+0x880>
			__ticks --;
		}
		return;
	}
	else
		__ticks = (uint16_t)__tmp;
    325c:	6f 81       	ldd	r22, Y+7	; 0x07
    325e:	78 85       	ldd	r23, Y+8	; 0x08
    3260:	89 85       	ldd	r24, Y+9	; 0x09
    3262:	9a 85       	ldd	r25, Y+10	; 0x0a
    3264:	0e 94 c6 00 	call	0x18c	; 0x18c <__fixunssfsi>
    3268:	dc 01       	movw	r26, r24
    326a:	cb 01       	movw	r24, r22
    326c:	9e 83       	std	Y+6, r25	; 0x06
    326e:	8d 83       	std	Y+5, r24	; 0x05
    3270:	8d 81       	ldd	r24, Y+5	; 0x05
    3272:	9e 81       	ldd	r25, Y+6	; 0x06
    3274:	9a 83       	std	Y+2, r25	; 0x02
    3276:	89 83       	std	Y+1, r24	; 0x01
    3278:	89 81       	ldd	r24, Y+1	; 0x01
    327a:	9a 81       	ldd	r25, Y+2	; 0x02
    327c:	01 97       	sbiw	r24, 0x01	; 1
    327e:	f1 f7       	brne	.-4      	; 0x327c <AdminLogin+0x878>
    3280:	9a 83       	std	Y+2, r25	; 0x02
    3282:	89 83       	std	Y+1, r24	; 0x01
  _delay_ms(300);
  return WrongEntry;
    3284:	fe 01       	movw	r30, r28
    3286:	eb 5a       	subi	r30, 0xAB	; 171
    3288:	ff 4f       	sbci	r31, 0xFF	; 255
    328a:	80 81       	ld	r24, Z
}
    328c:	c2 5a       	subi	r28, 0xA2	; 162
    328e:	df 4f       	sbci	r29, 0xFF	; 255
    3290:	0f b6       	in	r0, 0x3f	; 63
    3292:	f8 94       	cli
    3294:	de bf       	out	0x3e, r29	; 62
    3296:	0f be       	out	0x3f, r0	; 63
    3298:	cd bf       	out	0x3d, r28	; 61
    329a:	cf 91       	pop	r28
    329c:	df 91       	pop	r29
    329e:	1f 91       	pop	r17
    32a0:	0f 91       	pop	r16
    32a2:	08 95       	ret

000032a4 <UserLogin>:

u8 UserLogin (u8* ID, u8* Password)
{
    32a4:	df 93       	push	r29
    32a6:	cf 93       	push	r28
    32a8:	cd b7       	in	r28, 0x3d	; 61
    32aa:	de b7       	in	r29, 0x3e	; 62
    32ac:	a9 97       	sbiw	r28, 0x29	; 41
    32ae:	0f b6       	in	r0, 0x3f	; 63
    32b0:	f8 94       	cli
    32b2:	de bf       	out	0x3e, r29	; 62
    32b4:	0f be       	out	0x3f, r0	; 63
    32b6:	cd bf       	out	0x3d, r28	; 61
    32b8:	9f a3       	std	Y+39, r25	; 0x27
    32ba:	8e a3       	std	Y+38, r24	; 0x26
    32bc:	79 a7       	std	Y+41, r23	; 0x29
    32be:	68 a7       	std	Y+40, r22	; 0x28
  u8 NumberOfUsers = EEPROM_Read(100);
    32c0:	84 e6       	ldi	r24, 0x64	; 100
    32c2:	90 e0       	ldi	r25, 0x00	; 0
    32c4:	0e 94 26 2f 	call	0x5e4c	; 0x5e4c <EEPROM_Read>
    32c8:	8d a3       	std	Y+37, r24	; 0x25
  u8 UserLocation = 0, ValidUsername = 0, ValidPassword = 0, Counter = 0, EEPROMData = 0, WrongEntry = 0, EEPROMDataLocation = 0;
    32ca:	1c a2       	std	Y+36, r1	; 0x24
    32cc:	1b a2       	std	Y+35, r1	; 0x23
    32ce:	1a a2       	std	Y+34, r1	; 0x22
    32d0:	19 a2       	std	Y+33, r1	; 0x21
    32d2:	18 a2       	std	Y+32, r1	; 0x20
    32d4:	1f 8e       	std	Y+31, r1	; 0x1f
    32d6:	1e 8e       	std	Y+30, r1	; 0x1e
  if (NumberOfUsers > 0)
    32d8:	8d a1       	ldd	r24, Y+37	; 0x25
    32da:	88 23       	and	r24, r24
    32dc:	09 f4       	brne	.+2      	; 0x32e0 <UserLogin+0x3c>
    32de:	fb c0       	rjmp	.+502    	; 0x34d6 <UserLogin+0x232>
    32e0:	5d c0       	rjmp	.+186    	; 0x339c <UserLogin+0xf8>
  {
    for (; Counter < NumberOfUsers; Counter++)
    {
      ValidPassword = 0;
    32e2:	1a a2       	std	Y+34, r1	; 0x22
      ValidUsername = 0;
    32e4:	1b a2       	std	Y+35, r1	; 0x23
      UserLocation = Counter * 7;
    32e6:	89 a1       	ldd	r24, Y+33	; 0x21
    32e8:	28 2f       	mov	r18, r24
    32ea:	30 e0       	ldi	r19, 0x00	; 0
    32ec:	c9 01       	movw	r24, r18
    32ee:	88 0f       	add	r24, r24
    32f0:	99 1f       	adc	r25, r25
    32f2:	88 0f       	add	r24, r24
    32f4:	99 1f       	adc	r25, r25
    32f6:	88 0f       	add	r24, r24
    32f8:	99 1f       	adc	r25, r25
    32fa:	82 1b       	sub	r24, r18
    32fc:	93 0b       	sbc	r25, r19
    32fe:	8c a3       	std	Y+36, r24	; 0x24
      u8 Check = 0;
    3300:	1d 8e       	std	Y+29, r1	; 0x1d
    3302:	1c c0       	rjmp	.+56     	; 0x333c <UserLogin+0x98>

      for (; Check < 3; Check++)
      {
        EEPROMDataLocation = UserLocation + Check;
    3304:	9c a1       	ldd	r25, Y+36	; 0x24
    3306:	8d 8d       	ldd	r24, Y+29	; 0x1d
    3308:	89 0f       	add	r24, r25
    330a:	8e 8f       	std	Y+30, r24	; 0x1e
        EEPROMData = EEPROM_Read((EEPROMDataLocation));
    330c:	8e 8d       	ldd	r24, Y+30	; 0x1e
    330e:	88 2f       	mov	r24, r24
    3310:	90 e0       	ldi	r25, 0x00	; 0
    3312:	0e 94 26 2f 	call	0x5e4c	; 0x5e4c <EEPROM_Read>
    3316:	88 a3       	std	Y+32, r24	; 0x20
        if (ID[Check] == EEPROMData)
    3318:	8d 8d       	ldd	r24, Y+29	; 0x1d
    331a:	28 2f       	mov	r18, r24
    331c:	30 e0       	ldi	r19, 0x00	; 0
    331e:	8e a1       	ldd	r24, Y+38	; 0x26
    3320:	9f a1       	ldd	r25, Y+39	; 0x27
    3322:	fc 01       	movw	r30, r24
    3324:	e2 0f       	add	r30, r18
    3326:	f3 1f       	adc	r31, r19
    3328:	90 81       	ld	r25, Z
    332a:	88 a1       	ldd	r24, Y+32	; 0x20
    332c:	98 17       	cp	r25, r24
    332e:	19 f4       	brne	.+6      	; 0x3336 <UserLogin+0x92>
        {
          ValidUsername++;
    3330:	8b a1       	ldd	r24, Y+35	; 0x23
    3332:	8f 5f       	subi	r24, 0xFF	; 255
    3334:	8b a3       	std	Y+35, r24	; 0x23
      ValidPassword = 0;
      ValidUsername = 0;
      UserLocation = Counter * 7;
      u8 Check = 0;

      for (; Check < 3; Check++)
    3336:	8d 8d       	ldd	r24, Y+29	; 0x1d
    3338:	8f 5f       	subi	r24, 0xFF	; 255
    333a:	8d 8f       	std	Y+29, r24	; 0x1d
    333c:	8d 8d       	ldd	r24, Y+29	; 0x1d
    333e:	83 30       	cpi	r24, 0x03	; 3
    3340:	08 f3       	brcs	.-62     	; 0x3304 <UserLogin+0x60>
          ValidUsername++;
        }

      }

      for (Check = 0; Check < 4; Check++)
    3342:	1d 8e       	std	Y+29, r1	; 0x1d
    3344:	1d c0       	rjmp	.+58     	; 0x3380 <UserLogin+0xdc>
      {
        EEPROMDataLocation = UserLocation + Check + 3;
    3346:	9c a1       	ldd	r25, Y+36	; 0x24
    3348:	8d 8d       	ldd	r24, Y+29	; 0x1d
    334a:	89 0f       	add	r24, r25
    334c:	8d 5f       	subi	r24, 0xFD	; 253
    334e:	8e 8f       	std	Y+30, r24	; 0x1e
        EEPROMData = EEPROM_Read( (EEPROMDataLocation));
    3350:	8e 8d       	ldd	r24, Y+30	; 0x1e
    3352:	88 2f       	mov	r24, r24
    3354:	90 e0       	ldi	r25, 0x00	; 0
    3356:	0e 94 26 2f 	call	0x5e4c	; 0x5e4c <EEPROM_Read>
    335a:	88 a3       	std	Y+32, r24	; 0x20
        if (Password[Check] == EEPROMData)
    335c:	8d 8d       	ldd	r24, Y+29	; 0x1d
    335e:	28 2f       	mov	r18, r24
    3360:	30 e0       	ldi	r19, 0x00	; 0
    3362:	88 a5       	ldd	r24, Y+40	; 0x28
    3364:	99 a5       	ldd	r25, Y+41	; 0x29
    3366:	fc 01       	movw	r30, r24
    3368:	e2 0f       	add	r30, r18
    336a:	f3 1f       	adc	r31, r19
    336c:	90 81       	ld	r25, Z
    336e:	88 a1       	ldd	r24, Y+32	; 0x20
    3370:	98 17       	cp	r25, r24
    3372:	19 f4       	brne	.+6      	; 0x337a <UserLogin+0xd6>
        {
          ValidPassword++;
    3374:	8a a1       	ldd	r24, Y+34	; 0x22
    3376:	8f 5f       	subi	r24, 0xFF	; 255
    3378:	8a a3       	std	Y+34, r24	; 0x22
          ValidUsername++;
        }

      }

      for (Check = 0; Check < 4; Check++)
    337a:	8d 8d       	ldd	r24, Y+29	; 0x1d
    337c:	8f 5f       	subi	r24, 0xFF	; 255
    337e:	8d 8f       	std	Y+29, r24	; 0x1d
    3380:	8d 8d       	ldd	r24, Y+29	; 0x1d
    3382:	84 30       	cpi	r24, 0x04	; 4
    3384:	00 f3       	brcs	.-64     	; 0x3346 <UserLogin+0xa2>
          ValidPassword++;
        }

      }

      if (ValidUsername == 3 && ValidPassword == 4)
    3386:	8b a1       	ldd	r24, Y+35	; 0x23
    3388:	83 30       	cpi	r24, 0x03	; 3
    338a:	19 f4       	brne	.+6      	; 0x3392 <UserLogin+0xee>
    338c:	8a a1       	ldd	r24, Y+34	; 0x22
    338e:	84 30       	cpi	r24, 0x04	; 4
    3390:	51 f0       	breq	.+20     	; 0x33a6 <UserLogin+0x102>
      {
        break;
      }
      else
      {
        ValidUsername = 0;
    3392:	1b a2       	std	Y+35, r1	; 0x23
        ValidPassword = 0;
    3394:	1a a2       	std	Y+34, r1	; 0x22
{
  u8 NumberOfUsers = EEPROM_Read(100);
  u8 UserLocation = 0, ValidUsername = 0, ValidPassword = 0, Counter = 0, EEPROMData = 0, WrongEntry = 0, EEPROMDataLocation = 0;
  if (NumberOfUsers > 0)
  {
    for (; Counter < NumberOfUsers; Counter++)
    3396:	89 a1       	ldd	r24, Y+33	; 0x21
    3398:	8f 5f       	subi	r24, 0xFF	; 255
    339a:	89 a3       	std	Y+33, r24	; 0x21
    339c:	99 a1       	ldd	r25, Y+33	; 0x21
    339e:	8d a1       	ldd	r24, Y+37	; 0x25
    33a0:	98 17       	cp	r25, r24
    33a2:	08 f4       	brcc	.+2      	; 0x33a6 <UserLogin+0x102>
    33a4:	9e cf       	rjmp	.-196    	; 0x32e2 <UserLogin+0x3e>
      {
        ValidUsername = 0;
        ValidPassword = 0;
      }
    }
    if (ValidUsername == 3 && ValidPassword == 4)
    33a6:	8b a1       	ldd	r24, Y+35	; 0x23
    33a8:	83 30       	cpi	r24, 0x03	; 3
    33aa:	61 f4       	brne	.+24     	; 0x33c4 <UserLogin+0x120>
    33ac:	8a a1       	ldd	r24, Y+34	; 0x22
    33ae:	84 30       	cpi	r24, 0x04	; 4
    33b0:	49 f4       	brne	.+18     	; 0x33c4 <UserLogin+0x120>
    {
      /*print on LCD Login Successful*/
      Lcd_vidDisplayStr("Login Successful");
    33b2:	81 ea       	ldi	r24, 0xA1	; 161
    33b4:	91 e0       	ldi	r25, 0x01	; 1
    33b6:	0e 94 34 27 	call	0x4e68	; 0x4e68 <Lcd_vidDisplayStr>
      Hc05_SendString("Login Successful");
    33ba:	81 ea       	ldi	r24, 0xA1	; 161
    33bc:	91 e0       	ldi	r25, 0x01	; 1
    33be:	0e 94 17 29 	call	0x522e	; 0x522e <Hc05_SendString>
    33c2:	10 c1       	rjmp	.+544    	; 0x35e4 <UserLogin+0x340>
    }
    else
    {
      /*print on LCD Invalid Username Or Password*/
      Lcd_vidCmd(_LCD_CLEAR);
    33c4:	81 e0       	ldi	r24, 0x01	; 1
    33c6:	0e 94 e6 26 	call	0x4dcc	; 0x4dcc <Lcd_vidCmd>
      Lcd_vidDisplayStr("Invalid Username");
    33ca:	88 e1       	ldi	r24, 0x18	; 24
    33cc:	91 e0       	ldi	r25, 0x01	; 1
    33ce:	0e 94 34 27 	call	0x4e68	; 0x4e68 <Lcd_vidDisplayStr>
      Lcd_vidRowColumn(1, 0);
    33d2:	81 e0       	ldi	r24, 0x01	; 1
    33d4:	60 e0       	ldi	r22, 0x00	; 0
    33d6:	0e 94 0d 27 	call	0x4e1a	; 0x4e1a <Lcd_vidRowColumn>
      Lcd_vidDisplayStr("Or Password");
    33da:	8f ed       	ldi	r24, 0xDF	; 223
    33dc:	91 e0       	ldi	r25, 0x01	; 1
    33de:	0e 94 34 27 	call	0x4e68	; 0x4e68 <Lcd_vidDisplayStr>
      Hc05_SendString("Invalid Username Or Password");
    33e2:	8b ee       	ldi	r24, 0xEB	; 235
    33e4:	91 e0       	ldi	r25, 0x01	; 1
    33e6:	0e 94 17 29 	call	0x522e	; 0x522e <Hc05_SendString>
    33ea:	80 e0       	ldi	r24, 0x00	; 0
    33ec:	90 e0       	ldi	r25, 0x00	; 0
    33ee:	aa e7       	ldi	r26, 0x7A	; 122
    33f0:	b4 e4       	ldi	r27, 0x44	; 68
    33f2:	89 8f       	std	Y+25, r24	; 0x19
    33f4:	9a 8f       	std	Y+26, r25	; 0x1a
    33f6:	ab 8f       	std	Y+27, r26	; 0x1b
    33f8:	bc 8f       	std	Y+28, r27	; 0x1c
 */
void
_delay_ms(double __ms)
{
	uint16_t __ticks;
	double __tmp = ((F_CPU) / 4e3) * __ms;
    33fa:	69 8d       	ldd	r22, Y+25	; 0x19
    33fc:	7a 8d       	ldd	r23, Y+26	; 0x1a
    33fe:	8b 8d       	ldd	r24, Y+27	; 0x1b
    3400:	9c 8d       	ldd	r25, Y+28	; 0x1c
    3402:	20 e0       	ldi	r18, 0x00	; 0
    3404:	30 e0       	ldi	r19, 0x00	; 0
    3406:	4a e7       	ldi	r20, 0x7A	; 122
    3408:	55 e4       	ldi	r21, 0x45	; 69
    340a:	0e 94 9c 02 	call	0x538	; 0x538 <__mulsf3>
    340e:	dc 01       	movw	r26, r24
    3410:	cb 01       	movw	r24, r22
    3412:	8d 8b       	std	Y+21, r24	; 0x15
    3414:	9e 8b       	std	Y+22, r25	; 0x16
    3416:	af 8b       	std	Y+23, r26	; 0x17
    3418:	b8 8f       	std	Y+24, r27	; 0x18
	if (__tmp < 1.0)
    341a:	6d 89       	ldd	r22, Y+21	; 0x15
    341c:	7e 89       	ldd	r23, Y+22	; 0x16
    341e:	8f 89       	ldd	r24, Y+23	; 0x17
    3420:	98 8d       	ldd	r25, Y+24	; 0x18
    3422:	20 e0       	ldi	r18, 0x00	; 0
    3424:	30 e0       	ldi	r19, 0x00	; 0
    3426:	40 e8       	ldi	r20, 0x80	; 128
    3428:	5f e3       	ldi	r21, 0x3F	; 63
    342a:	0e 94 a2 04 	call	0x944	; 0x944 <__ltsf2>
    342e:	88 23       	and	r24, r24
    3430:	2c f4       	brge	.+10     	; 0x343c <UserLogin+0x198>
		__ticks = 1;
    3432:	81 e0       	ldi	r24, 0x01	; 1
    3434:	90 e0       	ldi	r25, 0x00	; 0
    3436:	9c 8b       	std	Y+20, r25	; 0x14
    3438:	8b 8b       	std	Y+19, r24	; 0x13
    343a:	3f c0       	rjmp	.+126    	; 0x34ba <UserLogin+0x216>
	else if (__tmp > 65535)
    343c:	6d 89       	ldd	r22, Y+21	; 0x15
    343e:	7e 89       	ldd	r23, Y+22	; 0x16
    3440:	8f 89       	ldd	r24, Y+23	; 0x17
    3442:	98 8d       	ldd	r25, Y+24	; 0x18
    3444:	20 e0       	ldi	r18, 0x00	; 0
    3446:	3f ef       	ldi	r19, 0xFF	; 255
    3448:	4f e7       	ldi	r20, 0x7F	; 127
    344a:	57 e4       	ldi	r21, 0x47	; 71
    344c:	0e 94 42 04 	call	0x884	; 0x884 <__gtsf2>
    3450:	18 16       	cp	r1, r24
    3452:	4c f5       	brge	.+82     	; 0x34a6 <UserLogin+0x202>
	{
		//	__ticks = requested delay in 1/10 ms
		__ticks = (uint16_t) (__ms * 10.0);
    3454:	69 8d       	ldd	r22, Y+25	; 0x19
    3456:	7a 8d       	ldd	r23, Y+26	; 0x1a
    3458:	8b 8d       	ldd	r24, Y+27	; 0x1b
    345a:	9c 8d       	ldd	r25, Y+28	; 0x1c
    345c:	20 e0       	ldi	r18, 0x00	; 0
    345e:	30 e0       	ldi	r19, 0x00	; 0
    3460:	40 e2       	ldi	r20, 0x20	; 32
    3462:	51 e4       	ldi	r21, 0x41	; 65
    3464:	0e 94 9c 02 	call	0x538	; 0x538 <__mulsf3>
    3468:	dc 01       	movw	r26, r24
    346a:	cb 01       	movw	r24, r22
    346c:	bc 01       	movw	r22, r24
    346e:	cd 01       	movw	r24, r26
    3470:	0e 94 c6 00 	call	0x18c	; 0x18c <__fixunssfsi>
    3474:	dc 01       	movw	r26, r24
    3476:	cb 01       	movw	r24, r22
    3478:	9c 8b       	std	Y+20, r25	; 0x14
    347a:	8b 8b       	std	Y+19, r24	; 0x13
    347c:	0f c0       	rjmp	.+30     	; 0x349c <UserLogin+0x1f8>
    347e:	80 e9       	ldi	r24, 0x90	; 144
    3480:	91 e0       	ldi	r25, 0x01	; 1
    3482:	9a 8b       	std	Y+18, r25	; 0x12
    3484:	89 8b       	std	Y+17, r24	; 0x11
    3486:	89 89       	ldd	r24, Y+17	; 0x11
    3488:	9a 89       	ldd	r25, Y+18	; 0x12
    348a:	01 97       	sbiw	r24, 0x01	; 1
    348c:	f1 f7       	brne	.-4      	; 0x348a <UserLogin+0x1e6>
    348e:	9a 8b       	std	Y+18, r25	; 0x12
    3490:	89 8b       	std	Y+17, r24	; 0x11
		while(__ticks)
		{
			// wait 1/10 ms
			_delay_loop_2(((F_CPU) / 4e3) / 10);
			__ticks --;
    3492:	8b 89       	ldd	r24, Y+19	; 0x13
    3494:	9c 89       	ldd	r25, Y+20	; 0x14
    3496:	01 97       	sbiw	r24, 0x01	; 1
    3498:	9c 8b       	std	Y+20, r25	; 0x14
    349a:	8b 8b       	std	Y+19, r24	; 0x13
		__ticks = 1;
	else if (__tmp > 65535)
	{
		//	__ticks = requested delay in 1/10 ms
		__ticks = (uint16_t) (__ms * 10.0);
		while(__ticks)
    349c:	8b 89       	ldd	r24, Y+19	; 0x13
    349e:	9c 89       	ldd	r25, Y+20	; 0x14
    34a0:	00 97       	sbiw	r24, 0x00	; 0
    34a2:	69 f7       	brne	.-38     	; 0x347e <UserLogin+0x1da>
    34a4:	14 c0       	rjmp	.+40     	; 0x34ce <UserLogin+0x22a>
			__ticks --;
		}
		return;
	}
	else
		__ticks = (uint16_t)__tmp;
    34a6:	6d 89       	ldd	r22, Y+21	; 0x15
    34a8:	7e 89       	ldd	r23, Y+22	; 0x16
    34aa:	8f 89       	ldd	r24, Y+23	; 0x17
    34ac:	98 8d       	ldd	r25, Y+24	; 0x18
    34ae:	0e 94 c6 00 	call	0x18c	; 0x18c <__fixunssfsi>
    34b2:	dc 01       	movw	r26, r24
    34b4:	cb 01       	movw	r24, r22
    34b6:	9c 8b       	std	Y+20, r25	; 0x14
    34b8:	8b 8b       	std	Y+19, r24	; 0x13
    34ba:	8b 89       	ldd	r24, Y+19	; 0x13
    34bc:	9c 89       	ldd	r25, Y+20	; 0x14
    34be:	98 8b       	std	Y+16, r25	; 0x10
    34c0:	8f 87       	std	Y+15, r24	; 0x0f
    34c2:	8f 85       	ldd	r24, Y+15	; 0x0f
    34c4:	98 89       	ldd	r25, Y+16	; 0x10
    34c6:	01 97       	sbiw	r24, 0x01	; 1
    34c8:	f1 f7       	brne	.-4      	; 0x34c6 <UserLogin+0x222>
    34ca:	98 8b       	std	Y+16, r25	; 0x10
    34cc:	8f 87       	std	Y+15, r24	; 0x0f
      _delay_ms(1000);
      WrongEntry++;
    34ce:	8f 8d       	ldd	r24, Y+31	; 0x1f
    34d0:	8f 5f       	subi	r24, 0xFF	; 255
    34d2:	8f 8f       	std	Y+31, r24	; 0x1f
    34d4:	87 c0       	rjmp	.+270    	; 0x35e4 <UserLogin+0x340>
    }
  }
  else
  {
    /*print on LCD There is no users added yet*/
	Lcd_vidCmd(_LCD_CLEAR);
    34d6:	81 e0       	ldi	r24, 0x01	; 1
    34d8:	0e 94 e6 26 	call	0x4dcc	; 0x4dcc <Lcd_vidCmd>
    Lcd_vidDisplayStr("There is no users");
    34dc:	88 e0       	ldi	r24, 0x08	; 8
    34de:	92 e0       	ldi	r25, 0x02	; 2
    34e0:	0e 94 34 27 	call	0x4e68	; 0x4e68 <Lcd_vidDisplayStr>
    Lcd_vidRowColumn(1, 0);
    34e4:	81 e0       	ldi	r24, 0x01	; 1
    34e6:	60 e0       	ldi	r22, 0x00	; 0
    34e8:	0e 94 0d 27 	call	0x4e1a	; 0x4e1a <Lcd_vidRowColumn>
    Lcd_vidDisplayStr("added yet");
    34ec:	8a e1       	ldi	r24, 0x1A	; 26
    34ee:	92 e0       	ldi	r25, 0x02	; 2
    34f0:	0e 94 34 27 	call	0x4e68	; 0x4e68 <Lcd_vidDisplayStr>
    Hc05_SendString("There is no users added yet");
    34f4:	84 e2       	ldi	r24, 0x24	; 36
    34f6:	92 e0       	ldi	r25, 0x02	; 2
    34f8:	0e 94 17 29 	call	0x522e	; 0x522e <Hc05_SendString>
    34fc:	80 e0       	ldi	r24, 0x00	; 0
    34fe:	90 e0       	ldi	r25, 0x00	; 0
    3500:	aa e7       	ldi	r26, 0x7A	; 122
    3502:	b4 e4       	ldi	r27, 0x44	; 68
    3504:	8b 87       	std	Y+11, r24	; 0x0b
    3506:	9c 87       	std	Y+12, r25	; 0x0c
    3508:	ad 87       	std	Y+13, r26	; 0x0d
    350a:	be 87       	std	Y+14, r27	; 0x0e
 */
void
_delay_ms(double __ms)
{
	uint16_t __ticks;
	double __tmp = ((F_CPU) / 4e3) * __ms;
    350c:	6b 85       	ldd	r22, Y+11	; 0x0b
    350e:	7c 85       	ldd	r23, Y+12	; 0x0c
    3510:	8d 85       	ldd	r24, Y+13	; 0x0d
    3512:	9e 85       	ldd	r25, Y+14	; 0x0e
    3514:	20 e0       	ldi	r18, 0x00	; 0
    3516:	30 e0       	ldi	r19, 0x00	; 0
    3518:	4a e7       	ldi	r20, 0x7A	; 122
    351a:	55 e4       	ldi	r21, 0x45	; 69
    351c:	0e 94 9c 02 	call	0x538	; 0x538 <__mulsf3>
    3520:	dc 01       	movw	r26, r24
    3522:	cb 01       	movw	r24, r22
    3524:	8f 83       	std	Y+7, r24	; 0x07
    3526:	98 87       	std	Y+8, r25	; 0x08
    3528:	a9 87       	std	Y+9, r26	; 0x09
    352a:	ba 87       	std	Y+10, r27	; 0x0a
	if (__tmp < 1.0)
    352c:	6f 81       	ldd	r22, Y+7	; 0x07
    352e:	78 85       	ldd	r23, Y+8	; 0x08
    3530:	89 85       	ldd	r24, Y+9	; 0x09
    3532:	9a 85       	ldd	r25, Y+10	; 0x0a
    3534:	20 e0       	ldi	r18, 0x00	; 0
    3536:	30 e0       	ldi	r19, 0x00	; 0
    3538:	40 e8       	ldi	r20, 0x80	; 128
    353a:	5f e3       	ldi	r21, 0x3F	; 63
    353c:	0e 94 a2 04 	call	0x944	; 0x944 <__ltsf2>
    3540:	88 23       	and	r24, r24
    3542:	2c f4       	brge	.+10     	; 0x354e <UserLogin+0x2aa>
		__ticks = 1;
    3544:	81 e0       	ldi	r24, 0x01	; 1
    3546:	90 e0       	ldi	r25, 0x00	; 0
    3548:	9e 83       	std	Y+6, r25	; 0x06
    354a:	8d 83       	std	Y+5, r24	; 0x05
    354c:	3f c0       	rjmp	.+126    	; 0x35cc <UserLogin+0x328>
	else if (__tmp > 65535)
    354e:	6f 81       	ldd	r22, Y+7	; 0x07
    3550:	78 85       	ldd	r23, Y+8	; 0x08
    3552:	89 85       	ldd	r24, Y+9	; 0x09
    3554:	9a 85       	ldd	r25, Y+10	; 0x0a
    3556:	20 e0       	ldi	r18, 0x00	; 0
    3558:	3f ef       	ldi	r19, 0xFF	; 255
    355a:	4f e7       	ldi	r20, 0x7F	; 127
    355c:	57 e4       	ldi	r21, 0x47	; 71
    355e:	0e 94 42 04 	call	0x884	; 0x884 <__gtsf2>
    3562:	18 16       	cp	r1, r24
    3564:	4c f5       	brge	.+82     	; 0x35b8 <UserLogin+0x314>
	{
		//	__ticks = requested delay in 1/10 ms
		__ticks = (uint16_t) (__ms * 10.0);
    3566:	6b 85       	ldd	r22, Y+11	; 0x0b
    3568:	7c 85       	ldd	r23, Y+12	; 0x0c
    356a:	8d 85       	ldd	r24, Y+13	; 0x0d
    356c:	9e 85       	ldd	r25, Y+14	; 0x0e
    356e:	20 e0       	ldi	r18, 0x00	; 0
    3570:	30 e0       	ldi	r19, 0x00	; 0
    3572:	40 e2       	ldi	r20, 0x20	; 32
    3574:	51 e4       	ldi	r21, 0x41	; 65
    3576:	0e 94 9c 02 	call	0x538	; 0x538 <__mulsf3>
    357a:	dc 01       	movw	r26, r24
    357c:	cb 01       	movw	r24, r22
    357e:	bc 01       	movw	r22, r24
    3580:	cd 01       	movw	r24, r26
    3582:	0e 94 c6 00 	call	0x18c	; 0x18c <__fixunssfsi>
    3586:	dc 01       	movw	r26, r24
    3588:	cb 01       	movw	r24, r22
    358a:	9e 83       	std	Y+6, r25	; 0x06
    358c:	8d 83       	std	Y+5, r24	; 0x05
    358e:	0f c0       	rjmp	.+30     	; 0x35ae <UserLogin+0x30a>
    3590:	80 e9       	ldi	r24, 0x90	; 144
    3592:	91 e0       	ldi	r25, 0x01	; 1
    3594:	9c 83       	std	Y+4, r25	; 0x04
    3596:	8b 83       	std	Y+3, r24	; 0x03
    3598:	8b 81       	ldd	r24, Y+3	; 0x03
    359a:	9c 81       	ldd	r25, Y+4	; 0x04
    359c:	01 97       	sbiw	r24, 0x01	; 1
    359e:	f1 f7       	brne	.-4      	; 0x359c <UserLogin+0x2f8>
    35a0:	9c 83       	std	Y+4, r25	; 0x04
    35a2:	8b 83       	std	Y+3, r24	; 0x03
		while(__ticks)
		{
			// wait 1/10 ms
			_delay_loop_2(((F_CPU) / 4e3) / 10);
			__ticks --;
    35a4:	8d 81       	ldd	r24, Y+5	; 0x05
    35a6:	9e 81       	ldd	r25, Y+6	; 0x06
    35a8:	01 97       	sbiw	r24, 0x01	; 1
    35aa:	9e 83       	std	Y+6, r25	; 0x06
    35ac:	8d 83       	std	Y+5, r24	; 0x05
		__ticks = 1;
	else if (__tmp > 65535)
	{
		//	__ticks = requested delay in 1/10 ms
		__ticks = (uint16_t) (__ms * 10.0);
		while(__ticks)
    35ae:	8d 81       	ldd	r24, Y+5	; 0x05
    35b0:	9e 81       	ldd	r25, Y+6	; 0x06
    35b2:	00 97       	sbiw	r24, 0x00	; 0
    35b4:	69 f7       	brne	.-38     	; 0x3590 <UserLogin+0x2ec>
    35b6:	14 c0       	rjmp	.+40     	; 0x35e0 <UserLogin+0x33c>
			__ticks --;
		}
		return;
	}
	else
		__ticks = (uint16_t)__tmp;
    35b8:	6f 81       	ldd	r22, Y+7	; 0x07
    35ba:	78 85       	ldd	r23, Y+8	; 0x08
    35bc:	89 85       	ldd	r24, Y+9	; 0x09
    35be:	9a 85       	ldd	r25, Y+10	; 0x0a
    35c0:	0e 94 c6 00 	call	0x18c	; 0x18c <__fixunssfsi>
    35c4:	dc 01       	movw	r26, r24
    35c6:	cb 01       	movw	r24, r22
    35c8:	9e 83       	std	Y+6, r25	; 0x06
    35ca:	8d 83       	std	Y+5, r24	; 0x05
    35cc:	8d 81       	ldd	r24, Y+5	; 0x05
    35ce:	9e 81       	ldd	r25, Y+6	; 0x06
    35d0:	9a 83       	std	Y+2, r25	; 0x02
    35d2:	89 83       	std	Y+1, r24	; 0x01
    35d4:	89 81       	ldd	r24, Y+1	; 0x01
    35d6:	9a 81       	ldd	r25, Y+2	; 0x02
    35d8:	01 97       	sbiw	r24, 0x01	; 1
    35da:	f1 f7       	brne	.-4      	; 0x35d8 <UserLogin+0x334>
    35dc:	9a 83       	std	Y+2, r25	; 0x02
    35de:	89 83       	std	Y+1, r24	; 0x01
    _delay_ms(1000);
    WrongEntry = 2;
    35e0:	82 e0       	ldi	r24, 0x02	; 2
    35e2:	8f 8f       	std	Y+31, r24	; 0x1f
  }
  return WrongEntry;
    35e4:	8f 8d       	ldd	r24, Y+31	; 0x1f
}
    35e6:	a9 96       	adiw	r28, 0x29	; 41
    35e8:	0f b6       	in	r0, 0x3f	; 63
    35ea:	f8 94       	cli
    35ec:	de bf       	out	0x3e, r29	; 62
    35ee:	0f be       	out	0x3f, r0	; 63
    35f0:	cd bf       	out	0x3d, r28	; 61
    35f2:	cf 91       	pop	r28
    35f4:	df 91       	pop	r29
    35f6:	08 95       	ret

000035f8 <InputID>:
/************************************************************************/
/*Parameters input array to save in it the input from keypad      */
/*for the ID                              */
/************************************************************************/
void InputID (u8* ID, u8 Mode)
{
    35f8:	df 93       	push	r29
    35fa:	cf 93       	push	r28
    35fc:	cd b7       	in	r28, 0x3d	; 61
    35fe:	de b7       	in	r29, 0x3e	; 62
    3600:	a4 97       	sbiw	r28, 0x24	; 36
    3602:	0f b6       	in	r0, 0x3f	; 63
    3604:	f8 94       	cli
    3606:	de bf       	out	0x3e, r29	; 62
    3608:	0f be       	out	0x3f, r0	; 63
    360a:	cd bf       	out	0x3d, r28	; 61
    360c:	99 a3       	std	Y+33, r25	; 0x21
    360e:	88 a3       	std	Y+32, r24	; 0x20
    3610:	6a a3       	std	Y+34, r22	; 0x22
  u8  DigitsEntered = 0, KeyPressed = 0 , BluetoothData = 0;
    3612:	1f 8e       	std	Y+31, r1	; 0x1f
    3614:	1e 8e       	std	Y+30, r1	; 0x1e
    3616:	1d 8e       	std	Y+29, r1	; 0x1d
  switch (Mode)
    3618:	8a a1       	ldd	r24, Y+34	; 0x22
    361a:	28 2f       	mov	r18, r24
    361c:	30 e0       	ldi	r19, 0x00	; 0
    361e:	3c a3       	std	Y+36, r19	; 0x24
    3620:	2b a3       	std	Y+35, r18	; 0x23
    3622:	8b a1       	ldd	r24, Y+35	; 0x23
    3624:	9c a1       	ldd	r25, Y+36	; 0x24
    3626:	81 30       	cpi	r24, 0x01	; 1
    3628:	91 05       	cpc	r25, r1
    362a:	39 f0       	breq	.+14     	; 0x363a <InputID+0x42>
    362c:	2b a1       	ldd	r18, Y+35	; 0x23
    362e:	3c a1       	ldd	r19, Y+36	; 0x24
    3630:	22 30       	cpi	r18, 0x02	; 2
    3632:	31 05       	cpc	r19, r1
    3634:	09 f4       	brne	.+2      	; 0x3638 <InputID+0x40>
    3636:	a5 c0       	rjmp	.+330    	; 0x3782 <InputID+0x18a>
    3638:	3c c1       	rjmp	.+632    	; 0x38b2 <InputID+0x2ba>
  {
    case AdminMode:
      Lcd_vidCmd(_LCD_CLEAR);
    363a:	81 e0       	ldi	r24, 0x01	; 1
    363c:	0e 94 e6 26 	call	0x4dcc	; 0x4dcc <Lcd_vidCmd>
      Lcd_vidRowColumn(0, 0);
    3640:	80 e0       	ldi	r24, 0x00	; 0
    3642:	60 e0       	ldi	r22, 0x00	; 0
    3644:	0e 94 0d 27 	call	0x4e1a	; 0x4e1a <Lcd_vidRowColumn>
      Lcd_vidDisplayStr("Enter User ID");
    3648:	80 e4       	ldi	r24, 0x40	; 64
    364a:	92 e0       	ldi	r25, 0x02	; 2
    364c:	0e 94 34 27 	call	0x4e68	; 0x4e68 <Lcd_vidDisplayStr>
      Lcd_vidRowColumn(1, 0);
    3650:	81 e0       	ldi	r24, 0x01	; 1
    3652:	60 e0       	ldi	r22, 0x00	; 0
    3654:	0e 94 0d 27 	call	0x4e1a	; 0x4e1a <Lcd_vidRowColumn>
    3658:	1e c0       	rjmp	.+60     	; 0x3696 <InputID+0x9e>
      while (DigitsEntered < 3)
      {
        BluetoothData = Hc05_Rec();
    365a:	0e 94 bd 29 	call	0x537a	; 0x537a <Hc05_Rec>
    365e:	8d 8f       	std	Y+29, r24	; 0x1d
        if (BluetoothData)
    3660:	8d 8d       	ldd	r24, Y+29	; 0x1d
    3662:	88 23       	and	r24, r24
    3664:	c1 f0       	breq	.+48     	; 0x3696 <InputID+0x9e>
        {
          ID[DigitsEntered] = BluetoothData;
    3666:	8f 8d       	ldd	r24, Y+31	; 0x1f
    3668:	28 2f       	mov	r18, r24
    366a:	30 e0       	ldi	r19, 0x00	; 0
    366c:	88 a1       	ldd	r24, Y+32	; 0x20
    366e:	99 a1       	ldd	r25, Y+33	; 0x21
    3670:	fc 01       	movw	r30, r24
    3672:	e2 0f       	add	r30, r18
    3674:	f3 1f       	adc	r31, r19
    3676:	8d 8d       	ldd	r24, Y+29	; 0x1d
    3678:	80 83       	st	Z, r24
          Lcd_vidDisplayChar(ID[DigitsEntered]);
    367a:	8f 8d       	ldd	r24, Y+31	; 0x1f
    367c:	28 2f       	mov	r18, r24
    367e:	30 e0       	ldi	r19, 0x00	; 0
    3680:	88 a1       	ldd	r24, Y+32	; 0x20
    3682:	99 a1       	ldd	r25, Y+33	; 0x21
    3684:	fc 01       	movw	r30, r24
    3686:	e2 0f       	add	r30, r18
    3688:	f3 1f       	adc	r31, r19
    368a:	80 81       	ld	r24, Z
    368c:	0e 94 bf 26 	call	0x4d7e	; 0x4d7e <Lcd_vidDisplayChar>
          DigitsEntered++;
    3690:	8f 8d       	ldd	r24, Y+31	; 0x1f
    3692:	8f 5f       	subi	r24, 0xFF	; 255
    3694:	8f 8f       	std	Y+31, r24	; 0x1f
    case AdminMode:
      Lcd_vidCmd(_LCD_CLEAR);
      Lcd_vidRowColumn(0, 0);
      Lcd_vidDisplayStr("Enter User ID");
      Lcd_vidRowColumn(1, 0);
      while (DigitsEntered < 3)
    3696:	8f 8d       	ldd	r24, Y+31	; 0x1f
    3698:	83 30       	cpi	r24, 0x03	; 3
    369a:	f8 f2       	brcs	.-66     	; 0x365a <InputID+0x62>
    369c:	80 e0       	ldi	r24, 0x00	; 0
    369e:	90 e0       	ldi	r25, 0x00	; 0
    36a0:	a8 e4       	ldi	r26, 0x48	; 72
    36a2:	b2 e4       	ldi	r27, 0x42	; 66
    36a4:	89 8f       	std	Y+25, r24	; 0x19
    36a6:	9a 8f       	std	Y+26, r25	; 0x1a
    36a8:	ab 8f       	std	Y+27, r26	; 0x1b
    36aa:	bc 8f       	std	Y+28, r27	; 0x1c
 */
void
_delay_ms(double __ms)
{
	uint16_t __ticks;
	double __tmp = ((F_CPU) / 4e3) * __ms;
    36ac:	69 8d       	ldd	r22, Y+25	; 0x19
    36ae:	7a 8d       	ldd	r23, Y+26	; 0x1a
    36b0:	8b 8d       	ldd	r24, Y+27	; 0x1b
    36b2:	9c 8d       	ldd	r25, Y+28	; 0x1c
    36b4:	20 e0       	ldi	r18, 0x00	; 0
    36b6:	30 e0       	ldi	r19, 0x00	; 0
    36b8:	4a e7       	ldi	r20, 0x7A	; 122
    36ba:	55 e4       	ldi	r21, 0x45	; 69
    36bc:	0e 94 9c 02 	call	0x538	; 0x538 <__mulsf3>
    36c0:	dc 01       	movw	r26, r24
    36c2:	cb 01       	movw	r24, r22
    36c4:	8d 8b       	std	Y+21, r24	; 0x15
    36c6:	9e 8b       	std	Y+22, r25	; 0x16
    36c8:	af 8b       	std	Y+23, r26	; 0x17
    36ca:	b8 8f       	std	Y+24, r27	; 0x18
	if (__tmp < 1.0)
    36cc:	6d 89       	ldd	r22, Y+21	; 0x15
    36ce:	7e 89       	ldd	r23, Y+22	; 0x16
    36d0:	8f 89       	ldd	r24, Y+23	; 0x17
    36d2:	98 8d       	ldd	r25, Y+24	; 0x18
    36d4:	20 e0       	ldi	r18, 0x00	; 0
    36d6:	30 e0       	ldi	r19, 0x00	; 0
    36d8:	40 e8       	ldi	r20, 0x80	; 128
    36da:	5f e3       	ldi	r21, 0x3F	; 63
    36dc:	0e 94 a2 04 	call	0x944	; 0x944 <__ltsf2>
    36e0:	88 23       	and	r24, r24
    36e2:	2c f4       	brge	.+10     	; 0x36ee <InputID+0xf6>
		__ticks = 1;
    36e4:	81 e0       	ldi	r24, 0x01	; 1
    36e6:	90 e0       	ldi	r25, 0x00	; 0
    36e8:	9c 8b       	std	Y+20, r25	; 0x14
    36ea:	8b 8b       	std	Y+19, r24	; 0x13
    36ec:	3f c0       	rjmp	.+126    	; 0x376c <InputID+0x174>
	else if (__tmp > 65535)
    36ee:	6d 89       	ldd	r22, Y+21	; 0x15
    36f0:	7e 89       	ldd	r23, Y+22	; 0x16
    36f2:	8f 89       	ldd	r24, Y+23	; 0x17
    36f4:	98 8d       	ldd	r25, Y+24	; 0x18
    36f6:	20 e0       	ldi	r18, 0x00	; 0
    36f8:	3f ef       	ldi	r19, 0xFF	; 255
    36fa:	4f e7       	ldi	r20, 0x7F	; 127
    36fc:	57 e4       	ldi	r21, 0x47	; 71
    36fe:	0e 94 42 04 	call	0x884	; 0x884 <__gtsf2>
    3702:	18 16       	cp	r1, r24
    3704:	4c f5       	brge	.+82     	; 0x3758 <InputID+0x160>
	{
		//	__ticks = requested delay in 1/10 ms
		__ticks = (uint16_t) (__ms * 10.0);
    3706:	69 8d       	ldd	r22, Y+25	; 0x19
    3708:	7a 8d       	ldd	r23, Y+26	; 0x1a
    370a:	8b 8d       	ldd	r24, Y+27	; 0x1b
    370c:	9c 8d       	ldd	r25, Y+28	; 0x1c
    370e:	20 e0       	ldi	r18, 0x00	; 0
    3710:	30 e0       	ldi	r19, 0x00	; 0
    3712:	40 e2       	ldi	r20, 0x20	; 32
    3714:	51 e4       	ldi	r21, 0x41	; 65
    3716:	0e 94 9c 02 	call	0x538	; 0x538 <__mulsf3>
    371a:	dc 01       	movw	r26, r24
    371c:	cb 01       	movw	r24, r22
    371e:	bc 01       	movw	r22, r24
    3720:	cd 01       	movw	r24, r26
    3722:	0e 94 c6 00 	call	0x18c	; 0x18c <__fixunssfsi>
    3726:	dc 01       	movw	r26, r24
    3728:	cb 01       	movw	r24, r22
    372a:	9c 8b       	std	Y+20, r25	; 0x14
    372c:	8b 8b       	std	Y+19, r24	; 0x13
    372e:	0f c0       	rjmp	.+30     	; 0x374e <InputID+0x156>
    3730:	80 e9       	ldi	r24, 0x90	; 144
    3732:	91 e0       	ldi	r25, 0x01	; 1
    3734:	9a 8b       	std	Y+18, r25	; 0x12
    3736:	89 8b       	std	Y+17, r24	; 0x11
    3738:	89 89       	ldd	r24, Y+17	; 0x11
    373a:	9a 89       	ldd	r25, Y+18	; 0x12
    373c:	01 97       	sbiw	r24, 0x01	; 1
    373e:	f1 f7       	brne	.-4      	; 0x373c <InputID+0x144>
    3740:	9a 8b       	std	Y+18, r25	; 0x12
    3742:	89 8b       	std	Y+17, r24	; 0x11
		while(__ticks)
		{
			// wait 1/10 ms
			_delay_loop_2(((F_CPU) / 4e3) / 10);
			__ticks --;
    3744:	8b 89       	ldd	r24, Y+19	; 0x13
    3746:	9c 89       	ldd	r25, Y+20	; 0x14
    3748:	01 97       	sbiw	r24, 0x01	; 1
    374a:	9c 8b       	std	Y+20, r25	; 0x14
    374c:	8b 8b       	std	Y+19, r24	; 0x13
		__ticks = 1;
	else if (__tmp > 65535)
	{
		//	__ticks = requested delay in 1/10 ms
		__ticks = (uint16_t) (__ms * 10.0);
		while(__ticks)
    374e:	8b 89       	ldd	r24, Y+19	; 0x13
    3750:	9c 89       	ldd	r25, Y+20	; 0x14
    3752:	00 97       	sbiw	r24, 0x00	; 0
    3754:	69 f7       	brne	.-38     	; 0x3730 <InputID+0x138>
    3756:	ad c0       	rjmp	.+346    	; 0x38b2 <InputID+0x2ba>
			__ticks --;
		}
		return;
	}
	else
		__ticks = (uint16_t)__tmp;
    3758:	6d 89       	ldd	r22, Y+21	; 0x15
    375a:	7e 89       	ldd	r23, Y+22	; 0x16
    375c:	8f 89       	ldd	r24, Y+23	; 0x17
    375e:	98 8d       	ldd	r25, Y+24	; 0x18
    3760:	0e 94 c6 00 	call	0x18c	; 0x18c <__fixunssfsi>
    3764:	dc 01       	movw	r26, r24
    3766:	cb 01       	movw	r24, r22
    3768:	9c 8b       	std	Y+20, r25	; 0x14
    376a:	8b 8b       	std	Y+19, r24	; 0x13
    376c:	8b 89       	ldd	r24, Y+19	; 0x13
    376e:	9c 89       	ldd	r25, Y+20	; 0x14
    3770:	98 8b       	std	Y+16, r25	; 0x10
    3772:	8f 87       	std	Y+15, r24	; 0x0f
    3774:	8f 85       	ldd	r24, Y+15	; 0x0f
    3776:	98 89       	ldd	r25, Y+16	; 0x10
    3778:	01 97       	sbiw	r24, 0x01	; 1
    377a:	f1 f7       	brne	.-4      	; 0x3778 <InputID+0x180>
    377c:	98 8b       	std	Y+16, r25	; 0x10
    377e:	8f 87       	std	Y+15, r24	; 0x0f
    3780:	98 c0       	rjmp	.+304    	; 0x38b2 <InputID+0x2ba>
      }
      _delay_ms(50);
      break;

    case UserMode:
      Lcd_vidRowColumn(1, 0);
    3782:	81 e0       	ldi	r24, 0x01	; 1
    3784:	60 e0       	ldi	r22, 0x00	; 0
    3786:	0e 94 0d 27 	call	0x4e1a	; 0x4e1a <Lcd_vidRowColumn>
    378a:	1e c0       	rjmp	.+60     	; 0x37c8 <InputID+0x1d0>
      while (DigitsEntered < 3)
      {
        KeyPressed = Keypad_getChar();
    378c:	0e 94 0d 28 	call	0x501a	; 0x501a <Keypad_getChar>
    3790:	8e 8f       	std	Y+30, r24	; 0x1e
        if (KeyPressed)
    3792:	8e 8d       	ldd	r24, Y+30	; 0x1e
    3794:	88 23       	and	r24, r24
    3796:	c1 f0       	breq	.+48     	; 0x37c8 <InputID+0x1d0>
        {
          ID[DigitsEntered] = KeyPressed;
    3798:	8f 8d       	ldd	r24, Y+31	; 0x1f
    379a:	28 2f       	mov	r18, r24
    379c:	30 e0       	ldi	r19, 0x00	; 0
    379e:	88 a1       	ldd	r24, Y+32	; 0x20
    37a0:	99 a1       	ldd	r25, Y+33	; 0x21
    37a2:	fc 01       	movw	r30, r24
    37a4:	e2 0f       	add	r30, r18
    37a6:	f3 1f       	adc	r31, r19
    37a8:	8e 8d       	ldd	r24, Y+30	; 0x1e
    37aa:	80 83       	st	Z, r24
          /*Print on LCD Numbers Entered*/
          Lcd_vidDisplayChar(ID[DigitsEntered]);
    37ac:	8f 8d       	ldd	r24, Y+31	; 0x1f
    37ae:	28 2f       	mov	r18, r24
    37b0:	30 e0       	ldi	r19, 0x00	; 0
    37b2:	88 a1       	ldd	r24, Y+32	; 0x20
    37b4:	99 a1       	ldd	r25, Y+33	; 0x21
    37b6:	fc 01       	movw	r30, r24
    37b8:	e2 0f       	add	r30, r18
    37ba:	f3 1f       	adc	r31, r19
    37bc:	80 81       	ld	r24, Z
    37be:	0e 94 bf 26 	call	0x4d7e	; 0x4d7e <Lcd_vidDisplayChar>
          DigitsEntered++;
    37c2:	8f 8d       	ldd	r24, Y+31	; 0x1f
    37c4:	8f 5f       	subi	r24, 0xFF	; 255
    37c6:	8f 8f       	std	Y+31, r24	; 0x1f
      _delay_ms(50);
      break;

    case UserMode:
      Lcd_vidRowColumn(1, 0);
      while (DigitsEntered < 3)
    37c8:	8f 8d       	ldd	r24, Y+31	; 0x1f
    37ca:	83 30       	cpi	r24, 0x03	; 3
    37cc:	f8 f2       	brcs	.-66     	; 0x378c <InputID+0x194>
    37ce:	80 e0       	ldi	r24, 0x00	; 0
    37d0:	90 e0       	ldi	r25, 0x00	; 0
    37d2:	a6 e9       	ldi	r26, 0x96	; 150
    37d4:	b3 e4       	ldi	r27, 0x43	; 67
    37d6:	8b 87       	std	Y+11, r24	; 0x0b
    37d8:	9c 87       	std	Y+12, r25	; 0x0c
    37da:	ad 87       	std	Y+13, r26	; 0x0d
    37dc:	be 87       	std	Y+14, r27	; 0x0e
 */
void
_delay_ms(double __ms)
{
	uint16_t __ticks;
	double __tmp = ((F_CPU) / 4e3) * __ms;
    37de:	6b 85       	ldd	r22, Y+11	; 0x0b
    37e0:	7c 85       	ldd	r23, Y+12	; 0x0c
    37e2:	8d 85       	ldd	r24, Y+13	; 0x0d
    37e4:	9e 85       	ldd	r25, Y+14	; 0x0e
    37e6:	20 e0       	ldi	r18, 0x00	; 0
    37e8:	30 e0       	ldi	r19, 0x00	; 0
    37ea:	4a e7       	ldi	r20, 0x7A	; 122
    37ec:	55 e4       	ldi	r21, 0x45	; 69
    37ee:	0e 94 9c 02 	call	0x538	; 0x538 <__mulsf3>
    37f2:	dc 01       	movw	r26, r24
    37f4:	cb 01       	movw	r24, r22
    37f6:	8f 83       	std	Y+7, r24	; 0x07
    37f8:	98 87       	std	Y+8, r25	; 0x08
    37fa:	a9 87       	std	Y+9, r26	; 0x09
    37fc:	ba 87       	std	Y+10, r27	; 0x0a
	if (__tmp < 1.0)
    37fe:	6f 81       	ldd	r22, Y+7	; 0x07
    3800:	78 85       	ldd	r23, Y+8	; 0x08
    3802:	89 85       	ldd	r24, Y+9	; 0x09
    3804:	9a 85       	ldd	r25, Y+10	; 0x0a
    3806:	20 e0       	ldi	r18, 0x00	; 0
    3808:	30 e0       	ldi	r19, 0x00	; 0
    380a:	40 e8       	ldi	r20, 0x80	; 128
    380c:	5f e3       	ldi	r21, 0x3F	; 63
    380e:	0e 94 a2 04 	call	0x944	; 0x944 <__ltsf2>
    3812:	88 23       	and	r24, r24
    3814:	2c f4       	brge	.+10     	; 0x3820 <InputID+0x228>
		__ticks = 1;
    3816:	81 e0       	ldi	r24, 0x01	; 1
    3818:	90 e0       	ldi	r25, 0x00	; 0
    381a:	9e 83       	std	Y+6, r25	; 0x06
    381c:	8d 83       	std	Y+5, r24	; 0x05
    381e:	3f c0       	rjmp	.+126    	; 0x389e <InputID+0x2a6>
	else if (__tmp > 65535)
    3820:	6f 81       	ldd	r22, Y+7	; 0x07
    3822:	78 85       	ldd	r23, Y+8	; 0x08
    3824:	89 85       	ldd	r24, Y+9	; 0x09
    3826:	9a 85       	ldd	r25, Y+10	; 0x0a
    3828:	20 e0       	ldi	r18, 0x00	; 0
    382a:	3f ef       	ldi	r19, 0xFF	; 255
    382c:	4f e7       	ldi	r20, 0x7F	; 127
    382e:	57 e4       	ldi	r21, 0x47	; 71
    3830:	0e 94 42 04 	call	0x884	; 0x884 <__gtsf2>
    3834:	18 16       	cp	r1, r24
    3836:	4c f5       	brge	.+82     	; 0x388a <InputID+0x292>
	{
		//	__ticks = requested delay in 1/10 ms
		__ticks = (uint16_t) (__ms * 10.0);
    3838:	6b 85       	ldd	r22, Y+11	; 0x0b
    383a:	7c 85       	ldd	r23, Y+12	; 0x0c
    383c:	8d 85       	ldd	r24, Y+13	; 0x0d
    383e:	9e 85       	ldd	r25, Y+14	; 0x0e
    3840:	20 e0       	ldi	r18, 0x00	; 0
    3842:	30 e0       	ldi	r19, 0x00	; 0
    3844:	40 e2       	ldi	r20, 0x20	; 32
    3846:	51 e4       	ldi	r21, 0x41	; 65
    3848:	0e 94 9c 02 	call	0x538	; 0x538 <__mulsf3>
    384c:	dc 01       	movw	r26, r24
    384e:	cb 01       	movw	r24, r22
    3850:	bc 01       	movw	r22, r24
    3852:	cd 01       	movw	r24, r26
    3854:	0e 94 c6 00 	call	0x18c	; 0x18c <__fixunssfsi>
    3858:	dc 01       	movw	r26, r24
    385a:	cb 01       	movw	r24, r22
    385c:	9e 83       	std	Y+6, r25	; 0x06
    385e:	8d 83       	std	Y+5, r24	; 0x05
    3860:	0f c0       	rjmp	.+30     	; 0x3880 <InputID+0x288>
    3862:	80 e9       	ldi	r24, 0x90	; 144
    3864:	91 e0       	ldi	r25, 0x01	; 1
    3866:	9c 83       	std	Y+4, r25	; 0x04
    3868:	8b 83       	std	Y+3, r24	; 0x03
    386a:	8b 81       	ldd	r24, Y+3	; 0x03
    386c:	9c 81       	ldd	r25, Y+4	; 0x04
    386e:	01 97       	sbiw	r24, 0x01	; 1
    3870:	f1 f7       	brne	.-4      	; 0x386e <InputID+0x276>
    3872:	9c 83       	std	Y+4, r25	; 0x04
    3874:	8b 83       	std	Y+3, r24	; 0x03
		while(__ticks)
		{
			// wait 1/10 ms
			_delay_loop_2(((F_CPU) / 4e3) / 10);
			__ticks --;
    3876:	8d 81       	ldd	r24, Y+5	; 0x05
    3878:	9e 81       	ldd	r25, Y+6	; 0x06
    387a:	01 97       	sbiw	r24, 0x01	; 1
    387c:	9e 83       	std	Y+6, r25	; 0x06
    387e:	8d 83       	std	Y+5, r24	; 0x05
		__ticks = 1;
	else if (__tmp > 65535)
	{
		//	__ticks = requested delay in 1/10 ms
		__ticks = (uint16_t) (__ms * 10.0);
		while(__ticks)
    3880:	8d 81       	ldd	r24, Y+5	; 0x05
    3882:	9e 81       	ldd	r25, Y+6	; 0x06
    3884:	00 97       	sbiw	r24, 0x00	; 0
    3886:	69 f7       	brne	.-38     	; 0x3862 <InputID+0x26a>
    3888:	14 c0       	rjmp	.+40     	; 0x38b2 <InputID+0x2ba>
			__ticks --;
		}
		return;
	}
	else
		__ticks = (uint16_t)__tmp;
    388a:	6f 81       	ldd	r22, Y+7	; 0x07
    388c:	78 85       	ldd	r23, Y+8	; 0x08
    388e:	89 85       	ldd	r24, Y+9	; 0x09
    3890:	9a 85       	ldd	r25, Y+10	; 0x0a
    3892:	0e 94 c6 00 	call	0x18c	; 0x18c <__fixunssfsi>
    3896:	dc 01       	movw	r26, r24
    3898:	cb 01       	movw	r24, r22
    389a:	9e 83       	std	Y+6, r25	; 0x06
    389c:	8d 83       	std	Y+5, r24	; 0x05
    389e:	8d 81       	ldd	r24, Y+5	; 0x05
    38a0:	9e 81       	ldd	r25, Y+6	; 0x06
    38a2:	9a 83       	std	Y+2, r25	; 0x02
    38a4:	89 83       	std	Y+1, r24	; 0x01
    38a6:	89 81       	ldd	r24, Y+1	; 0x01
    38a8:	9a 81       	ldd	r25, Y+2	; 0x02
    38aa:	01 97       	sbiw	r24, 0x01	; 1
    38ac:	f1 f7       	brne	.-4      	; 0x38aa <InputID+0x2b2>
    38ae:	9a 83       	std	Y+2, r25	; 0x02
    38b0:	89 83       	std	Y+1, r24	; 0x01
      _delay_ms(300);
      break;

    default:      break;
  }
}
    38b2:	a4 96       	adiw	r28, 0x24	; 36
    38b4:	0f b6       	in	r0, 0x3f	; 63
    38b6:	f8 94       	cli
    38b8:	de bf       	out	0x3e, r29	; 62
    38ba:	0f be       	out	0x3f, r0	; 63
    38bc:	cd bf       	out	0x3d, r28	; 61
    38be:	cf 91       	pop	r28
    38c0:	df 91       	pop	r29
    38c2:	08 95       	ret

000038c4 <InputPassword>:
/************************************************************************/
/*Parameters input array to save in it the input from keypad      */
/*for the password                            */
/************************************************************************/
void InputPassword (u8* Password, u8 Mode)
{
    38c4:	df 93       	push	r29
    38c6:	cf 93       	push	r28
    38c8:	cd b7       	in	r28, 0x3d	; 61
    38ca:	de b7       	in	r29, 0x3e	; 62
    38cc:	a4 97       	sbiw	r28, 0x24	; 36
    38ce:	0f b6       	in	r0, 0x3f	; 63
    38d0:	f8 94       	cli
    38d2:	de bf       	out	0x3e, r29	; 62
    38d4:	0f be       	out	0x3f, r0	; 63
    38d6:	cd bf       	out	0x3d, r28	; 61
    38d8:	99 a3       	std	Y+33, r25	; 0x21
    38da:	88 a3       	std	Y+32, r24	; 0x20
    38dc:	6a a3       	std	Y+34, r22	; 0x22
  u8 BluetoothData = 0, DigitsEntered = 0, KeyPressed = 0;
    38de:	1f 8e       	std	Y+31, r1	; 0x1f
    38e0:	1e 8e       	std	Y+30, r1	; 0x1e
    38e2:	1d 8e       	std	Y+29, r1	; 0x1d
  switch (Mode)
    38e4:	8a a1       	ldd	r24, Y+34	; 0x22
    38e6:	28 2f       	mov	r18, r24
    38e8:	30 e0       	ldi	r19, 0x00	; 0
    38ea:	3c a3       	std	Y+36, r19	; 0x24
    38ec:	2b a3       	std	Y+35, r18	; 0x23
    38ee:	8b a1       	ldd	r24, Y+35	; 0x23
    38f0:	9c a1       	ldd	r25, Y+36	; 0x24
    38f2:	81 30       	cpi	r24, 0x01	; 1
    38f4:	91 05       	cpc	r25, r1
    38f6:	39 f0       	breq	.+14     	; 0x3906 <InputPassword+0x42>
    38f8:	2b a1       	ldd	r18, Y+35	; 0x23
    38fa:	3c a1       	ldd	r19, Y+36	; 0x24
    38fc:	22 30       	cpi	r18, 0x02	; 2
    38fe:	31 05       	cpc	r19, r1
    3900:	09 f4       	brne	.+2      	; 0x3904 <InputPassword+0x40>
    3902:	9d c0       	rjmp	.+314    	; 0x3a3e <InputPassword+0x17a>
    3904:	2c c1       	rjmp	.+600    	; 0x3b5e <InputPassword+0x29a>
  {
    case AdminMode:
      Lcd_vidCmd(_LCD_CLEAR);
    3906:	81 e0       	ldi	r24, 0x01	; 1
    3908:	0e 94 e6 26 	call	0x4dcc	; 0x4dcc <Lcd_vidCmd>
      Lcd_vidRowColumn(0, 0);
    390c:	80 e0       	ldi	r24, 0x00	; 0
    390e:	60 e0       	ldi	r22, 0x00	; 0
    3910:	0e 94 0d 27 	call	0x4e1a	; 0x4e1a <Lcd_vidRowColumn>
      Lcd_vidDisplayStr("Enter Password");
    3914:	8f ec       	ldi	r24, 0xCF	; 207
    3916:	90 e0       	ldi	r25, 0x00	; 0
    3918:	0e 94 34 27 	call	0x4e68	; 0x4e68 <Lcd_vidDisplayStr>
      Lcd_vidRowColumn(1, 0);
    391c:	81 e0       	ldi	r24, 0x01	; 1
    391e:	60 e0       	ldi	r22, 0x00	; 0
    3920:	0e 94 0d 27 	call	0x4e1a	; 0x4e1a <Lcd_vidRowColumn>
    3924:	16 c0       	rjmp	.+44     	; 0x3952 <InputPassword+0x8e>
      while (DigitsEntered < 4)
      {
        BluetoothData = Hc05_Rec();
    3926:	0e 94 bd 29 	call	0x537a	; 0x537a <Hc05_Rec>
    392a:	8f 8f       	std	Y+31, r24	; 0x1f
        if (BluetoothData)
    392c:	8f 8d       	ldd	r24, Y+31	; 0x1f
    392e:	88 23       	and	r24, r24
    3930:	81 f0       	breq	.+32     	; 0x3952 <InputPassword+0x8e>
        {
          Password[DigitsEntered] = BluetoothData;
    3932:	8e 8d       	ldd	r24, Y+30	; 0x1e
    3934:	28 2f       	mov	r18, r24
    3936:	30 e0       	ldi	r19, 0x00	; 0
    3938:	88 a1       	ldd	r24, Y+32	; 0x20
    393a:	99 a1       	ldd	r25, Y+33	; 0x21
    393c:	fc 01       	movw	r30, r24
    393e:	e2 0f       	add	r30, r18
    3940:	f3 1f       	adc	r31, r19
    3942:	8f 8d       	ldd	r24, Y+31	; 0x1f
    3944:	80 83       	st	Z, r24
          Lcd_vidDisplayChar('*');
    3946:	8a e2       	ldi	r24, 0x2A	; 42
    3948:	0e 94 bf 26 	call	0x4d7e	; 0x4d7e <Lcd_vidDisplayChar>
          DigitsEntered++;
    394c:	8e 8d       	ldd	r24, Y+30	; 0x1e
    394e:	8f 5f       	subi	r24, 0xFF	; 255
    3950:	8e 8f       	std	Y+30, r24	; 0x1e
    case AdminMode:
      Lcd_vidCmd(_LCD_CLEAR);
      Lcd_vidRowColumn(0, 0);
      Lcd_vidDisplayStr("Enter Password");
      Lcd_vidRowColumn(1, 0);
      while (DigitsEntered < 4)
    3952:	8e 8d       	ldd	r24, Y+30	; 0x1e
    3954:	84 30       	cpi	r24, 0x04	; 4
    3956:	38 f3       	brcs	.-50     	; 0x3926 <InputPassword+0x62>
    3958:	80 e0       	ldi	r24, 0x00	; 0
    395a:	90 e0       	ldi	r25, 0x00	; 0
    395c:	a8 e4       	ldi	r26, 0x48	; 72
    395e:	b2 e4       	ldi	r27, 0x42	; 66
    3960:	89 8f       	std	Y+25, r24	; 0x19
    3962:	9a 8f       	std	Y+26, r25	; 0x1a
    3964:	ab 8f       	std	Y+27, r26	; 0x1b
    3966:	bc 8f       	std	Y+28, r27	; 0x1c
 */
void
_delay_ms(double __ms)
{
	uint16_t __ticks;
	double __tmp = ((F_CPU) / 4e3) * __ms;
    3968:	69 8d       	ldd	r22, Y+25	; 0x19
    396a:	7a 8d       	ldd	r23, Y+26	; 0x1a
    396c:	8b 8d       	ldd	r24, Y+27	; 0x1b
    396e:	9c 8d       	ldd	r25, Y+28	; 0x1c
    3970:	20 e0       	ldi	r18, 0x00	; 0
    3972:	30 e0       	ldi	r19, 0x00	; 0
    3974:	4a e7       	ldi	r20, 0x7A	; 122
    3976:	55 e4       	ldi	r21, 0x45	; 69
    3978:	0e 94 9c 02 	call	0x538	; 0x538 <__mulsf3>
    397c:	dc 01       	movw	r26, r24
    397e:	cb 01       	movw	r24, r22
    3980:	8d 8b       	std	Y+21, r24	; 0x15
    3982:	9e 8b       	std	Y+22, r25	; 0x16
    3984:	af 8b       	std	Y+23, r26	; 0x17
    3986:	b8 8f       	std	Y+24, r27	; 0x18
	if (__tmp < 1.0)
    3988:	6d 89       	ldd	r22, Y+21	; 0x15
    398a:	7e 89       	ldd	r23, Y+22	; 0x16
    398c:	8f 89       	ldd	r24, Y+23	; 0x17
    398e:	98 8d       	ldd	r25, Y+24	; 0x18
    3990:	20 e0       	ldi	r18, 0x00	; 0
    3992:	30 e0       	ldi	r19, 0x00	; 0
    3994:	40 e8       	ldi	r20, 0x80	; 128
    3996:	5f e3       	ldi	r21, 0x3F	; 63
    3998:	0e 94 a2 04 	call	0x944	; 0x944 <__ltsf2>
    399c:	88 23       	and	r24, r24
    399e:	2c f4       	brge	.+10     	; 0x39aa <InputPassword+0xe6>
		__ticks = 1;
    39a0:	81 e0       	ldi	r24, 0x01	; 1
    39a2:	90 e0       	ldi	r25, 0x00	; 0
    39a4:	9c 8b       	std	Y+20, r25	; 0x14
    39a6:	8b 8b       	std	Y+19, r24	; 0x13
    39a8:	3f c0       	rjmp	.+126    	; 0x3a28 <InputPassword+0x164>
	else if (__tmp > 65535)
    39aa:	6d 89       	ldd	r22, Y+21	; 0x15
    39ac:	7e 89       	ldd	r23, Y+22	; 0x16
    39ae:	8f 89       	ldd	r24, Y+23	; 0x17
    39b0:	98 8d       	ldd	r25, Y+24	; 0x18
    39b2:	20 e0       	ldi	r18, 0x00	; 0
    39b4:	3f ef       	ldi	r19, 0xFF	; 255
    39b6:	4f e7       	ldi	r20, 0x7F	; 127
    39b8:	57 e4       	ldi	r21, 0x47	; 71
    39ba:	0e 94 42 04 	call	0x884	; 0x884 <__gtsf2>
    39be:	18 16       	cp	r1, r24
    39c0:	4c f5       	brge	.+82     	; 0x3a14 <InputPassword+0x150>
	{
		//	__ticks = requested delay in 1/10 ms
		__ticks = (uint16_t) (__ms * 10.0);
    39c2:	69 8d       	ldd	r22, Y+25	; 0x19
    39c4:	7a 8d       	ldd	r23, Y+26	; 0x1a
    39c6:	8b 8d       	ldd	r24, Y+27	; 0x1b
    39c8:	9c 8d       	ldd	r25, Y+28	; 0x1c
    39ca:	20 e0       	ldi	r18, 0x00	; 0
    39cc:	30 e0       	ldi	r19, 0x00	; 0
    39ce:	40 e2       	ldi	r20, 0x20	; 32
    39d0:	51 e4       	ldi	r21, 0x41	; 65
    39d2:	0e 94 9c 02 	call	0x538	; 0x538 <__mulsf3>
    39d6:	dc 01       	movw	r26, r24
    39d8:	cb 01       	movw	r24, r22
    39da:	bc 01       	movw	r22, r24
    39dc:	cd 01       	movw	r24, r26
    39de:	0e 94 c6 00 	call	0x18c	; 0x18c <__fixunssfsi>
    39e2:	dc 01       	movw	r26, r24
    39e4:	cb 01       	movw	r24, r22
    39e6:	9c 8b       	std	Y+20, r25	; 0x14
    39e8:	8b 8b       	std	Y+19, r24	; 0x13
    39ea:	0f c0       	rjmp	.+30     	; 0x3a0a <InputPassword+0x146>
    39ec:	80 e9       	ldi	r24, 0x90	; 144
    39ee:	91 e0       	ldi	r25, 0x01	; 1
    39f0:	9a 8b       	std	Y+18, r25	; 0x12
    39f2:	89 8b       	std	Y+17, r24	; 0x11
    39f4:	89 89       	ldd	r24, Y+17	; 0x11
    39f6:	9a 89       	ldd	r25, Y+18	; 0x12
    39f8:	01 97       	sbiw	r24, 0x01	; 1
    39fa:	f1 f7       	brne	.-4      	; 0x39f8 <InputPassword+0x134>
    39fc:	9a 8b       	std	Y+18, r25	; 0x12
    39fe:	89 8b       	std	Y+17, r24	; 0x11
		while(__ticks)
		{
			// wait 1/10 ms
			_delay_loop_2(((F_CPU) / 4e3) / 10);
			__ticks --;
    3a00:	8b 89       	ldd	r24, Y+19	; 0x13
    3a02:	9c 89       	ldd	r25, Y+20	; 0x14
    3a04:	01 97       	sbiw	r24, 0x01	; 1
    3a06:	9c 8b       	std	Y+20, r25	; 0x14
    3a08:	8b 8b       	std	Y+19, r24	; 0x13
		__ticks = 1;
	else if (__tmp > 65535)
	{
		//	__ticks = requested delay in 1/10 ms
		__ticks = (uint16_t) (__ms * 10.0);
		while(__ticks)
    3a0a:	8b 89       	ldd	r24, Y+19	; 0x13
    3a0c:	9c 89       	ldd	r25, Y+20	; 0x14
    3a0e:	00 97       	sbiw	r24, 0x00	; 0
    3a10:	69 f7       	brne	.-38     	; 0x39ec <InputPassword+0x128>
    3a12:	a5 c0       	rjmp	.+330    	; 0x3b5e <InputPassword+0x29a>
			__ticks --;
		}
		return;
	}
	else
		__ticks = (uint16_t)__tmp;
    3a14:	6d 89       	ldd	r22, Y+21	; 0x15
    3a16:	7e 89       	ldd	r23, Y+22	; 0x16
    3a18:	8f 89       	ldd	r24, Y+23	; 0x17
    3a1a:	98 8d       	ldd	r25, Y+24	; 0x18
    3a1c:	0e 94 c6 00 	call	0x18c	; 0x18c <__fixunssfsi>
    3a20:	dc 01       	movw	r26, r24
    3a22:	cb 01       	movw	r24, r22
    3a24:	9c 8b       	std	Y+20, r25	; 0x14
    3a26:	8b 8b       	std	Y+19, r24	; 0x13
    3a28:	8b 89       	ldd	r24, Y+19	; 0x13
    3a2a:	9c 89       	ldd	r25, Y+20	; 0x14
    3a2c:	98 8b       	std	Y+16, r25	; 0x10
    3a2e:	8f 87       	std	Y+15, r24	; 0x0f
    3a30:	8f 85       	ldd	r24, Y+15	; 0x0f
    3a32:	98 89       	ldd	r25, Y+16	; 0x10
    3a34:	01 97       	sbiw	r24, 0x01	; 1
    3a36:	f1 f7       	brne	.-4      	; 0x3a34 <InputPassword+0x170>
    3a38:	98 8b       	std	Y+16, r25	; 0x10
    3a3a:	8f 87       	std	Y+15, r24	; 0x0f
    3a3c:	90 c0       	rjmp	.+288    	; 0x3b5e <InputPassword+0x29a>
      }
      _delay_ms(50);
      break;

    case UserMode:
      Lcd_vidRowColumn(1, 0);
    3a3e:	81 e0       	ldi	r24, 0x01	; 1
    3a40:	60 e0       	ldi	r22, 0x00	; 0
    3a42:	0e 94 0d 27 	call	0x4e1a	; 0x4e1a <Lcd_vidRowColumn>
    3a46:	16 c0       	rjmp	.+44     	; 0x3a74 <InputPassword+0x1b0>
      while (DigitsEntered < 4)
      {
        KeyPressed = Keypad_getChar();
    3a48:	0e 94 0d 28 	call	0x501a	; 0x501a <Keypad_getChar>
    3a4c:	8d 8f       	std	Y+29, r24	; 0x1d
        if (KeyPressed)
    3a4e:	8d 8d       	ldd	r24, Y+29	; 0x1d
    3a50:	88 23       	and	r24, r24
    3a52:	81 f0       	breq	.+32     	; 0x3a74 <InputPassword+0x1b0>
        {
          Password[DigitsEntered] = KeyPressed;
    3a54:	8e 8d       	ldd	r24, Y+30	; 0x1e
    3a56:	28 2f       	mov	r18, r24
    3a58:	30 e0       	ldi	r19, 0x00	; 0
    3a5a:	88 a1       	ldd	r24, Y+32	; 0x20
    3a5c:	99 a1       	ldd	r25, Y+33	; 0x21
    3a5e:	fc 01       	movw	r30, r24
    3a60:	e2 0f       	add	r30, r18
    3a62:	f3 1f       	adc	r31, r19
    3a64:	8d 8d       	ldd	r24, Y+29	; 0x1d
    3a66:	80 83       	st	Z, r24
          /*Print on LCD Stars for every character entered*/
          Lcd_vidDisplayChar('*');
    3a68:	8a e2       	ldi	r24, 0x2A	; 42
    3a6a:	0e 94 bf 26 	call	0x4d7e	; 0x4d7e <Lcd_vidDisplayChar>
          DigitsEntered++;
    3a6e:	8e 8d       	ldd	r24, Y+30	; 0x1e
    3a70:	8f 5f       	subi	r24, 0xFF	; 255
    3a72:	8e 8f       	std	Y+30, r24	; 0x1e
      _delay_ms(50);
      break;

    case UserMode:
      Lcd_vidRowColumn(1, 0);
      while (DigitsEntered < 4)
    3a74:	8e 8d       	ldd	r24, Y+30	; 0x1e
    3a76:	84 30       	cpi	r24, 0x04	; 4
    3a78:	38 f3       	brcs	.-50     	; 0x3a48 <InputPassword+0x184>
    3a7a:	80 e0       	ldi	r24, 0x00	; 0
    3a7c:	90 e0       	ldi	r25, 0x00	; 0
    3a7e:	a6 e9       	ldi	r26, 0x96	; 150
    3a80:	b3 e4       	ldi	r27, 0x43	; 67
    3a82:	8b 87       	std	Y+11, r24	; 0x0b
    3a84:	9c 87       	std	Y+12, r25	; 0x0c
    3a86:	ad 87       	std	Y+13, r26	; 0x0d
    3a88:	be 87       	std	Y+14, r27	; 0x0e
 */
void
_delay_ms(double __ms)
{
	uint16_t __ticks;
	double __tmp = ((F_CPU) / 4e3) * __ms;
    3a8a:	6b 85       	ldd	r22, Y+11	; 0x0b
    3a8c:	7c 85       	ldd	r23, Y+12	; 0x0c
    3a8e:	8d 85       	ldd	r24, Y+13	; 0x0d
    3a90:	9e 85       	ldd	r25, Y+14	; 0x0e
    3a92:	20 e0       	ldi	r18, 0x00	; 0
    3a94:	30 e0       	ldi	r19, 0x00	; 0
    3a96:	4a e7       	ldi	r20, 0x7A	; 122
    3a98:	55 e4       	ldi	r21, 0x45	; 69
    3a9a:	0e 94 9c 02 	call	0x538	; 0x538 <__mulsf3>
    3a9e:	dc 01       	movw	r26, r24
    3aa0:	cb 01       	movw	r24, r22
    3aa2:	8f 83       	std	Y+7, r24	; 0x07
    3aa4:	98 87       	std	Y+8, r25	; 0x08
    3aa6:	a9 87       	std	Y+9, r26	; 0x09
    3aa8:	ba 87       	std	Y+10, r27	; 0x0a
	if (__tmp < 1.0)
    3aaa:	6f 81       	ldd	r22, Y+7	; 0x07
    3aac:	78 85       	ldd	r23, Y+8	; 0x08
    3aae:	89 85       	ldd	r24, Y+9	; 0x09
    3ab0:	9a 85       	ldd	r25, Y+10	; 0x0a
    3ab2:	20 e0       	ldi	r18, 0x00	; 0
    3ab4:	30 e0       	ldi	r19, 0x00	; 0
    3ab6:	40 e8       	ldi	r20, 0x80	; 128
    3ab8:	5f e3       	ldi	r21, 0x3F	; 63
    3aba:	0e 94 a2 04 	call	0x944	; 0x944 <__ltsf2>
    3abe:	88 23       	and	r24, r24
    3ac0:	2c f4       	brge	.+10     	; 0x3acc <InputPassword+0x208>
		__ticks = 1;
    3ac2:	81 e0       	ldi	r24, 0x01	; 1
    3ac4:	90 e0       	ldi	r25, 0x00	; 0
    3ac6:	9e 83       	std	Y+6, r25	; 0x06
    3ac8:	8d 83       	std	Y+5, r24	; 0x05
    3aca:	3f c0       	rjmp	.+126    	; 0x3b4a <InputPassword+0x286>
	else if (__tmp > 65535)
    3acc:	6f 81       	ldd	r22, Y+7	; 0x07
    3ace:	78 85       	ldd	r23, Y+8	; 0x08
    3ad0:	89 85       	ldd	r24, Y+9	; 0x09
    3ad2:	9a 85       	ldd	r25, Y+10	; 0x0a
    3ad4:	20 e0       	ldi	r18, 0x00	; 0
    3ad6:	3f ef       	ldi	r19, 0xFF	; 255
    3ad8:	4f e7       	ldi	r20, 0x7F	; 127
    3ada:	57 e4       	ldi	r21, 0x47	; 71
    3adc:	0e 94 42 04 	call	0x884	; 0x884 <__gtsf2>
    3ae0:	18 16       	cp	r1, r24
    3ae2:	4c f5       	brge	.+82     	; 0x3b36 <InputPassword+0x272>
	{
		//	__ticks = requested delay in 1/10 ms
		__ticks = (uint16_t) (__ms * 10.0);
    3ae4:	6b 85       	ldd	r22, Y+11	; 0x0b
    3ae6:	7c 85       	ldd	r23, Y+12	; 0x0c
    3ae8:	8d 85       	ldd	r24, Y+13	; 0x0d
    3aea:	9e 85       	ldd	r25, Y+14	; 0x0e
    3aec:	20 e0       	ldi	r18, 0x00	; 0
    3aee:	30 e0       	ldi	r19, 0x00	; 0
    3af0:	40 e2       	ldi	r20, 0x20	; 32
    3af2:	51 e4       	ldi	r21, 0x41	; 65
    3af4:	0e 94 9c 02 	call	0x538	; 0x538 <__mulsf3>
    3af8:	dc 01       	movw	r26, r24
    3afa:	cb 01       	movw	r24, r22
    3afc:	bc 01       	movw	r22, r24
    3afe:	cd 01       	movw	r24, r26
    3b00:	0e 94 c6 00 	call	0x18c	; 0x18c <__fixunssfsi>
    3b04:	dc 01       	movw	r26, r24
    3b06:	cb 01       	movw	r24, r22
    3b08:	9e 83       	std	Y+6, r25	; 0x06
    3b0a:	8d 83       	std	Y+5, r24	; 0x05
    3b0c:	0f c0       	rjmp	.+30     	; 0x3b2c <InputPassword+0x268>
    3b0e:	80 e9       	ldi	r24, 0x90	; 144
    3b10:	91 e0       	ldi	r25, 0x01	; 1
    3b12:	9c 83       	std	Y+4, r25	; 0x04
    3b14:	8b 83       	std	Y+3, r24	; 0x03
    3b16:	8b 81       	ldd	r24, Y+3	; 0x03
    3b18:	9c 81       	ldd	r25, Y+4	; 0x04
    3b1a:	01 97       	sbiw	r24, 0x01	; 1
    3b1c:	f1 f7       	brne	.-4      	; 0x3b1a <InputPassword+0x256>
    3b1e:	9c 83       	std	Y+4, r25	; 0x04
    3b20:	8b 83       	std	Y+3, r24	; 0x03
		while(__ticks)
		{
			// wait 1/10 ms
			_delay_loop_2(((F_CPU) / 4e3) / 10);
			__ticks --;
    3b22:	8d 81       	ldd	r24, Y+5	; 0x05
    3b24:	9e 81       	ldd	r25, Y+6	; 0x06
    3b26:	01 97       	sbiw	r24, 0x01	; 1
    3b28:	9e 83       	std	Y+6, r25	; 0x06
    3b2a:	8d 83       	std	Y+5, r24	; 0x05
		__ticks = 1;
	else if (__tmp > 65535)
	{
		//	__ticks = requested delay in 1/10 ms
		__ticks = (uint16_t) (__ms * 10.0);
		while(__ticks)
    3b2c:	8d 81       	ldd	r24, Y+5	; 0x05
    3b2e:	9e 81       	ldd	r25, Y+6	; 0x06
    3b30:	00 97       	sbiw	r24, 0x00	; 0
    3b32:	69 f7       	brne	.-38     	; 0x3b0e <InputPassword+0x24a>
    3b34:	14 c0       	rjmp	.+40     	; 0x3b5e <InputPassword+0x29a>
			__ticks --;
		}
		return;
	}
	else
		__ticks = (uint16_t)__tmp;
    3b36:	6f 81       	ldd	r22, Y+7	; 0x07
    3b38:	78 85       	ldd	r23, Y+8	; 0x08
    3b3a:	89 85       	ldd	r24, Y+9	; 0x09
    3b3c:	9a 85       	ldd	r25, Y+10	; 0x0a
    3b3e:	0e 94 c6 00 	call	0x18c	; 0x18c <__fixunssfsi>
    3b42:	dc 01       	movw	r26, r24
    3b44:	cb 01       	movw	r24, r22
    3b46:	9e 83       	std	Y+6, r25	; 0x06
    3b48:	8d 83       	std	Y+5, r24	; 0x05
    3b4a:	8d 81       	ldd	r24, Y+5	; 0x05
    3b4c:	9e 81       	ldd	r25, Y+6	; 0x06
    3b4e:	9a 83       	std	Y+2, r25	; 0x02
    3b50:	89 83       	std	Y+1, r24	; 0x01
    3b52:	89 81       	ldd	r24, Y+1	; 0x01
    3b54:	9a 81       	ldd	r25, Y+2	; 0x02
    3b56:	01 97       	sbiw	r24, 0x01	; 1
    3b58:	f1 f7       	brne	.-4      	; 0x3b56 <InputPassword+0x292>
    3b5a:	9a 83       	std	Y+2, r25	; 0x02
    3b5c:	89 83       	std	Y+1, r24	; 0x01
        }
      }
      _delay_ms(300);
  }

}
    3b5e:	a4 96       	adiw	r28, 0x24	; 36
    3b60:	0f b6       	in	r0, 0x3f	; 63
    3b62:	f8 94       	cli
    3b64:	de bf       	out	0x3e, r29	; 62
    3b66:	0f be       	out	0x3f, r0	; 63
    3b68:	cd bf       	out	0x3d, r28	; 61
    3b6a:	cf 91       	pop	r28
    3b6c:	df 91       	pop	r29
    3b6e:	08 95       	ret

00003b70 <RelaySwitch>:


void RelaySwitch(u8* RelayOpened)
{
    3b70:	df 93       	push	r29
    3b72:	cf 93       	push	r28
    3b74:	00 d0       	rcall	.+0      	; 0x3b76 <RelaySwitch+0x6>
    3b76:	cd b7       	in	r28, 0x3d	; 61
    3b78:	de b7       	in	r29, 0x3e	; 62
    3b7a:	9a 83       	std	Y+2, r25	; 0x02
    3b7c:	89 83       	std	Y+1, r24	; 0x01
  if (*RelayOpened == 0)
    3b7e:	e9 81       	ldd	r30, Y+1	; 0x01
    3b80:	fa 81       	ldd	r31, Y+2	; 0x02
    3b82:	80 81       	ld	r24, Z
    3b84:	88 23       	and	r24, r24
    3b86:	b1 f4       	brne	.+44     	; 0x3bb4 <RelaySwitch+0x44>
  {
	Lcd_vidCmd(_LCD_CLEAR);
    3b88:	81 e0       	ldi	r24, 0x01	; 1
    3b8a:	0e 94 e6 26 	call	0x4dcc	; 0x4dcc <Lcd_vidCmd>
    Lcd_vidRowColumn(0, 0);
    3b8e:	80 e0       	ldi	r24, 0x00	; 0
    3b90:	60 e0       	ldi	r22, 0x00	; 0
    3b92:	0e 94 0d 27 	call	0x4e1a	; 0x4e1a <Lcd_vidRowColumn>
    Lcd_vidDisplayStr("LAMPS Is ON");
    3b96:	8e e4       	ldi	r24, 0x4E	; 78
    3b98:	92 e0       	ldi	r25, 0x02	; 2
    3b9a:	0e 94 34 27 	call	0x4e68	; 0x4e68 <Lcd_vidDisplayStr>
    Hc05_SendString("LAMPS Is ON");
    3b9e:	8e e4       	ldi	r24, 0x4E	; 78
    3ba0:	92 e0       	ldi	r25, 0x02	; 2
    3ba2:	0e 94 17 29 	call	0x522e	; 0x522e <Hc05_SendString>
    Relay_On();
    3ba6:	0e 94 d2 22 	call	0x45a4	; 0x45a4 <Relay_On>
    *RelayOpened = 1;
    3baa:	e9 81       	ldd	r30, Y+1	; 0x01
    3bac:	fa 81       	ldd	r31, Y+2	; 0x02
    3bae:	81 e0       	ldi	r24, 0x01	; 1
    3bb0:	80 83       	st	Z, r24
    3bb2:	19 c0       	rjmp	.+50     	; 0x3be6 <RelaySwitch+0x76>
  }
  else if (*RelayOpened == 1)
    3bb4:	e9 81       	ldd	r30, Y+1	; 0x01
    3bb6:	fa 81       	ldd	r31, Y+2	; 0x02
    3bb8:	80 81       	ld	r24, Z
    3bba:	81 30       	cpi	r24, 0x01	; 1
    3bbc:	a1 f4       	brne	.+40     	; 0x3be6 <RelaySwitch+0x76>
  {
	Lcd_vidCmd(_LCD_CLEAR);
    3bbe:	81 e0       	ldi	r24, 0x01	; 1
    3bc0:	0e 94 e6 26 	call	0x4dcc	; 0x4dcc <Lcd_vidCmd>
    Lcd_vidRowColumn(0, 0);
    3bc4:	80 e0       	ldi	r24, 0x00	; 0
    3bc6:	60 e0       	ldi	r22, 0x00	; 0
    3bc8:	0e 94 0d 27 	call	0x4e1a	; 0x4e1a <Lcd_vidRowColumn>
    Lcd_vidDisplayStr("LAMPS Is OFF");
    3bcc:	8a e5       	ldi	r24, 0x5A	; 90
    3bce:	92 e0       	ldi	r25, 0x02	; 2
    3bd0:	0e 94 34 27 	call	0x4e68	; 0x4e68 <Lcd_vidDisplayStr>
    Hc05_SendString("LAMPS Is OFF");
    3bd4:	8a e5       	ldi	r24, 0x5A	; 90
    3bd6:	92 e0       	ldi	r25, 0x02	; 2
    3bd8:	0e 94 17 29 	call	0x522e	; 0x522e <Hc05_SendString>
    Relay_Off();
    3bdc:	0e 94 de 22 	call	0x45bc	; 0x45bc <Relay_Off>
    *RelayOpened = 0;
    3be0:	e9 81       	ldd	r30, Y+1	; 0x01
    3be2:	fa 81       	ldd	r31, Y+2	; 0x02
    3be4:	10 82       	st	Z, r1
  }
}
    3be6:	0f 90       	pop	r0
    3be8:	0f 90       	pop	r0
    3bea:	cf 91       	pop	r28
    3bec:	df 91       	pop	r29
    3bee:	08 95       	ret

00003bf0 <ACSwitch>:

void ACSwitch (u8* ACOpened)
{
    3bf0:	df 93       	push	r29
    3bf2:	cf 93       	push	r28
    3bf4:	00 d0       	rcall	.+0      	; 0x3bf6 <ACSwitch+0x6>
    3bf6:	00 d0       	rcall	.+0      	; 0x3bf8 <ACSwitch+0x8>
    3bf8:	cd b7       	in	r28, 0x3d	; 61
    3bfa:	de b7       	in	r29, 0x3e	; 62
    3bfc:	9c 83       	std	Y+4, r25	; 0x04
    3bfe:	8b 83       	std	Y+3, r24	; 0x03
    if (*ACOpened == 0)
    3c00:	eb 81       	ldd	r30, Y+3	; 0x03
    3c02:	fc 81       	ldd	r31, Y+4	; 0x04
    3c04:	80 81       	ld	r24, Z
    3c06:	88 23       	and	r24, r24
    3c08:	d9 f4       	brne	.+54     	; 0x3c40 <ACSwitch+0x50>
    {
     u16 Temperature = 0;
    3c0a:	1a 82       	std	Y+2, r1	; 0x02
    3c0c:	19 82       	std	Y+1, r1	; 0x01
     Temperature = Lm35_u8TempRead();
    3c0e:	0e 94 99 23 	call	0x4732	; 0x4732 <Lm35_u8TempRead>
    3c12:	9a 83       	std	Y+2, r25	; 0x02
    3c14:	89 83       	std	Y+1, r24	; 0x01
     if (Temperature > 26)
    3c16:	89 81       	ldd	r24, Y+1	; 0x01
    3c18:	9a 81       	ldd	r25, Y+2	; 0x02
    3c1a:	8b 31       	cpi	r24, 0x1B	; 27
    3c1c:	91 05       	cpc	r25, r1
    3c1e:	20 f0       	brcs	.+8      	; 0x3c28 <ACSwitch+0x38>
     {
    	 Dc_Motor_vidStart(DIR_CW);
    3c20:	80 e0       	ldi	r24, 0x00	; 0
    3c22:	0e 94 e1 29 	call	0x53c2	; 0x53c2 <Dc_Motor_vidStart>
    3c26:	07 c0       	rjmp	.+14     	; 0x3c36 <ACSwitch+0x46>
     }
     else if (Temperature < 21)
    3c28:	89 81       	ldd	r24, Y+1	; 0x01
    3c2a:	9a 81       	ldd	r25, Y+2	; 0x02
    3c2c:	85 31       	cpi	r24, 0x15	; 21
    3c2e:	91 05       	cpc	r25, r1
    3c30:	10 f4       	brcc	.+4      	; 0x3c36 <ACSwitch+0x46>
     {
    	 Dc_Motor_vidStop();
    3c32:	0e 94 08 2a 	call	0x5410	; 0x5410 <Dc_Motor_vidStop>
     }
     
     *ACOpened = 1;
    3c36:	eb 81       	ldd	r30, Y+3	; 0x03
    3c38:	fc 81       	ldd	r31, Y+4	; 0x04
    3c3a:	81 e0       	ldi	r24, 0x01	; 1
    3c3c:	80 83       	st	Z, r24
    3c3e:	0b c0       	rjmp	.+22     	; 0x3c56 <ACSwitch+0x66>
     
 }
 else
 {
	 Dc_Motor_vidStop();
    3c40:	0e 94 08 2a 	call	0x5410	; 0x5410 <Dc_Motor_vidStop>
	 Led_vidledOff(LED1);
    3c44:	81 e0       	ldi	r24, 0x01	; 1
    3c46:	0e 94 31 23 	call	0x4662	; 0x4662 <Led_vidledOff>
	 Led_vidledOff(LED0);
    3c4a:	80 e0       	ldi	r24, 0x00	; 0
    3c4c:	0e 94 31 23 	call	0x4662	; 0x4662 <Led_vidledOff>
     *ACOpened = 0;
    3c50:	eb 81       	ldd	r30, Y+3	; 0x03
    3c52:	fc 81       	ldd	r31, Y+4	; 0x04
    3c54:	10 82       	st	Z, r1
 }
}
    3c56:	0f 90       	pop	r0
    3c58:	0f 90       	pop	r0
    3c5a:	0f 90       	pop	r0
    3c5c:	0f 90       	pop	r0
    3c5e:	cf 91       	pop	r28
    3c60:	df 91       	pop	r29
    3c62:	08 95       	ret

00003c64 <CheckEEPROM>:

void CheckEEPROM (void)
{
    3c64:	df 93       	push	r29
    3c66:	cf 93       	push	r28
    3c68:	00 d0       	rcall	.+0      	; 0x3c6a <CheckEEPROM+0x6>
    3c6a:	cd b7       	in	r28, 0x3d	; 61
    3c6c:	de b7       	in	r29, 0x3e	; 62
  //char NumberOfUsers = 0;
  //NumberOfUsers = EEPROM_Read(100);
  //Lcd_vidDisplayInt(NumberOfUsers);
  //char counter = NumberOfUsers* 7;
  for (char i = 0; i <= 16; i++)
    3c6e:	1a 82       	std	Y+2, r1	; 0x02
    3c70:	0a c0       	rjmp	.+20     	; 0x3c86 <CheckEEPROM+0x22>
  {
    Lcd_vidDisplayChar(EEPROM_Read( i));
    3c72:	8a 81       	ldd	r24, Y+2	; 0x02
    3c74:	88 2f       	mov	r24, r24
    3c76:	90 e0       	ldi	r25, 0x00	; 0
    3c78:	0e 94 26 2f 	call	0x5e4c	; 0x5e4c <EEPROM_Read>
    3c7c:	0e 94 bf 26 	call	0x4d7e	; 0x4d7e <Lcd_vidDisplayChar>
{
  //char NumberOfUsers = 0;
  //NumberOfUsers = EEPROM_Read(100);
  //Lcd_vidDisplayInt(NumberOfUsers);
  //char counter = NumberOfUsers* 7;
  for (char i = 0; i <= 16; i++)
    3c80:	8a 81       	ldd	r24, Y+2	; 0x02
    3c82:	8f 5f       	subi	r24, 0xFF	; 255
    3c84:	8a 83       	std	Y+2, r24	; 0x02
    3c86:	8a 81       	ldd	r24, Y+2	; 0x02
    3c88:	81 31       	cpi	r24, 0x11	; 17
    3c8a:	98 f3       	brcs	.-26     	; 0x3c72 <CheckEEPROM+0xe>
  {
    Lcd_vidDisplayChar(EEPROM_Read( i));
    //_delay_ms(250);
    //  Lcd_vidCmd(_LCD_CLEAR);
  }
  Lcd_vidRowColumn(1, 0);
    3c8c:	81 e0       	ldi	r24, 0x01	; 1
    3c8e:	60 e0       	ldi	r22, 0x00	; 0
    3c90:	0e 94 0d 27 	call	0x4e1a	; 0x4e1a <Lcd_vidRowColumn>
  for (char i = 17; i < 33; i++)
    3c94:	81 e1       	ldi	r24, 0x11	; 17
    3c96:	89 83       	std	Y+1, r24	; 0x01
    3c98:	0a c0       	rjmp	.+20     	; 0x3cae <CheckEEPROM+0x4a>
  {
    Lcd_vidDisplayChar(EEPROM_Read( i));
    3c9a:	89 81       	ldd	r24, Y+1	; 0x01
    3c9c:	88 2f       	mov	r24, r24
    3c9e:	90 e0       	ldi	r25, 0x00	; 0
    3ca0:	0e 94 26 2f 	call	0x5e4c	; 0x5e4c <EEPROM_Read>
    3ca4:	0e 94 bf 26 	call	0x4d7e	; 0x4d7e <Lcd_vidDisplayChar>
    Lcd_vidDisplayChar(EEPROM_Read( i));
    //_delay_ms(250);
    //  Lcd_vidCmd(_LCD_CLEAR);
  }
  Lcd_vidRowColumn(1, 0);
  for (char i = 17; i < 33; i++)
    3ca8:	89 81       	ldd	r24, Y+1	; 0x01
    3caa:	8f 5f       	subi	r24, 0xFF	; 255
    3cac:	89 83       	std	Y+1, r24	; 0x01
    3cae:	89 81       	ldd	r24, Y+1	; 0x01
    3cb0:	81 32       	cpi	r24, 0x21	; 33
    3cb2:	98 f3       	brcs	.-26     	; 0x3c9a <CheckEEPROM+0x36>
  {
    Lcd_vidDisplayChar(EEPROM_Read( i));
    //_delay_ms(250);
    //  Lcd_vidCmd(_LCD_CLEAR);
  }
}
    3cb4:	0f 90       	pop	r0
    3cb6:	0f 90       	pop	r0
    3cb8:	cf 91       	pop	r28
    3cba:	df 91       	pop	r29
    3cbc:	08 95       	ret

00003cbe <DeleteAll>:


void DeleteAll (void)
{
    3cbe:	df 93       	push	r29
    3cc0:	cf 93       	push	r28
    3cc2:	00 d0       	rcall	.+0      	; 0x3cc4 <DeleteAll+0x6>
    3cc4:	cd b7       	in	r28, 0x3d	; 61
    3cc6:	de b7       	in	r29, 0x3e	; 62
  for (u16 i = 0; i <= 0xFF; i++)
    3cc8:	1a 82       	std	Y+2, r1	; 0x02
    3cca:	19 82       	std	Y+1, r1	; 0x01
    3ccc:	0a c0       	rjmp	.+20     	; 0x3ce2 <DeleteAll+0x24>
  {
    EEPROM_Write(i,0xFF);
    3cce:	89 81       	ldd	r24, Y+1	; 0x01
    3cd0:	9a 81       	ldd	r25, Y+2	; 0x02
    3cd2:	6f ef       	ldi	r22, 0xFF	; 255
    3cd4:	0e 94 f1 2e 	call	0x5de2	; 0x5de2 <EEPROM_Write>
}


void DeleteAll (void)
{
  for (u16 i = 0; i <= 0xFF; i++)
    3cd8:	89 81       	ldd	r24, Y+1	; 0x01
    3cda:	9a 81       	ldd	r25, Y+2	; 0x02
    3cdc:	01 96       	adiw	r24, 0x01	; 1
    3cde:	9a 83       	std	Y+2, r25	; 0x02
    3ce0:	89 83       	std	Y+1, r24	; 0x01
    3ce2:	89 81       	ldd	r24, Y+1	; 0x01
    3ce4:	9a 81       	ldd	r25, Y+2	; 0x02
    3ce6:	8f 3f       	cpi	r24, 0xFF	; 255
    3ce8:	91 05       	cpc	r25, r1
    3cea:	89 f3       	breq	.-30     	; 0x3cce <DeleteAll+0x10>
    3cec:	80 f3       	brcs	.-32     	; 0x3cce <DeleteAll+0x10>
  {
    EEPROM_Write(i,0xFF);
  }
  EEPROM_Write(0xFF,0xFF);
    3cee:	8f ef       	ldi	r24, 0xFF	; 255
    3cf0:	90 e0       	ldi	r25, 0x00	; 0
    3cf2:	6f ef       	ldi	r22, 0xFF	; 255
    3cf4:	0e 94 f1 2e 	call	0x5de2	; 0x5de2 <EEPROM_Write>
  EEPROM_Write(100, 0);
    3cf8:	84 e6       	ldi	r24, 0x64	; 100
    3cfa:	90 e0       	ldi	r25, 0x00	; 0
    3cfc:	60 e0       	ldi	r22, 0x00	; 0
    3cfe:	0e 94 f1 2e 	call	0x5de2	; 0x5de2 <EEPROM_Write>
}
    3d02:	0f 90       	pop	r0
    3d04:	0f 90       	pop	r0
    3d06:	cf 91       	pop	r28
    3d08:	df 91       	pop	r29
    3d0a:	08 95       	ret

00003d0c <AppInit>:


void AppInit(void)
{
    3d0c:	df 93       	push	r29
    3d0e:	cf 93       	push	r28
    3d10:	cd b7       	in	r28, 0x3d	; 61
    3d12:	de b7       	in	r29, 0x3e	; 62
    //Store number of users, initially = 0
    EEPROM_Write( 100,  0);
    3d14:	84 e6       	ldi	r24, 0x64	; 100
    3d16:	90 e0       	ldi	r25, 0x00	; 0
    3d18:	60 e0       	ldi	r22, 0x00	; 0
    3d1a:	0e 94 f1 2e 	call	0x5de2	; 0x5de2 <EEPROM_Write>
    
    //Create admin username & pass
    EEPROM_Write( 101, '0');
    3d1e:	85 e6       	ldi	r24, 0x65	; 101
    3d20:	90 e0       	ldi	r25, 0x00	; 0
    3d22:	60 e3       	ldi	r22, 0x30	; 48
    3d24:	0e 94 f1 2e 	call	0x5de2	; 0x5de2 <EEPROM_Write>
    EEPROM_Write( 102, '0');
    3d28:	86 e6       	ldi	r24, 0x66	; 102
    3d2a:	90 e0       	ldi	r25, 0x00	; 0
    3d2c:	60 e3       	ldi	r22, 0x30	; 48
    3d2e:	0e 94 f1 2e 	call	0x5de2	; 0x5de2 <EEPROM_Write>
    EEPROM_Write( 103, '1');
    3d32:	87 e6       	ldi	r24, 0x67	; 103
    3d34:	90 e0       	ldi	r25, 0x00	; 0
    3d36:	61 e3       	ldi	r22, 0x31	; 49
    3d38:	0e 94 f1 2e 	call	0x5de2	; 0x5de2 <EEPROM_Write>
    EEPROM_Write( 104, '0');
    3d3c:	88 e6       	ldi	r24, 0x68	; 104
    3d3e:	90 e0       	ldi	r25, 0x00	; 0
    3d40:	60 e3       	ldi	r22, 0x30	; 48
    3d42:	0e 94 f1 2e 	call	0x5de2	; 0x5de2 <EEPROM_Write>
    EEPROM_Write( 105, '0');
    3d46:	89 e6       	ldi	r24, 0x69	; 105
    3d48:	90 e0       	ldi	r25, 0x00	; 0
    3d4a:	60 e3       	ldi	r22, 0x30	; 48
    3d4c:	0e 94 f1 2e 	call	0x5de2	; 0x5de2 <EEPROM_Write>
    EEPROM_Write( 106, '0');
    3d50:	8a e6       	ldi	r24, 0x6A	; 106
    3d52:	90 e0       	ldi	r25, 0x00	; 0
    3d54:	60 e3       	ldi	r22, 0x30	; 48
    3d56:	0e 94 f1 2e 	call	0x5de2	; 0x5de2 <EEPROM_Write>
    EEPROM_Write( 107, '0');
    3d5a:	8b e6       	ldi	r24, 0x6B	; 107
    3d5c:	90 e0       	ldi	r25, 0x00	; 0
    3d5e:	60 e3       	ldi	r22, 0x30	; 48
    3d60:	0e 94 f1 2e 	call	0x5de2	; 0x5de2 <EEPROM_Write>
}
    3d64:	cf 91       	pop	r28
    3d66:	df 91       	pop	r29
    3d68:	08 95       	ret

00003d6a <WelcomingMsg>:

void WelcomingMsg(void)
{
    3d6a:	df 93       	push	r29
    3d6c:	cf 93       	push	r28
    3d6e:	cd b7       	in	r28, 0x3d	; 61
    3d70:	de b7       	in	r29, 0x3e	; 62
    3d72:	2e 97       	sbiw	r28, 0x0e	; 14
    3d74:	0f b6       	in	r0, 0x3f	; 63
    3d76:	f8 94       	cli
    3d78:	de bf       	out	0x3e, r29	; 62
    3d7a:	0f be       	out	0x3f, r0	; 63
    3d7c:	cd bf       	out	0x3d, r28	; 61
  Lcd_vidCmd(_LCD_CLEAR);
    3d7e:	81 e0       	ldi	r24, 0x01	; 1
    3d80:	0e 94 e6 26 	call	0x4dcc	; 0x4dcc <Lcd_vidCmd>
  Lcd_vidDisplayStr("Welcome to Smart");
    3d84:	87 e6       	ldi	r24, 0x67	; 103
    3d86:	92 e0       	ldi	r25, 0x02	; 2
    3d88:	0e 94 34 27 	call	0x4e68	; 0x4e68 <Lcd_vidDisplayStr>
  Lcd_vidRowColumn(1, 0);
    3d8c:	81 e0       	ldi	r24, 0x01	; 1
    3d8e:	60 e0       	ldi	r22, 0x00	; 0
    3d90:	0e 94 0d 27 	call	0x4e1a	; 0x4e1a <Lcd_vidRowColumn>
  Lcd_vidDisplayStr("Home Project");
    3d94:	88 e7       	ldi	r24, 0x78	; 120
    3d96:	92 e0       	ldi	r25, 0x02	; 2
    3d98:	0e 94 34 27 	call	0x4e68	; 0x4e68 <Lcd_vidDisplayStr>
    3d9c:	80 e0       	ldi	r24, 0x00	; 0
    3d9e:	90 e0       	ldi	r25, 0x00	; 0
    3da0:	aa ef       	ldi	r26, 0xFA	; 250
    3da2:	b4 e4       	ldi	r27, 0x44	; 68
    3da4:	8b 87       	std	Y+11, r24	; 0x0b
    3da6:	9c 87       	std	Y+12, r25	; 0x0c
    3da8:	ad 87       	std	Y+13, r26	; 0x0d
    3daa:	be 87       	std	Y+14, r27	; 0x0e
 */
void
_delay_ms(double __ms)
{
	uint16_t __ticks;
	double __tmp = ((F_CPU) / 4e3) * __ms;
    3dac:	6b 85       	ldd	r22, Y+11	; 0x0b
    3dae:	7c 85       	ldd	r23, Y+12	; 0x0c
    3db0:	8d 85       	ldd	r24, Y+13	; 0x0d
    3db2:	9e 85       	ldd	r25, Y+14	; 0x0e
    3db4:	20 e0       	ldi	r18, 0x00	; 0
    3db6:	30 e0       	ldi	r19, 0x00	; 0
    3db8:	4a e7       	ldi	r20, 0x7A	; 122
    3dba:	55 e4       	ldi	r21, 0x45	; 69
    3dbc:	0e 94 9c 02 	call	0x538	; 0x538 <__mulsf3>
    3dc0:	dc 01       	movw	r26, r24
    3dc2:	cb 01       	movw	r24, r22
    3dc4:	8f 83       	std	Y+7, r24	; 0x07
    3dc6:	98 87       	std	Y+8, r25	; 0x08
    3dc8:	a9 87       	std	Y+9, r26	; 0x09
    3dca:	ba 87       	std	Y+10, r27	; 0x0a
	if (__tmp < 1.0)
    3dcc:	6f 81       	ldd	r22, Y+7	; 0x07
    3dce:	78 85       	ldd	r23, Y+8	; 0x08
    3dd0:	89 85       	ldd	r24, Y+9	; 0x09
    3dd2:	9a 85       	ldd	r25, Y+10	; 0x0a
    3dd4:	20 e0       	ldi	r18, 0x00	; 0
    3dd6:	30 e0       	ldi	r19, 0x00	; 0
    3dd8:	40 e8       	ldi	r20, 0x80	; 128
    3dda:	5f e3       	ldi	r21, 0x3F	; 63
    3ddc:	0e 94 a2 04 	call	0x944	; 0x944 <__ltsf2>
    3de0:	88 23       	and	r24, r24
    3de2:	2c f4       	brge	.+10     	; 0x3dee <WelcomingMsg+0x84>
		__ticks = 1;
    3de4:	81 e0       	ldi	r24, 0x01	; 1
    3de6:	90 e0       	ldi	r25, 0x00	; 0
    3de8:	9e 83       	std	Y+6, r25	; 0x06
    3dea:	8d 83       	std	Y+5, r24	; 0x05
    3dec:	3f c0       	rjmp	.+126    	; 0x3e6c <WelcomingMsg+0x102>
	else if (__tmp > 65535)
    3dee:	6f 81       	ldd	r22, Y+7	; 0x07
    3df0:	78 85       	ldd	r23, Y+8	; 0x08
    3df2:	89 85       	ldd	r24, Y+9	; 0x09
    3df4:	9a 85       	ldd	r25, Y+10	; 0x0a
    3df6:	20 e0       	ldi	r18, 0x00	; 0
    3df8:	3f ef       	ldi	r19, 0xFF	; 255
    3dfa:	4f e7       	ldi	r20, 0x7F	; 127
    3dfc:	57 e4       	ldi	r21, 0x47	; 71
    3dfe:	0e 94 42 04 	call	0x884	; 0x884 <__gtsf2>
    3e02:	18 16       	cp	r1, r24
    3e04:	4c f5       	brge	.+82     	; 0x3e58 <WelcomingMsg+0xee>
	{
		//	__ticks = requested delay in 1/10 ms
		__ticks = (uint16_t) (__ms * 10.0);
    3e06:	6b 85       	ldd	r22, Y+11	; 0x0b
    3e08:	7c 85       	ldd	r23, Y+12	; 0x0c
    3e0a:	8d 85       	ldd	r24, Y+13	; 0x0d
    3e0c:	9e 85       	ldd	r25, Y+14	; 0x0e
    3e0e:	20 e0       	ldi	r18, 0x00	; 0
    3e10:	30 e0       	ldi	r19, 0x00	; 0
    3e12:	40 e2       	ldi	r20, 0x20	; 32
    3e14:	51 e4       	ldi	r21, 0x41	; 65
    3e16:	0e 94 9c 02 	call	0x538	; 0x538 <__mulsf3>
    3e1a:	dc 01       	movw	r26, r24
    3e1c:	cb 01       	movw	r24, r22
    3e1e:	bc 01       	movw	r22, r24
    3e20:	cd 01       	movw	r24, r26
    3e22:	0e 94 c6 00 	call	0x18c	; 0x18c <__fixunssfsi>
    3e26:	dc 01       	movw	r26, r24
    3e28:	cb 01       	movw	r24, r22
    3e2a:	9e 83       	std	Y+6, r25	; 0x06
    3e2c:	8d 83       	std	Y+5, r24	; 0x05
    3e2e:	0f c0       	rjmp	.+30     	; 0x3e4e <WelcomingMsg+0xe4>
    3e30:	80 e9       	ldi	r24, 0x90	; 144
    3e32:	91 e0       	ldi	r25, 0x01	; 1
    3e34:	9c 83       	std	Y+4, r25	; 0x04
    3e36:	8b 83       	std	Y+3, r24	; 0x03
    3e38:	8b 81       	ldd	r24, Y+3	; 0x03
    3e3a:	9c 81       	ldd	r25, Y+4	; 0x04
    3e3c:	01 97       	sbiw	r24, 0x01	; 1
    3e3e:	f1 f7       	brne	.-4      	; 0x3e3c <WelcomingMsg+0xd2>
    3e40:	9c 83       	std	Y+4, r25	; 0x04
    3e42:	8b 83       	std	Y+3, r24	; 0x03
		while(__ticks)
		{
			// wait 1/10 ms
			_delay_loop_2(((F_CPU) / 4e3) / 10);
			__ticks --;
    3e44:	8d 81       	ldd	r24, Y+5	; 0x05
    3e46:	9e 81       	ldd	r25, Y+6	; 0x06
    3e48:	01 97       	sbiw	r24, 0x01	; 1
    3e4a:	9e 83       	std	Y+6, r25	; 0x06
    3e4c:	8d 83       	std	Y+5, r24	; 0x05
		__ticks = 1;
	else if (__tmp > 65535)
	{
		//	__ticks = requested delay in 1/10 ms
		__ticks = (uint16_t) (__ms * 10.0);
		while(__ticks)
    3e4e:	8d 81       	ldd	r24, Y+5	; 0x05
    3e50:	9e 81       	ldd	r25, Y+6	; 0x06
    3e52:	00 97       	sbiw	r24, 0x00	; 0
    3e54:	69 f7       	brne	.-38     	; 0x3e30 <WelcomingMsg+0xc6>
    3e56:	14 c0       	rjmp	.+40     	; 0x3e80 <WelcomingMsg+0x116>
			__ticks --;
		}
		return;
	}
	else
		__ticks = (uint16_t)__tmp;
    3e58:	6f 81       	ldd	r22, Y+7	; 0x07
    3e5a:	78 85       	ldd	r23, Y+8	; 0x08
    3e5c:	89 85       	ldd	r24, Y+9	; 0x09
    3e5e:	9a 85       	ldd	r25, Y+10	; 0x0a
    3e60:	0e 94 c6 00 	call	0x18c	; 0x18c <__fixunssfsi>
    3e64:	dc 01       	movw	r26, r24
    3e66:	cb 01       	movw	r24, r22
    3e68:	9e 83       	std	Y+6, r25	; 0x06
    3e6a:	8d 83       	std	Y+5, r24	; 0x05
    3e6c:	8d 81       	ldd	r24, Y+5	; 0x05
    3e6e:	9e 81       	ldd	r25, Y+6	; 0x06
    3e70:	9a 83       	std	Y+2, r25	; 0x02
    3e72:	89 83       	std	Y+1, r24	; 0x01
    3e74:	89 81       	ldd	r24, Y+1	; 0x01
    3e76:	9a 81       	ldd	r25, Y+2	; 0x02
    3e78:	01 97       	sbiw	r24, 0x01	; 1
    3e7a:	f1 f7       	brne	.-4      	; 0x3e78 <WelcomingMsg+0x10e>
    3e7c:	9a 83       	std	Y+2, r25	; 0x02
    3e7e:	89 83       	std	Y+1, r24	; 0x01
  _delay_ms(2000);
  Lcd_vidCmd(_LCD_CLEAR);
    3e80:	81 e0       	ldi	r24, 0x01	; 1
    3e82:	0e 94 e6 26 	call	0x4dcc	; 0x4dcc <Lcd_vidCmd>
  Hc05_SendString("Welcome to Smart Home Project");
    3e86:	85 e8       	ldi	r24, 0x85	; 133
    3e88:	92 e0       	ldi	r25, 0x02	; 2
    3e8a:	0e 94 17 29 	call	0x522e	; 0x522e <Hc05_SendString>
}
    3e8e:	2e 96       	adiw	r28, 0x0e	; 14
    3e90:	0f b6       	in	r0, 0x3f	; 63
    3e92:	f8 94       	cli
    3e94:	de bf       	out	0x3e, r29	; 62
    3e96:	0f be       	out	0x3f, r0	; 63
    3e98:	cd bf       	out	0x3d, r28	; 61
    3e9a:	cf 91       	pop	r28
    3e9c:	df 91       	pop	r29
    3e9e:	08 95       	ret

00003ea0 <CheckAC>:
  Relay_Off();
}*/


void CheckAC(u8 ACState)
{
    3ea0:	df 93       	push	r29
    3ea2:	cf 93       	push	r28
    3ea4:	00 d0       	rcall	.+0      	; 0x3ea6 <CheckAC+0x6>
    3ea6:	0f 92       	push	r0
    3ea8:	cd b7       	in	r28, 0x3d	; 61
    3eaa:	de b7       	in	r29, 0x3e	; 62
    3eac:	8b 83       	std	Y+3, r24	; 0x03
  if (ACState == 1)
    3eae:	8b 81       	ldd	r24, Y+3	; 0x03
    3eb0:	81 30       	cpi	r24, 0x01	; 1
    3eb2:	41 f5       	brne	.+80     	; 0x3f04 <CheckAC+0x64>
  {
      u16 Temperature = 0;
    3eb4:	1a 82       	std	Y+2, r1	; 0x02
    3eb6:	19 82       	std	Y+1, r1	; 0x01
      Temperature = Lm35_u8TempRead();
    3eb8:	0e 94 99 23 	call	0x4732	; 0x4732 <Lm35_u8TempRead>
    3ebc:	9a 83       	std	Y+2, r25	; 0x02
    3ebe:	89 83       	std	Y+1, r24	; 0x01
      if (Temperature >= 28)
    3ec0:	89 81       	ldd	r24, Y+1	; 0x01
    3ec2:	9a 81       	ldd	r25, Y+2	; 0x02
    3ec4:	8c 31       	cpi	r24, 0x1C	; 28
    3ec6:	91 05       	cpc	r25, r1
    3ec8:	20 f0       	brcs	.+8      	; 0x3ed2 <CheckAC+0x32>
      {
    	  Dc_Motor_vidStart(DIR_CW);
    3eca:	80 e0       	ldi	r24, 0x00	; 0
    3ecc:	0e 94 e1 29 	call	0x53c2	; 0x53c2 <Dc_Motor_vidStart>
    3ed0:	0d c0       	rjmp	.+26     	; 0x3eec <CheckAC+0x4c>
      }
      else if (Temperature < 21)
    3ed2:	89 81       	ldd	r24, Y+1	; 0x01
    3ed4:	9a 81       	ldd	r25, Y+2	; 0x02
    3ed6:	85 31       	cpi	r24, 0x15	; 21
    3ed8:	91 05       	cpc	r25, r1
    3eda:	40 f4       	brcc	.+16     	; 0x3eec <CheckAC+0x4c>
      {
    	  Led_vidledOn(LED1);
    3edc:	81 e0       	ldi	r24, 0x01	; 1
    3ede:	0e 94 00 23 	call	0x4600	; 0x4600 <Led_vidledOn>
    	  Led_vidledOff(LED0);
    3ee2:	80 e0       	ldi	r24, 0x00	; 0
    3ee4:	0e 94 31 23 	call	0x4662	; 0x4662 <Led_vidledOff>
    	  Dc_Motor_vidStop();
    3ee8:	0e 94 08 2a 	call	0x5410	; 0x5410 <Dc_Motor_vidStop>
      }
      Lcd_vidCmd(_LCD_CLEAR);
    3eec:	81 e0       	ldi	r24, 0x01	; 1
    3eee:	0e 94 e6 26 	call	0x4dcc	; 0x4dcc <Lcd_vidCmd>
      Lcd_vidDisplayStr("AC Opened");
    3ef2:	83 ea       	ldi	r24, 0xA3	; 163
    3ef4:	92 e0       	ldi	r25, 0x02	; 2
    3ef6:	0e 94 34 27 	call	0x4e68	; 0x4e68 <Lcd_vidDisplayStr>
      Hc05_SendString("AC Opened");
    3efa:	83 ea       	ldi	r24, 0xA3	; 163
    3efc:	92 e0       	ldi	r25, 0x02	; 2
    3efe:	0e 94 17 29 	call	0x522e	; 0x522e <Hc05_SendString>
    3f02:	0d c0       	rjmp	.+26     	; 0x3f1e <CheckAC+0x7e>
  }
  else
  {
	  Dc_Motor_vidStop();
    3f04:	0e 94 08 2a 	call	0x5410	; 0x5410 <Dc_Motor_vidStop>
	  Lcd_vidCmd(_LCD_CLEAR);
    3f08:	81 e0       	ldi	r24, 0x01	; 1
    3f0a:	0e 94 e6 26 	call	0x4dcc	; 0x4dcc <Lcd_vidCmd>
      Lcd_vidDisplayStr("AC Closed");
    3f0e:	8d ea       	ldi	r24, 0xAD	; 173
    3f10:	92 e0       	ldi	r25, 0x02	; 2
    3f12:	0e 94 34 27 	call	0x4e68	; 0x4e68 <Lcd_vidDisplayStr>
      Hc05_SendString("AC Closed");
    3f16:	8d ea       	ldi	r24, 0xAD	; 173
    3f18:	92 e0       	ldi	r25, 0x02	; 2
    3f1a:	0e 94 17 29 	call	0x522e	; 0x522e <Hc05_SendString>
  }
}
    3f1e:	0f 90       	pop	r0
    3f20:	0f 90       	pop	r0
    3f22:	0f 90       	pop	r0
    3f24:	cf 91       	pop	r28
    3f26:	df 91       	pop	r29
    3f28:	08 95       	ret

00003f2a <CheckRelay>:

void CheckRelay(u8 RelayState)
{
    3f2a:	df 93       	push	r29
    3f2c:	cf 93       	push	r28
    3f2e:	0f 92       	push	r0
    3f30:	cd b7       	in	r28, 0x3d	; 61
    3f32:	de b7       	in	r29, 0x3e	; 62
    3f34:	89 83       	std	Y+1, r24	; 0x01
  if (RelayState == 1)
    3f36:	89 81       	ldd	r24, Y+1	; 0x01
    3f38:	81 30       	cpi	r24, 0x01	; 1
    3f3a:	59 f4       	brne	.+22     	; 0x3f52 <CheckRelay+0x28>
  {
    Lcd_vidDisplayStr(" Relay On");
    3f3c:	87 eb       	ldi	r24, 0xB7	; 183
    3f3e:	92 e0       	ldi	r25, 0x02	; 2
    3f40:	0e 94 34 27 	call	0x4e68	; 0x4e68 <Lcd_vidDisplayStr>
    Hc05_SendString(" Relay On");
    3f44:	87 eb       	ldi	r24, 0xB7	; 183
    3f46:	92 e0       	ldi	r25, 0x02	; 2
    3f48:	0e 94 17 29 	call	0x522e	; 0x522e <Hc05_SendString>
    Relay_On();
    3f4c:	0e 94 d2 22 	call	0x45a4	; 0x45a4 <Relay_On>
    3f50:	0d c0       	rjmp	.+26     	; 0x3f6c <CheckRelay+0x42>
  }
  else if (RelayState == 0)
    3f52:	89 81       	ldd	r24, Y+1	; 0x01
    3f54:	88 23       	and	r24, r24
    3f56:	51 f4       	brne	.+20     	; 0x3f6c <CheckRelay+0x42>
  {
    Lcd_vidDisplayStr(" Relay Off");
    3f58:	81 ec       	ldi	r24, 0xC1	; 193
    3f5a:	92 e0       	ldi	r25, 0x02	; 2
    3f5c:	0e 94 34 27 	call	0x4e68	; 0x4e68 <Lcd_vidDisplayStr>
    Hc05_SendString(" Relay Off");
    3f60:	81 ec       	ldi	r24, 0xC1	; 193
    3f62:	92 e0       	ldi	r25, 0x02	; 2
    3f64:	0e 94 17 29 	call	0x522e	; 0x522e <Hc05_SendString>
    Relay_Off();
    3f68:	0e 94 de 22 	call	0x45bc	; 0x45bc <Relay_Off>
  }
}
    3f6c:	0f 90       	pop	r0
    3f6e:	cf 91       	pop	r28
    3f70:	df 91       	pop	r29
    3f72:	08 95       	ret

00003f74 <Reset>:


void Reset(u8* ACState, Door_State_t* DoorState, u8* RelayState)
{
    3f74:	df 93       	push	r29
    3f76:	cf 93       	push	r28
    3f78:	00 d0       	rcall	.+0      	; 0x3f7a <Reset+0x6>
    3f7a:	00 d0       	rcall	.+0      	; 0x3f7c <Reset+0x8>
    3f7c:	00 d0       	rcall	.+0      	; 0x3f7e <Reset+0xa>
    3f7e:	cd b7       	in	r28, 0x3d	; 61
    3f80:	de b7       	in	r29, 0x3e	; 62
    3f82:	9a 83       	std	Y+2, r25	; 0x02
    3f84:	89 83       	std	Y+1, r24	; 0x01
    3f86:	7c 83       	std	Y+4, r23	; 0x04
    3f88:	6b 83       	std	Y+3, r22	; 0x03
    3f8a:	5e 83       	std	Y+6, r21	; 0x06
    3f8c:	4d 83       	std	Y+5, r20	; 0x05
  *ACState = 0;
    3f8e:	e9 81       	ldd	r30, Y+1	; 0x01
    3f90:	fa 81       	ldd	r31, Y+2	; 0x02
    3f92:	10 82       	st	Z, r1
  *DoorState = CLOSED;
    3f94:	eb 81       	ldd	r30, Y+3	; 0x03
    3f96:	fc 81       	ldd	r31, Y+4	; 0x04
    3f98:	10 82       	st	Z, r1
  *RelayState = 0;
    3f9a:	ed 81       	ldd	r30, Y+5	; 0x05
    3f9c:	fe 81       	ldd	r31, Y+6	; 0x06
    3f9e:	10 82       	st	Z, r1
  Dc_Motor_vidStop();
    3fa0:	0e 94 08 2a 	call	0x5410	; 0x5410 <Dc_Motor_vidStop>
  ServoMotor_VidCloseDoor();
    3fa4:	0e 94 db 20 	call	0x41b6	; 0x41b6 <ServoMotor_VidCloseDoor>
  Relay_Off();
    3fa8:	0e 94 de 22 	call	0x45bc	; 0x45bc <Relay_Off>
  Hc05_SendString("A/C Off");
    3fac:	8c ec       	ldi	r24, 0xCC	; 204
    3fae:	92 e0       	ldi	r25, 0x02	; 2
    3fb0:	0e 94 17 29 	call	0x522e	; 0x522e <Hc05_SendString>
  Hc05_SendString("Door is closed");
    3fb4:	84 ed       	ldi	r24, 0xD4	; 212
    3fb6:	92 e0       	ldi	r25, 0x02	; 2
    3fb8:	0e 94 17 29 	call	0x522e	; 0x522e <Hc05_SendString>
  Hc05_SendString("Relay Off");
    3fbc:	83 ee       	ldi	r24, 0xE3	; 227
    3fbe:	92 e0       	ldi	r25, 0x02	; 2
    3fc0:	0e 94 17 29 	call	0x522e	; 0x522e <Hc05_SendString>
  Hc05_SendString("Resetting  the system...");
    3fc4:	8d ee       	ldi	r24, 0xED	; 237
    3fc6:	92 e0       	ldi	r25, 0x02	; 2
    3fc8:	0e 94 17 29 	call	0x522e	; 0x522e <Hc05_SendString>
  DeleteAll();
    3fcc:	0e 94 5f 1e 	call	0x3cbe	; 0x3cbe <DeleteAll>
  AppInit();
    3fd0:	0e 94 86 1e 	call	0x3d0c	; 0x3d0c <AppInit>
}
    3fd4:	26 96       	adiw	r28, 0x06	; 6
    3fd6:	0f b6       	in	r0, 0x3f	; 63
    3fd8:	f8 94       	cli
    3fda:	de bf       	out	0x3e, r29	; 62
    3fdc:	0f be       	out	0x3f, r0	; 63
    3fde:	cd bf       	out	0x3d, r28	; 61
    3fe0:	cf 91       	pop	r28
    3fe2:	df 91       	pop	r29
    3fe4:	08 95       	ret

00003fe6 <ServoMotor_VidInit>:
#include <util/delay.h>
#include "Lcd.h"
#include "Hc05.h"

void ServoMotor_VidInit(void)
{
    3fe6:	df 93       	push	r29
    3fe8:	cf 93       	push	r28
    3fea:	cd b7       	in	r28, 0x3d	; 61
    3fec:	de b7       	in	r29, 0x3e	; 62
    3fee:	28 97       	sbiw	r28, 0x08	; 8
    3ff0:	0f b6       	in	r0, 0x3f	; 63
    3ff2:	f8 94       	cli
    3ff4:	de bf       	out	0x3e, r29	; 62
    3ff6:	0f be       	out	0x3f, r0	; 63
    3ff8:	cd bf       	out	0x3d, r28	; 61
	// make OC1A pin as output
	DIO_DDRD_REG |= (1<<DIO_PIN5);
    3ffa:	a1 e3       	ldi	r26, 0x31	; 49
    3ffc:	b0 e0       	ldi	r27, 0x00	; 0
    3ffe:	e1 e3       	ldi	r30, 0x31	; 49
    4000:	f0 e0       	ldi	r31, 0x00	; 0
    4002:	80 81       	ld	r24, Z
    4004:	80 62       	ori	r24, 0x20	; 32
    4006:	8c 93       	st	X, r24


	// set timer1 counter as zero
	u32 loc_TCNT1_val = 0;
    4008:	1d 82       	std	Y+5, r1	; 0x05
    400a:	1e 82       	std	Y+6, r1	; 0x06
    400c:	1f 82       	std	Y+7, r1	; 0x07
    400e:	18 86       	std	Y+8, r1	; 0x08
	TIMER1_TCNT1H_REG = loc_TCNT1_val>>8;
    4010:	ed e4       	ldi	r30, 0x4D	; 77
    4012:	f0 e0       	ldi	r31, 0x00	; 0
    4014:	8d 81       	ldd	r24, Y+5	; 0x05
    4016:	9e 81       	ldd	r25, Y+6	; 0x06
    4018:	af 81       	ldd	r26, Y+7	; 0x07
    401a:	b8 85       	ldd	r27, Y+8	; 0x08
    401c:	89 2f       	mov	r24, r25
    401e:	9a 2f       	mov	r25, r26
    4020:	ab 2f       	mov	r26, r27
    4022:	bb 27       	eor	r27, r27
    4024:	80 83       	st	Z, r24
	TIMER1_TCNT1L_REG = loc_TCNT1_val;
    4026:	ec e4       	ldi	r30, 0x4C	; 76
    4028:	f0 e0       	ldi	r31, 0x00	; 0
    402a:	8d 81       	ldd	r24, Y+5	; 0x05
    402c:	80 83       	st	Z, r24

	// set top count for timer1 PWM frequency=50 Hz

	u32 loc_ICR1_val= 4999;
    402e:	87 e8       	ldi	r24, 0x87	; 135
    4030:	93 e1       	ldi	r25, 0x13	; 19
    4032:	a0 e0       	ldi	r26, 0x00	; 0
    4034:	b0 e0       	ldi	r27, 0x00	; 0
    4036:	89 83       	std	Y+1, r24	; 0x01
    4038:	9a 83       	std	Y+2, r25	; 0x02
    403a:	ab 83       	std	Y+3, r26	; 0x03
    403c:	bc 83       	std	Y+4, r27	; 0x04
	TIMER1_ICR1H_REG = loc_ICR1_val>>8;
    403e:	e7 e4       	ldi	r30, 0x47	; 71
    4040:	f0 e0       	ldi	r31, 0x00	; 0
    4042:	89 81       	ldd	r24, Y+1	; 0x01
    4044:	9a 81       	ldd	r25, Y+2	; 0x02
    4046:	ab 81       	ldd	r26, Y+3	; 0x03
    4048:	bc 81       	ldd	r27, Y+4	; 0x04
    404a:	89 2f       	mov	r24, r25
    404c:	9a 2f       	mov	r25, r26
    404e:	ab 2f       	mov	r26, r27
    4050:	bb 27       	eor	r27, r27
    4052:	80 83       	st	Z, r24
	TIMER1_ICR1L_REG = loc_ICR1_val;
    4054:	e6 e4       	ldi	r30, 0x46	; 70
    4056:	f0 e0       	ldi	r31, 0x00	; 0
    4058:	89 81       	ldd	r24, Y+1	; 0x01
    405a:	80 83       	st	Z, r24

	// set FAST PWM, clear OC1A, Prescaler=64
	TIMER1_TCCR1A_REG = (1<<WGM11)|(0<<WGM10)|(1<<COM1A1);
    405c:	ef e4       	ldi	r30, 0x4F	; 79
    405e:	f0 e0       	ldi	r31, 0x00	; 0
    4060:	82 e8       	ldi	r24, 0x82	; 130
    4062:	80 83       	st	Z, r24
	TIMER1_TCCR1B_REG = (1<<WGM12)|(1<<WGM13)|(1<<CS10)|(1<<CS11);
    4064:	ee e4       	ldi	r30, 0x4E	; 78
    4066:	f0 e0       	ldi	r31, 0x00	; 0
    4068:	8b e1       	ldi	r24, 0x1B	; 27
    406a:	80 83       	st	Z, r24

}
    406c:	28 96       	adiw	r28, 0x08	; 8
    406e:	0f b6       	in	r0, 0x3f	; 63
    4070:	f8 94       	cli
    4072:	de bf       	out	0x3e, r29	; 62
    4074:	0f be       	out	0x3f, r0	; 63
    4076:	cd bf       	out	0x3d, r28	; 61
    4078:	cf 91       	pop	r28
    407a:	df 91       	pop	r29
    407c:	08 95       	ret

0000407e <ServoMotor_VidOpenDoor>:




void ServoMotor_VidOpenDoor(void)
{
    407e:	df 93       	push	r29
    4080:	cf 93       	push	r28
    4082:	cd b7       	in	r28, 0x3d	; 61
    4084:	de b7       	in	r29, 0x3e	; 62
    4086:	62 97       	sbiw	r28, 0x12	; 18
    4088:	0f b6       	in	r0, 0x3f	; 63
    408a:	f8 94       	cli
    408c:	de bf       	out	0x3e, r29	; 62
    408e:	0f be       	out	0x3f, r0	; 63
    4090:	cd bf       	out	0x3d, r28	; 61

	// open door and position shaft at 90

	u32 loc_OCR1A_val = 350;
    4092:	8e e5       	ldi	r24, 0x5E	; 94
    4094:	91 e0       	ldi	r25, 0x01	; 1
    4096:	a0 e0       	ldi	r26, 0x00	; 0
    4098:	b0 e0       	ldi	r27, 0x00	; 0
    409a:	8f 87       	std	Y+15, r24	; 0x0f
    409c:	98 8b       	std	Y+16, r25	; 0x10
    409e:	a9 8b       	std	Y+17, r26	; 0x11
    40a0:	ba 8b       	std	Y+18, r27	; 0x12

	TIMER1_OCR1AH_REG = loc_OCR1A_val>>8;
    40a2:	eb e4       	ldi	r30, 0x4B	; 75
    40a4:	f0 e0       	ldi	r31, 0x00	; 0
    40a6:	8f 85       	ldd	r24, Y+15	; 0x0f
    40a8:	98 89       	ldd	r25, Y+16	; 0x10
    40aa:	a9 89       	ldd	r26, Y+17	; 0x11
    40ac:	ba 89       	ldd	r27, Y+18	; 0x12
    40ae:	89 2f       	mov	r24, r25
    40b0:	9a 2f       	mov	r25, r26
    40b2:	ab 2f       	mov	r26, r27
    40b4:	bb 27       	eor	r27, r27
    40b6:	80 83       	st	Z, r24

	TIMER1_OCR1AH_REG = loc_OCR1A_val;
    40b8:	eb e4       	ldi	r30, 0x4B	; 75
    40ba:	f0 e0       	ldi	r31, 0x00	; 0
    40bc:	8f 85       	ldd	r24, Y+15	; 0x0f
    40be:	80 83       	st	Z, r24
    40c0:	80 e0       	ldi	r24, 0x00	; 0
    40c2:	90 e0       	ldi	r25, 0x00	; 0
    40c4:	aa e7       	ldi	r26, 0x7A	; 122
    40c6:	b4 e4       	ldi	r27, 0x44	; 68
    40c8:	8b 87       	std	Y+11, r24	; 0x0b
    40ca:	9c 87       	std	Y+12, r25	; 0x0c
    40cc:	ad 87       	std	Y+13, r26	; 0x0d
    40ce:	be 87       	std	Y+14, r27	; 0x0e
 */
void
_delay_ms(double __ms)
{
	uint16_t __ticks;
	double __tmp = ((F_CPU) / 4e3) * __ms;
    40d0:	6b 85       	ldd	r22, Y+11	; 0x0b
    40d2:	7c 85       	ldd	r23, Y+12	; 0x0c
    40d4:	8d 85       	ldd	r24, Y+13	; 0x0d
    40d6:	9e 85       	ldd	r25, Y+14	; 0x0e
    40d8:	20 e0       	ldi	r18, 0x00	; 0
    40da:	30 e0       	ldi	r19, 0x00	; 0
    40dc:	4a e7       	ldi	r20, 0x7A	; 122
    40de:	55 e4       	ldi	r21, 0x45	; 69
    40e0:	0e 94 9c 02 	call	0x538	; 0x538 <__mulsf3>
    40e4:	dc 01       	movw	r26, r24
    40e6:	cb 01       	movw	r24, r22
    40e8:	8f 83       	std	Y+7, r24	; 0x07
    40ea:	98 87       	std	Y+8, r25	; 0x08
    40ec:	a9 87       	std	Y+9, r26	; 0x09
    40ee:	ba 87       	std	Y+10, r27	; 0x0a
	if (__tmp < 1.0)
    40f0:	6f 81       	ldd	r22, Y+7	; 0x07
    40f2:	78 85       	ldd	r23, Y+8	; 0x08
    40f4:	89 85       	ldd	r24, Y+9	; 0x09
    40f6:	9a 85       	ldd	r25, Y+10	; 0x0a
    40f8:	20 e0       	ldi	r18, 0x00	; 0
    40fa:	30 e0       	ldi	r19, 0x00	; 0
    40fc:	40 e8       	ldi	r20, 0x80	; 128
    40fe:	5f e3       	ldi	r21, 0x3F	; 63
    4100:	0e 94 a2 04 	call	0x944	; 0x944 <__ltsf2>
    4104:	88 23       	and	r24, r24
    4106:	2c f4       	brge	.+10     	; 0x4112 <ServoMotor_VidOpenDoor+0x94>
		__ticks = 1;
    4108:	81 e0       	ldi	r24, 0x01	; 1
    410a:	90 e0       	ldi	r25, 0x00	; 0
    410c:	9e 83       	std	Y+6, r25	; 0x06
    410e:	8d 83       	std	Y+5, r24	; 0x05
    4110:	3f c0       	rjmp	.+126    	; 0x4190 <ServoMotor_VidOpenDoor+0x112>
	else if (__tmp > 65535)
    4112:	6f 81       	ldd	r22, Y+7	; 0x07
    4114:	78 85       	ldd	r23, Y+8	; 0x08
    4116:	89 85       	ldd	r24, Y+9	; 0x09
    4118:	9a 85       	ldd	r25, Y+10	; 0x0a
    411a:	20 e0       	ldi	r18, 0x00	; 0
    411c:	3f ef       	ldi	r19, 0xFF	; 255
    411e:	4f e7       	ldi	r20, 0x7F	; 127
    4120:	57 e4       	ldi	r21, 0x47	; 71
    4122:	0e 94 42 04 	call	0x884	; 0x884 <__gtsf2>
    4126:	18 16       	cp	r1, r24
    4128:	4c f5       	brge	.+82     	; 0x417c <ServoMotor_VidOpenDoor+0xfe>
	{
		//	__ticks = requested delay in 1/10 ms
		__ticks = (uint16_t) (__ms * 10.0);
    412a:	6b 85       	ldd	r22, Y+11	; 0x0b
    412c:	7c 85       	ldd	r23, Y+12	; 0x0c
    412e:	8d 85       	ldd	r24, Y+13	; 0x0d
    4130:	9e 85       	ldd	r25, Y+14	; 0x0e
    4132:	20 e0       	ldi	r18, 0x00	; 0
    4134:	30 e0       	ldi	r19, 0x00	; 0
    4136:	40 e2       	ldi	r20, 0x20	; 32
    4138:	51 e4       	ldi	r21, 0x41	; 65
    413a:	0e 94 9c 02 	call	0x538	; 0x538 <__mulsf3>
    413e:	dc 01       	movw	r26, r24
    4140:	cb 01       	movw	r24, r22
    4142:	bc 01       	movw	r22, r24
    4144:	cd 01       	movw	r24, r26
    4146:	0e 94 c6 00 	call	0x18c	; 0x18c <__fixunssfsi>
    414a:	dc 01       	movw	r26, r24
    414c:	cb 01       	movw	r24, r22
    414e:	9e 83       	std	Y+6, r25	; 0x06
    4150:	8d 83       	std	Y+5, r24	; 0x05
    4152:	0f c0       	rjmp	.+30     	; 0x4172 <ServoMotor_VidOpenDoor+0xf4>
    4154:	80 e9       	ldi	r24, 0x90	; 144
    4156:	91 e0       	ldi	r25, 0x01	; 1
    4158:	9c 83       	std	Y+4, r25	; 0x04
    415a:	8b 83       	std	Y+3, r24	; 0x03
    415c:	8b 81       	ldd	r24, Y+3	; 0x03
    415e:	9c 81       	ldd	r25, Y+4	; 0x04
    4160:	01 97       	sbiw	r24, 0x01	; 1
    4162:	f1 f7       	brne	.-4      	; 0x4160 <ServoMotor_VidOpenDoor+0xe2>
    4164:	9c 83       	std	Y+4, r25	; 0x04
    4166:	8b 83       	std	Y+3, r24	; 0x03
		while(__ticks)
		{
			// wait 1/10 ms
			_delay_loop_2(((F_CPU) / 4e3) / 10);
			__ticks --;
    4168:	8d 81       	ldd	r24, Y+5	; 0x05
    416a:	9e 81       	ldd	r25, Y+6	; 0x06
    416c:	01 97       	sbiw	r24, 0x01	; 1
    416e:	9e 83       	std	Y+6, r25	; 0x06
    4170:	8d 83       	std	Y+5, r24	; 0x05
		__ticks = 1;
	else if (__tmp > 65535)
	{
		//	__ticks = requested delay in 1/10 ms
		__ticks = (uint16_t) (__ms * 10.0);
		while(__ticks)
    4172:	8d 81       	ldd	r24, Y+5	; 0x05
    4174:	9e 81       	ldd	r25, Y+6	; 0x06
    4176:	00 97       	sbiw	r24, 0x00	; 0
    4178:	69 f7       	brne	.-38     	; 0x4154 <ServoMotor_VidOpenDoor+0xd6>
    417a:	14 c0       	rjmp	.+40     	; 0x41a4 <ServoMotor_VidOpenDoor+0x126>
			__ticks --;
		}
		return;
	}
	else
		__ticks = (uint16_t)__tmp;
    417c:	6f 81       	ldd	r22, Y+7	; 0x07
    417e:	78 85       	ldd	r23, Y+8	; 0x08
    4180:	89 85       	ldd	r24, Y+9	; 0x09
    4182:	9a 85       	ldd	r25, Y+10	; 0x0a
    4184:	0e 94 c6 00 	call	0x18c	; 0x18c <__fixunssfsi>
    4188:	dc 01       	movw	r26, r24
    418a:	cb 01       	movw	r24, r22
    418c:	9e 83       	std	Y+6, r25	; 0x06
    418e:	8d 83       	std	Y+5, r24	; 0x05
    4190:	8d 81       	ldd	r24, Y+5	; 0x05
    4192:	9e 81       	ldd	r25, Y+6	; 0x06
    4194:	9a 83       	std	Y+2, r25	; 0x02
    4196:	89 83       	std	Y+1, r24	; 0x01
    4198:	89 81       	ldd	r24, Y+1	; 0x01
    419a:	9a 81       	ldd	r25, Y+2	; 0x02
    419c:	01 97       	sbiw	r24, 0x01	; 1
    419e:	f1 f7       	brne	.-4      	; 0x419c <ServoMotor_VidOpenDoor+0x11e>
    41a0:	9a 83       	std	Y+2, r25	; 0x02
    41a2:	89 83       	std	Y+1, r24	; 0x01

	// delay until motor stop

	_delay_ms(1000);
}
    41a4:	62 96       	adiw	r28, 0x12	; 18
    41a6:	0f b6       	in	r0, 0x3f	; 63
    41a8:	f8 94       	cli
    41aa:	de bf       	out	0x3e, r29	; 62
    41ac:	0f be       	out	0x3f, r0	; 63
    41ae:	cd bf       	out	0x3d, r28	; 61
    41b0:	cf 91       	pop	r28
    41b2:	df 91       	pop	r29
    41b4:	08 95       	ret

000041b6 <ServoMotor_VidCloseDoor>:



void ServoMotor_VidCloseDoor(void)
{
    41b6:	df 93       	push	r29
    41b8:	cf 93       	push	r28
    41ba:	cd b7       	in	r28, 0x3d	; 61
    41bc:	de b7       	in	r29, 0x3e	; 62
    41be:	62 97       	sbiw	r28, 0x12	; 18
    41c0:	0f b6       	in	r0, 0x3f	; 63
    41c2:	f8 94       	cli
    41c4:	de bf       	out	0x3e, r29	; 62
    41c6:	0f be       	out	0x3f, r0	; 63
    41c8:	cd bf       	out	0x3d, r28	; 61
	// open door and position shaft at 180

	u32 loc_OCR1A_val = 130;
    41ca:	82 e8       	ldi	r24, 0x82	; 130
    41cc:	90 e0       	ldi	r25, 0x00	; 0
    41ce:	a0 e0       	ldi	r26, 0x00	; 0
    41d0:	b0 e0       	ldi	r27, 0x00	; 0
    41d2:	8f 87       	std	Y+15, r24	; 0x0f
    41d4:	98 8b       	std	Y+16, r25	; 0x10
    41d6:	a9 8b       	std	Y+17, r26	; 0x11
    41d8:	ba 8b       	std	Y+18, r27	; 0x12

	TIMER1_OCR1AH_REG = loc_OCR1A_val>>8;
    41da:	eb e4       	ldi	r30, 0x4B	; 75
    41dc:	f0 e0       	ldi	r31, 0x00	; 0
    41de:	8f 85       	ldd	r24, Y+15	; 0x0f
    41e0:	98 89       	ldd	r25, Y+16	; 0x10
    41e2:	a9 89       	ldd	r26, Y+17	; 0x11
    41e4:	ba 89       	ldd	r27, Y+18	; 0x12
    41e6:	89 2f       	mov	r24, r25
    41e8:	9a 2f       	mov	r25, r26
    41ea:	ab 2f       	mov	r26, r27
    41ec:	bb 27       	eor	r27, r27
    41ee:	80 83       	st	Z, r24

	TIMER1_OCR1AH_REG = loc_OCR1A_val;
    41f0:	eb e4       	ldi	r30, 0x4B	; 75
    41f2:	f0 e0       	ldi	r31, 0x00	; 0
    41f4:	8f 85       	ldd	r24, Y+15	; 0x0f
    41f6:	80 83       	st	Z, r24
    41f8:	80 e0       	ldi	r24, 0x00	; 0
    41fa:	90 e0       	ldi	r25, 0x00	; 0
    41fc:	aa e7       	ldi	r26, 0x7A	; 122
    41fe:	b4 e4       	ldi	r27, 0x44	; 68
    4200:	8b 87       	std	Y+11, r24	; 0x0b
    4202:	9c 87       	std	Y+12, r25	; 0x0c
    4204:	ad 87       	std	Y+13, r26	; 0x0d
    4206:	be 87       	std	Y+14, r27	; 0x0e
 */
void
_delay_ms(double __ms)
{
	uint16_t __ticks;
	double __tmp = ((F_CPU) / 4e3) * __ms;
    4208:	6b 85       	ldd	r22, Y+11	; 0x0b
    420a:	7c 85       	ldd	r23, Y+12	; 0x0c
    420c:	8d 85       	ldd	r24, Y+13	; 0x0d
    420e:	9e 85       	ldd	r25, Y+14	; 0x0e
    4210:	20 e0       	ldi	r18, 0x00	; 0
    4212:	30 e0       	ldi	r19, 0x00	; 0
    4214:	4a e7       	ldi	r20, 0x7A	; 122
    4216:	55 e4       	ldi	r21, 0x45	; 69
    4218:	0e 94 9c 02 	call	0x538	; 0x538 <__mulsf3>
    421c:	dc 01       	movw	r26, r24
    421e:	cb 01       	movw	r24, r22
    4220:	8f 83       	std	Y+7, r24	; 0x07
    4222:	98 87       	std	Y+8, r25	; 0x08
    4224:	a9 87       	std	Y+9, r26	; 0x09
    4226:	ba 87       	std	Y+10, r27	; 0x0a
	if (__tmp < 1.0)
    4228:	6f 81       	ldd	r22, Y+7	; 0x07
    422a:	78 85       	ldd	r23, Y+8	; 0x08
    422c:	89 85       	ldd	r24, Y+9	; 0x09
    422e:	9a 85       	ldd	r25, Y+10	; 0x0a
    4230:	20 e0       	ldi	r18, 0x00	; 0
    4232:	30 e0       	ldi	r19, 0x00	; 0
    4234:	40 e8       	ldi	r20, 0x80	; 128
    4236:	5f e3       	ldi	r21, 0x3F	; 63
    4238:	0e 94 a2 04 	call	0x944	; 0x944 <__ltsf2>
    423c:	88 23       	and	r24, r24
    423e:	2c f4       	brge	.+10     	; 0x424a <ServoMotor_VidCloseDoor+0x94>
		__ticks = 1;
    4240:	81 e0       	ldi	r24, 0x01	; 1
    4242:	90 e0       	ldi	r25, 0x00	; 0
    4244:	9e 83       	std	Y+6, r25	; 0x06
    4246:	8d 83       	std	Y+5, r24	; 0x05
    4248:	3f c0       	rjmp	.+126    	; 0x42c8 <ServoMotor_VidCloseDoor+0x112>
	else if (__tmp > 65535)
    424a:	6f 81       	ldd	r22, Y+7	; 0x07
    424c:	78 85       	ldd	r23, Y+8	; 0x08
    424e:	89 85       	ldd	r24, Y+9	; 0x09
    4250:	9a 85       	ldd	r25, Y+10	; 0x0a
    4252:	20 e0       	ldi	r18, 0x00	; 0
    4254:	3f ef       	ldi	r19, 0xFF	; 255
    4256:	4f e7       	ldi	r20, 0x7F	; 127
    4258:	57 e4       	ldi	r21, 0x47	; 71
    425a:	0e 94 42 04 	call	0x884	; 0x884 <__gtsf2>
    425e:	18 16       	cp	r1, r24
    4260:	4c f5       	brge	.+82     	; 0x42b4 <ServoMotor_VidCloseDoor+0xfe>
	{
		//	__ticks = requested delay in 1/10 ms
		__ticks = (uint16_t) (__ms * 10.0);
    4262:	6b 85       	ldd	r22, Y+11	; 0x0b
    4264:	7c 85       	ldd	r23, Y+12	; 0x0c
    4266:	8d 85       	ldd	r24, Y+13	; 0x0d
    4268:	9e 85       	ldd	r25, Y+14	; 0x0e
    426a:	20 e0       	ldi	r18, 0x00	; 0
    426c:	30 e0       	ldi	r19, 0x00	; 0
    426e:	40 e2       	ldi	r20, 0x20	; 32
    4270:	51 e4       	ldi	r21, 0x41	; 65
    4272:	0e 94 9c 02 	call	0x538	; 0x538 <__mulsf3>
    4276:	dc 01       	movw	r26, r24
    4278:	cb 01       	movw	r24, r22
    427a:	bc 01       	movw	r22, r24
    427c:	cd 01       	movw	r24, r26
    427e:	0e 94 c6 00 	call	0x18c	; 0x18c <__fixunssfsi>
    4282:	dc 01       	movw	r26, r24
    4284:	cb 01       	movw	r24, r22
    4286:	9e 83       	std	Y+6, r25	; 0x06
    4288:	8d 83       	std	Y+5, r24	; 0x05
    428a:	0f c0       	rjmp	.+30     	; 0x42aa <ServoMotor_VidCloseDoor+0xf4>
    428c:	80 e9       	ldi	r24, 0x90	; 144
    428e:	91 e0       	ldi	r25, 0x01	; 1
    4290:	9c 83       	std	Y+4, r25	; 0x04
    4292:	8b 83       	std	Y+3, r24	; 0x03
    4294:	8b 81       	ldd	r24, Y+3	; 0x03
    4296:	9c 81       	ldd	r25, Y+4	; 0x04
    4298:	01 97       	sbiw	r24, 0x01	; 1
    429a:	f1 f7       	brne	.-4      	; 0x4298 <ServoMotor_VidCloseDoor+0xe2>
    429c:	9c 83       	std	Y+4, r25	; 0x04
    429e:	8b 83       	std	Y+3, r24	; 0x03
		while(__ticks)
		{
			// wait 1/10 ms
			_delay_loop_2(((F_CPU) / 4e3) / 10);
			__ticks --;
    42a0:	8d 81       	ldd	r24, Y+5	; 0x05
    42a2:	9e 81       	ldd	r25, Y+6	; 0x06
    42a4:	01 97       	sbiw	r24, 0x01	; 1
    42a6:	9e 83       	std	Y+6, r25	; 0x06
    42a8:	8d 83       	std	Y+5, r24	; 0x05
		__ticks = 1;
	else if (__tmp > 65535)
	{
		//	__ticks = requested delay in 1/10 ms
		__ticks = (uint16_t) (__ms * 10.0);
		while(__ticks)
    42aa:	8d 81       	ldd	r24, Y+5	; 0x05
    42ac:	9e 81       	ldd	r25, Y+6	; 0x06
    42ae:	00 97       	sbiw	r24, 0x00	; 0
    42b0:	69 f7       	brne	.-38     	; 0x428c <ServoMotor_VidCloseDoor+0xd6>
    42b2:	14 c0       	rjmp	.+40     	; 0x42dc <ServoMotor_VidCloseDoor+0x126>
			__ticks --;
		}
		return;
	}
	else
		__ticks = (uint16_t)__tmp;
    42b4:	6f 81       	ldd	r22, Y+7	; 0x07
    42b6:	78 85       	ldd	r23, Y+8	; 0x08
    42b8:	89 85       	ldd	r24, Y+9	; 0x09
    42ba:	9a 85       	ldd	r25, Y+10	; 0x0a
    42bc:	0e 94 c6 00 	call	0x18c	; 0x18c <__fixunssfsi>
    42c0:	dc 01       	movw	r26, r24
    42c2:	cb 01       	movw	r24, r22
    42c4:	9e 83       	std	Y+6, r25	; 0x06
    42c6:	8d 83       	std	Y+5, r24	; 0x05
    42c8:	8d 81       	ldd	r24, Y+5	; 0x05
    42ca:	9e 81       	ldd	r25, Y+6	; 0x06
    42cc:	9a 83       	std	Y+2, r25	; 0x02
    42ce:	89 83       	std	Y+1, r24	; 0x01
    42d0:	89 81       	ldd	r24, Y+1	; 0x01
    42d2:	9a 81       	ldd	r25, Y+2	; 0x02
    42d4:	01 97       	sbiw	r24, 0x01	; 1
    42d6:	f1 f7       	brne	.-4      	; 0x42d4 <ServoMotor_VidCloseDoor+0x11e>
    42d8:	9a 83       	std	Y+2, r25	; 0x02
    42da:	89 83       	std	Y+1, r24	; 0x01

	// delay until motor stop

	_delay_ms(1000);
}
    42dc:	62 96       	adiw	r28, 0x12	; 18
    42de:	0f b6       	in	r0, 0x3f	; 63
    42e0:	f8 94       	cli
    42e2:	de bf       	out	0x3e, r29	; 62
    42e4:	0f be       	out	0x3f, r0	; 63
    42e6:	cd bf       	out	0x3d, r28	; 61
    42e8:	cf 91       	pop	r28
    42ea:	df 91       	pop	r29
    42ec:	08 95       	ret

000042ee <ServoMotor_VidSwitchDoor>:


void ServoMotor_VidSwitchDoor (Door_State_t *DoorOpened)
{
    42ee:	df 93       	push	r29
    42f0:	cf 93       	push	r28
    42f2:	cd b7       	in	r28, 0x3d	; 61
    42f4:	de b7       	in	r29, 0x3e	; 62
    42f6:	6e 97       	sbiw	r28, 0x1e	; 30
    42f8:	0f b6       	in	r0, 0x3f	; 63
    42fa:	f8 94       	cli
    42fc:	de bf       	out	0x3e, r29	; 62
    42fe:	0f be       	out	0x3f, r0	; 63
    4300:	cd bf       	out	0x3d, r28	; 61
    4302:	9e 8f       	std	Y+30, r25	; 0x1e
    4304:	8d 8f       	std	Y+29, r24	; 0x1d
  if (*DoorOpened == 0)
    4306:	ed 8d       	ldd	r30, Y+29	; 0x1d
    4308:	fe 8d       	ldd	r31, Y+30	; 0x1e
    430a:	80 81       	ld	r24, Z
    430c:	88 23       	and	r24, r24
    430e:	09 f0       	breq	.+2      	; 0x4312 <ServoMotor_VidSwitchDoor+0x24>
    4310:	88 c0       	rjmp	.+272    	; 0x4422 <ServoMotor_VidSwitchDoor+0x134>
  {
    Lcd_vidCmd(_LCD_CLEAR);
    4312:	81 e0       	ldi	r24, 0x01	; 1
    4314:	0e 94 e6 26 	call	0x4dcc	; 0x4dcc <Lcd_vidCmd>
    Lcd_vidRowColumn(0, 0);
    4318:	80 e0       	ldi	r24, 0x00	; 0
    431a:	60 e0       	ldi	r22, 0x00	; 0
    431c:	0e 94 0d 27 	call	0x4e1a	; 0x4e1a <Lcd_vidRowColumn>
    Lcd_vidDisplayStr("Door Is Opened");
    4320:	86 e0       	ldi	r24, 0x06	; 6
    4322:	93 e0       	ldi	r25, 0x03	; 3
    4324:	0e 94 34 27 	call	0x4e68	; 0x4e68 <Lcd_vidDisplayStr>
    Hc05_SendString("Door Is Opened");
    4328:	86 e0       	ldi	r24, 0x06	; 6
    432a:	93 e0       	ldi	r25, 0x03	; 3
    432c:	0e 94 17 29 	call	0x522e	; 0x522e <Hc05_SendString>
    ServoMotor_VidOpenDoor();
    4330:	0e 94 3f 20 	call	0x407e	; 0x407e <ServoMotor_VidOpenDoor>
    4334:	80 e0       	ldi	r24, 0x00	; 0
    4336:	90 e0       	ldi	r25, 0x00	; 0
    4338:	aa ef       	ldi	r26, 0xFA	; 250
    433a:	b3 e4       	ldi	r27, 0x43	; 67
    433c:	89 8f       	std	Y+25, r24	; 0x19
    433e:	9a 8f       	std	Y+26, r25	; 0x1a
    4340:	ab 8f       	std	Y+27, r26	; 0x1b
    4342:	bc 8f       	std	Y+28, r27	; 0x1c
 */
void
_delay_ms(double __ms)
{
	uint16_t __ticks;
	double __tmp = ((F_CPU) / 4e3) * __ms;
    4344:	69 8d       	ldd	r22, Y+25	; 0x19
    4346:	7a 8d       	ldd	r23, Y+26	; 0x1a
    4348:	8b 8d       	ldd	r24, Y+27	; 0x1b
    434a:	9c 8d       	ldd	r25, Y+28	; 0x1c
    434c:	20 e0       	ldi	r18, 0x00	; 0
    434e:	30 e0       	ldi	r19, 0x00	; 0
    4350:	4a e7       	ldi	r20, 0x7A	; 122
    4352:	55 e4       	ldi	r21, 0x45	; 69
    4354:	0e 94 9c 02 	call	0x538	; 0x538 <__mulsf3>
    4358:	dc 01       	movw	r26, r24
    435a:	cb 01       	movw	r24, r22
    435c:	8d 8b       	std	Y+21, r24	; 0x15
    435e:	9e 8b       	std	Y+22, r25	; 0x16
    4360:	af 8b       	std	Y+23, r26	; 0x17
    4362:	b8 8f       	std	Y+24, r27	; 0x18
	if (__tmp < 1.0)
    4364:	6d 89       	ldd	r22, Y+21	; 0x15
    4366:	7e 89       	ldd	r23, Y+22	; 0x16
    4368:	8f 89       	ldd	r24, Y+23	; 0x17
    436a:	98 8d       	ldd	r25, Y+24	; 0x18
    436c:	20 e0       	ldi	r18, 0x00	; 0
    436e:	30 e0       	ldi	r19, 0x00	; 0
    4370:	40 e8       	ldi	r20, 0x80	; 128
    4372:	5f e3       	ldi	r21, 0x3F	; 63
    4374:	0e 94 a2 04 	call	0x944	; 0x944 <__ltsf2>
    4378:	88 23       	and	r24, r24
    437a:	2c f4       	brge	.+10     	; 0x4386 <ServoMotor_VidSwitchDoor+0x98>
		__ticks = 1;
    437c:	81 e0       	ldi	r24, 0x01	; 1
    437e:	90 e0       	ldi	r25, 0x00	; 0
    4380:	9c 8b       	std	Y+20, r25	; 0x14
    4382:	8b 8b       	std	Y+19, r24	; 0x13
    4384:	3f c0       	rjmp	.+126    	; 0x4404 <ServoMotor_VidSwitchDoor+0x116>
	else if (__tmp > 65535)
    4386:	6d 89       	ldd	r22, Y+21	; 0x15
    4388:	7e 89       	ldd	r23, Y+22	; 0x16
    438a:	8f 89       	ldd	r24, Y+23	; 0x17
    438c:	98 8d       	ldd	r25, Y+24	; 0x18
    438e:	20 e0       	ldi	r18, 0x00	; 0
    4390:	3f ef       	ldi	r19, 0xFF	; 255
    4392:	4f e7       	ldi	r20, 0x7F	; 127
    4394:	57 e4       	ldi	r21, 0x47	; 71
    4396:	0e 94 42 04 	call	0x884	; 0x884 <__gtsf2>
    439a:	18 16       	cp	r1, r24
    439c:	4c f5       	brge	.+82     	; 0x43f0 <ServoMotor_VidSwitchDoor+0x102>
	{
		//	__ticks = requested delay in 1/10 ms
		__ticks = (uint16_t) (__ms * 10.0);
    439e:	69 8d       	ldd	r22, Y+25	; 0x19
    43a0:	7a 8d       	ldd	r23, Y+26	; 0x1a
    43a2:	8b 8d       	ldd	r24, Y+27	; 0x1b
    43a4:	9c 8d       	ldd	r25, Y+28	; 0x1c
    43a6:	20 e0       	ldi	r18, 0x00	; 0
    43a8:	30 e0       	ldi	r19, 0x00	; 0
    43aa:	40 e2       	ldi	r20, 0x20	; 32
    43ac:	51 e4       	ldi	r21, 0x41	; 65
    43ae:	0e 94 9c 02 	call	0x538	; 0x538 <__mulsf3>
    43b2:	dc 01       	movw	r26, r24
    43b4:	cb 01       	movw	r24, r22
    43b6:	bc 01       	movw	r22, r24
    43b8:	cd 01       	movw	r24, r26
    43ba:	0e 94 c6 00 	call	0x18c	; 0x18c <__fixunssfsi>
    43be:	dc 01       	movw	r26, r24
    43c0:	cb 01       	movw	r24, r22
    43c2:	9c 8b       	std	Y+20, r25	; 0x14
    43c4:	8b 8b       	std	Y+19, r24	; 0x13
    43c6:	0f c0       	rjmp	.+30     	; 0x43e6 <ServoMotor_VidSwitchDoor+0xf8>
    43c8:	80 e9       	ldi	r24, 0x90	; 144
    43ca:	91 e0       	ldi	r25, 0x01	; 1
    43cc:	9a 8b       	std	Y+18, r25	; 0x12
    43ce:	89 8b       	std	Y+17, r24	; 0x11
    43d0:	89 89       	ldd	r24, Y+17	; 0x11
    43d2:	9a 89       	ldd	r25, Y+18	; 0x12
    43d4:	01 97       	sbiw	r24, 0x01	; 1
    43d6:	f1 f7       	brne	.-4      	; 0x43d4 <ServoMotor_VidSwitchDoor+0xe6>
    43d8:	9a 8b       	std	Y+18, r25	; 0x12
    43da:	89 8b       	std	Y+17, r24	; 0x11
		while(__ticks)
		{
			// wait 1/10 ms
			_delay_loop_2(((F_CPU) / 4e3) / 10);
			__ticks --;
    43dc:	8b 89       	ldd	r24, Y+19	; 0x13
    43de:	9c 89       	ldd	r25, Y+20	; 0x14
    43e0:	01 97       	sbiw	r24, 0x01	; 1
    43e2:	9c 8b       	std	Y+20, r25	; 0x14
    43e4:	8b 8b       	std	Y+19, r24	; 0x13
		__ticks = 1;
	else if (__tmp > 65535)
	{
		//	__ticks = requested delay in 1/10 ms
		__ticks = (uint16_t) (__ms * 10.0);
		while(__ticks)
    43e6:	8b 89       	ldd	r24, Y+19	; 0x13
    43e8:	9c 89       	ldd	r25, Y+20	; 0x14
    43ea:	00 97       	sbiw	r24, 0x00	; 0
    43ec:	69 f7       	brne	.-38     	; 0x43c8 <ServoMotor_VidSwitchDoor+0xda>
    43ee:	14 c0       	rjmp	.+40     	; 0x4418 <ServoMotor_VidSwitchDoor+0x12a>
			__ticks --;
		}
		return;
	}
	else
		__ticks = (uint16_t)__tmp;
    43f0:	6d 89       	ldd	r22, Y+21	; 0x15
    43f2:	7e 89       	ldd	r23, Y+22	; 0x16
    43f4:	8f 89       	ldd	r24, Y+23	; 0x17
    43f6:	98 8d       	ldd	r25, Y+24	; 0x18
    43f8:	0e 94 c6 00 	call	0x18c	; 0x18c <__fixunssfsi>
    43fc:	dc 01       	movw	r26, r24
    43fe:	cb 01       	movw	r24, r22
    4400:	9c 8b       	std	Y+20, r25	; 0x14
    4402:	8b 8b       	std	Y+19, r24	; 0x13
    4404:	8b 89       	ldd	r24, Y+19	; 0x13
    4406:	9c 89       	ldd	r25, Y+20	; 0x14
    4408:	98 8b       	std	Y+16, r25	; 0x10
    440a:	8f 87       	std	Y+15, r24	; 0x0f
    440c:	8f 85       	ldd	r24, Y+15	; 0x0f
    440e:	98 89       	ldd	r25, Y+16	; 0x10
    4410:	01 97       	sbiw	r24, 0x01	; 1
    4412:	f1 f7       	brne	.-4      	; 0x4410 <ServoMotor_VidSwitchDoor+0x122>
    4414:	98 8b       	std	Y+16, r25	; 0x10
    4416:	8f 87       	std	Y+15, r24	; 0x0f
    _delay_ms(500);
    *DoorOpened = OPENED;
    4418:	ed 8d       	ldd	r30, Y+29	; 0x1d
    441a:	fe 8d       	ldd	r31, Y+30	; 0x1e
    441c:	81 e0       	ldi	r24, 0x01	; 1
    441e:	80 83       	st	Z, r24
    4420:	86 c0       	rjmp	.+268    	; 0x452e <ServoMotor_VidSwitchDoor+0x240>
  }
  else
  {
	Lcd_vidCmd(_LCD_CLEAR);
    4422:	81 e0       	ldi	r24, 0x01	; 1
    4424:	0e 94 e6 26 	call	0x4dcc	; 0x4dcc <Lcd_vidCmd>
    Lcd_vidRowColumn(0, 0);
    4428:	80 e0       	ldi	r24, 0x00	; 0
    442a:	60 e0       	ldi	r22, 0x00	; 0
    442c:	0e 94 0d 27 	call	0x4e1a	; 0x4e1a <Lcd_vidRowColumn>
    Lcd_vidDisplayStr("Door Is Closed");
    4430:	85 e1       	ldi	r24, 0x15	; 21
    4432:	93 e0       	ldi	r25, 0x03	; 3
    4434:	0e 94 34 27 	call	0x4e68	; 0x4e68 <Lcd_vidDisplayStr>
    Hc05_SendString("Door Is Closed");
    4438:	85 e1       	ldi	r24, 0x15	; 21
    443a:	93 e0       	ldi	r25, 0x03	; 3
    443c:	0e 94 17 29 	call	0x522e	; 0x522e <Hc05_SendString>
    ServoMotor_VidCloseDoor();
    4440:	0e 94 db 20 	call	0x41b6	; 0x41b6 <ServoMotor_VidCloseDoor>
    4444:	80 e0       	ldi	r24, 0x00	; 0
    4446:	90 e0       	ldi	r25, 0x00	; 0
    4448:	aa ef       	ldi	r26, 0xFA	; 250
    444a:	b3 e4       	ldi	r27, 0x43	; 67
    444c:	8b 87       	std	Y+11, r24	; 0x0b
    444e:	9c 87       	std	Y+12, r25	; 0x0c
    4450:	ad 87       	std	Y+13, r26	; 0x0d
    4452:	be 87       	std	Y+14, r27	; 0x0e
 */
void
_delay_ms(double __ms)
{
	uint16_t __ticks;
	double __tmp = ((F_CPU) / 4e3) * __ms;
    4454:	6b 85       	ldd	r22, Y+11	; 0x0b
    4456:	7c 85       	ldd	r23, Y+12	; 0x0c
    4458:	8d 85       	ldd	r24, Y+13	; 0x0d
    445a:	9e 85       	ldd	r25, Y+14	; 0x0e
    445c:	20 e0       	ldi	r18, 0x00	; 0
    445e:	30 e0       	ldi	r19, 0x00	; 0
    4460:	4a e7       	ldi	r20, 0x7A	; 122
    4462:	55 e4       	ldi	r21, 0x45	; 69
    4464:	0e 94 9c 02 	call	0x538	; 0x538 <__mulsf3>
    4468:	dc 01       	movw	r26, r24
    446a:	cb 01       	movw	r24, r22
    446c:	8f 83       	std	Y+7, r24	; 0x07
    446e:	98 87       	std	Y+8, r25	; 0x08
    4470:	a9 87       	std	Y+9, r26	; 0x09
    4472:	ba 87       	std	Y+10, r27	; 0x0a
	if (__tmp < 1.0)
    4474:	6f 81       	ldd	r22, Y+7	; 0x07
    4476:	78 85       	ldd	r23, Y+8	; 0x08
    4478:	89 85       	ldd	r24, Y+9	; 0x09
    447a:	9a 85       	ldd	r25, Y+10	; 0x0a
    447c:	20 e0       	ldi	r18, 0x00	; 0
    447e:	30 e0       	ldi	r19, 0x00	; 0
    4480:	40 e8       	ldi	r20, 0x80	; 128
    4482:	5f e3       	ldi	r21, 0x3F	; 63
    4484:	0e 94 a2 04 	call	0x944	; 0x944 <__ltsf2>
    4488:	88 23       	and	r24, r24
    448a:	2c f4       	brge	.+10     	; 0x4496 <ServoMotor_VidSwitchDoor+0x1a8>
		__ticks = 1;
    448c:	81 e0       	ldi	r24, 0x01	; 1
    448e:	90 e0       	ldi	r25, 0x00	; 0
    4490:	9e 83       	std	Y+6, r25	; 0x06
    4492:	8d 83       	std	Y+5, r24	; 0x05
    4494:	3f c0       	rjmp	.+126    	; 0x4514 <ServoMotor_VidSwitchDoor+0x226>
	else if (__tmp > 65535)
    4496:	6f 81       	ldd	r22, Y+7	; 0x07
    4498:	78 85       	ldd	r23, Y+8	; 0x08
    449a:	89 85       	ldd	r24, Y+9	; 0x09
    449c:	9a 85       	ldd	r25, Y+10	; 0x0a
    449e:	20 e0       	ldi	r18, 0x00	; 0
    44a0:	3f ef       	ldi	r19, 0xFF	; 255
    44a2:	4f e7       	ldi	r20, 0x7F	; 127
    44a4:	57 e4       	ldi	r21, 0x47	; 71
    44a6:	0e 94 42 04 	call	0x884	; 0x884 <__gtsf2>
    44aa:	18 16       	cp	r1, r24
    44ac:	4c f5       	brge	.+82     	; 0x4500 <ServoMotor_VidSwitchDoor+0x212>
	{
		//	__ticks = requested delay in 1/10 ms
		__ticks = (uint16_t) (__ms * 10.0);
    44ae:	6b 85       	ldd	r22, Y+11	; 0x0b
    44b0:	7c 85       	ldd	r23, Y+12	; 0x0c
    44b2:	8d 85       	ldd	r24, Y+13	; 0x0d
    44b4:	9e 85       	ldd	r25, Y+14	; 0x0e
    44b6:	20 e0       	ldi	r18, 0x00	; 0
    44b8:	30 e0       	ldi	r19, 0x00	; 0
    44ba:	40 e2       	ldi	r20, 0x20	; 32
    44bc:	51 e4       	ldi	r21, 0x41	; 65
    44be:	0e 94 9c 02 	call	0x538	; 0x538 <__mulsf3>
    44c2:	dc 01       	movw	r26, r24
    44c4:	cb 01       	movw	r24, r22
    44c6:	bc 01       	movw	r22, r24
    44c8:	cd 01       	movw	r24, r26
    44ca:	0e 94 c6 00 	call	0x18c	; 0x18c <__fixunssfsi>
    44ce:	dc 01       	movw	r26, r24
    44d0:	cb 01       	movw	r24, r22
    44d2:	9e 83       	std	Y+6, r25	; 0x06
    44d4:	8d 83       	std	Y+5, r24	; 0x05
    44d6:	0f c0       	rjmp	.+30     	; 0x44f6 <ServoMotor_VidSwitchDoor+0x208>
    44d8:	80 e9       	ldi	r24, 0x90	; 144
    44da:	91 e0       	ldi	r25, 0x01	; 1
    44dc:	9c 83       	std	Y+4, r25	; 0x04
    44de:	8b 83       	std	Y+3, r24	; 0x03
    44e0:	8b 81       	ldd	r24, Y+3	; 0x03
    44e2:	9c 81       	ldd	r25, Y+4	; 0x04
    44e4:	01 97       	sbiw	r24, 0x01	; 1
    44e6:	f1 f7       	brne	.-4      	; 0x44e4 <ServoMotor_VidSwitchDoor+0x1f6>
    44e8:	9c 83       	std	Y+4, r25	; 0x04
    44ea:	8b 83       	std	Y+3, r24	; 0x03
		while(__ticks)
		{
			// wait 1/10 ms
			_delay_loop_2(((F_CPU) / 4e3) / 10);
			__ticks --;
    44ec:	8d 81       	ldd	r24, Y+5	; 0x05
    44ee:	9e 81       	ldd	r25, Y+6	; 0x06
    44f0:	01 97       	sbiw	r24, 0x01	; 1
    44f2:	9e 83       	std	Y+6, r25	; 0x06
    44f4:	8d 83       	std	Y+5, r24	; 0x05
		__ticks = 1;
	else if (__tmp > 65535)
	{
		//	__ticks = requested delay in 1/10 ms
		__ticks = (uint16_t) (__ms * 10.0);
		while(__ticks)
    44f6:	8d 81       	ldd	r24, Y+5	; 0x05
    44f8:	9e 81       	ldd	r25, Y+6	; 0x06
    44fa:	00 97       	sbiw	r24, 0x00	; 0
    44fc:	69 f7       	brne	.-38     	; 0x44d8 <ServoMotor_VidSwitchDoor+0x1ea>
    44fe:	14 c0       	rjmp	.+40     	; 0x4528 <ServoMotor_VidSwitchDoor+0x23a>
			__ticks --;
		}
		return;
	}
	else
		__ticks = (uint16_t)__tmp;
    4500:	6f 81       	ldd	r22, Y+7	; 0x07
    4502:	78 85       	ldd	r23, Y+8	; 0x08
    4504:	89 85       	ldd	r24, Y+9	; 0x09
    4506:	9a 85       	ldd	r25, Y+10	; 0x0a
    4508:	0e 94 c6 00 	call	0x18c	; 0x18c <__fixunssfsi>
    450c:	dc 01       	movw	r26, r24
    450e:	cb 01       	movw	r24, r22
    4510:	9e 83       	std	Y+6, r25	; 0x06
    4512:	8d 83       	std	Y+5, r24	; 0x05
    4514:	8d 81       	ldd	r24, Y+5	; 0x05
    4516:	9e 81       	ldd	r25, Y+6	; 0x06
    4518:	9a 83       	std	Y+2, r25	; 0x02
    451a:	89 83       	std	Y+1, r24	; 0x01
    451c:	89 81       	ldd	r24, Y+1	; 0x01
    451e:	9a 81       	ldd	r25, Y+2	; 0x02
    4520:	01 97       	sbiw	r24, 0x01	; 1
    4522:	f1 f7       	brne	.-4      	; 0x4520 <ServoMotor_VidSwitchDoor+0x232>
    4524:	9a 83       	std	Y+2, r25	; 0x02
    4526:	89 83       	std	Y+1, r24	; 0x01
    _delay_ms(500);
    *DoorOpened = CLOSED;
    4528:	ed 8d       	ldd	r30, Y+29	; 0x1d
    452a:	fe 8d       	ldd	r31, Y+30	; 0x1e
    452c:	10 82       	st	Z, r1
  }

}
    452e:	6e 96       	adiw	r28, 0x1e	; 30
    4530:	0f b6       	in	r0, 0x3f	; 63
    4532:	f8 94       	cli
    4534:	de bf       	out	0x3e, r29	; 62
    4536:	0f be       	out	0x3f, r0	; 63
    4538:	cd bf       	out	0x3d, r28	; 61
    453a:	cf 91       	pop	r28
    453c:	df 91       	pop	r29
    453e:	08 95       	ret

00004540 <ServoMotor_VidCheckDoor>:

void ServoMotor_VidCheckDoor(u8 DoorState)
{
    4540:	df 93       	push	r29
    4542:	cf 93       	push	r28
    4544:	0f 92       	push	r0
    4546:	cd b7       	in	r28, 0x3d	; 61
    4548:	de b7       	in	r29, 0x3e	; 62
    454a:	89 83       	std	Y+1, r24	; 0x01
  if (DoorState == OPENED)
    454c:	89 81       	ldd	r24, Y+1	; 0x01
    454e:	81 30       	cpi	r24, 0x01	; 1
    4550:	69 f4       	brne	.+26     	; 0x456c <ServoMotor_VidCheckDoor+0x2c>
  {
    Lcd_vidRowColumn(1, 0);
    4552:	81 e0       	ldi	r24, 0x01	; 1
    4554:	60 e0       	ldi	r22, 0x00	; 0
    4556:	0e 94 0d 27 	call	0x4e1a	; 0x4e1a <Lcd_vidRowColumn>
    Lcd_vidDisplayStr("Door Is Opened");
    455a:	86 e0       	ldi	r24, 0x06	; 6
    455c:	93 e0       	ldi	r25, 0x03	; 3
    455e:	0e 94 34 27 	call	0x4e68	; 0x4e68 <Lcd_vidDisplayStr>
    Hc05_SendString("Door Is Opened");
    4562:	86 e0       	ldi	r24, 0x06	; 6
    4564:	93 e0       	ldi	r25, 0x03	; 3
    4566:	0e 94 17 29 	call	0x522e	; 0x522e <Hc05_SendString>
    456a:	0c c0       	rjmp	.+24     	; 0x4584 <ServoMotor_VidCheckDoor+0x44>

  }
  else
  {
	Lcd_vidRowColumn(1, 0);
    456c:	81 e0       	ldi	r24, 0x01	; 1
    456e:	60 e0       	ldi	r22, 0x00	; 0
    4570:	0e 94 0d 27 	call	0x4e1a	; 0x4e1a <Lcd_vidRowColumn>
	Lcd_vidDisplayStr("Door Is Closed");
    4574:	85 e1       	ldi	r24, 0x15	; 21
    4576:	93 e0       	ldi	r25, 0x03	; 3
    4578:	0e 94 34 27 	call	0x4e68	; 0x4e68 <Lcd_vidDisplayStr>
    Hc05_SendString("Door Is Closed");
    457c:	85 e1       	ldi	r24, 0x15	; 21
    457e:	93 e0       	ldi	r25, 0x03	; 3
    4580:	0e 94 17 29 	call	0x522e	; 0x522e <Hc05_SendString>

  }

}
    4584:	0f 90       	pop	r0
    4586:	cf 91       	pop	r28
    4588:	df 91       	pop	r29
    458a:	08 95       	ret

0000458c <Relay_Init>:
 */ 

#include "Relay.h"

void	Relay_Init		(void)
{
    458c:	df 93       	push	r29
    458e:	cf 93       	push	r28
    4590:	cd b7       	in	r28, 0x3d	; 61
    4592:	de b7       	in	r29, 0x3e	; 62
	Dio_vidconfigChanel(DIO_PORTA,DIO_PIN4,DIO_OUTPUT);
    4594:	80 e0       	ldi	r24, 0x00	; 0
    4596:	64 e0       	ldi	r22, 0x04	; 4
    4598:	41 e0       	ldi	r20, 0x01	; 1
    459a:	0e 94 50 2f 	call	0x5ea0	; 0x5ea0 <Dio_vidconfigChanel>
}
    459e:	cf 91       	pop	r28
    45a0:	df 91       	pop	r29
    45a2:	08 95       	ret

000045a4 <Relay_On>:

void	Relay_On			(void)
{
    45a4:	df 93       	push	r29
    45a6:	cf 93       	push	r28
    45a8:	cd b7       	in	r28, 0x3d	; 61
    45aa:	de b7       	in	r29, 0x3e	; 62
	Dio_vidwriteChanel(DIO_PORTA,DIO_PIN4,DIO_HIGH);
    45ac:	80 e0       	ldi	r24, 0x00	; 0
    45ae:	64 e0       	ldi	r22, 0x04	; 4
    45b0:	41 e0       	ldi	r20, 0x01	; 1
    45b2:	0e 94 33 30 	call	0x6066	; 0x6066 <Dio_vidwriteChanel>

}
    45b6:	cf 91       	pop	r28
    45b8:	df 91       	pop	r29
    45ba:	08 95       	ret

000045bc <Relay_Off>:

void	Relay_Off		    (void)
{
    45bc:	df 93       	push	r29
    45be:	cf 93       	push	r28
    45c0:	cd b7       	in	r28, 0x3d	; 61
    45c2:	de b7       	in	r29, 0x3e	; 62
	Dio_vidwriteChanel(DIO_PORTA,DIO_PIN4,DIO_LOW);
    45c4:	80 e0       	ldi	r24, 0x00	; 0
    45c6:	64 e0       	ldi	r22, 0x04	; 4
    45c8:	40 e0       	ldi	r20, 0x00	; 0
    45ca:	0e 94 33 30 	call	0x6066	; 0x6066 <Dio_vidwriteChanel>
}
    45ce:	cf 91       	pop	r28
    45d0:	df 91       	pop	r29
    45d2:	08 95       	ret

000045d4 <Led_vidinit>:

#include "Dio.h"
#include "Led.h"

void Led_vidinit(void)
{
    45d4:	df 93       	push	r29
    45d6:	cf 93       	push	r28
    45d8:	cd b7       	in	r28, 0x3d	; 61
    45da:	de b7       	in	r29, 0x3e	; 62
	Dio_vidconfigChanel(DIO_PORTC, DIO_PIN2,DIO_OUTPUT);
    45dc:	82 e0       	ldi	r24, 0x02	; 2
    45de:	62 e0       	ldi	r22, 0x02	; 2
    45e0:	41 e0       	ldi	r20, 0x01	; 1
    45e2:	0e 94 50 2f 	call	0x5ea0	; 0x5ea0 <Dio_vidconfigChanel>
	Dio_vidconfigChanel(DIO_PORTC, DIO_PIN7,DIO_OUTPUT);
    45e6:	82 e0       	ldi	r24, 0x02	; 2
    45e8:	67 e0       	ldi	r22, 0x07	; 7
    45ea:	41 e0       	ldi	r20, 0x01	; 1
    45ec:	0e 94 50 2f 	call	0x5ea0	; 0x5ea0 <Dio_vidconfigChanel>
	Dio_vidconfigChanel(DIO_PORTD, DIO_PIN3,DIO_OUTPUT);
    45f0:	83 e0       	ldi	r24, 0x03	; 3
    45f2:	63 e0       	ldi	r22, 0x03	; 3
    45f4:	41 e0       	ldi	r20, 0x01	; 1
    45f6:	0e 94 50 2f 	call	0x5ea0	; 0x5ea0 <Dio_vidconfigChanel>
}
    45fa:	cf 91       	pop	r28
    45fc:	df 91       	pop	r29
    45fe:	08 95       	ret

00004600 <Led_vidledOn>:

void Led_vidledOn(led_ledId_t ledId)
{
    4600:	df 93       	push	r29
    4602:	cf 93       	push	r28
    4604:	00 d0       	rcall	.+0      	; 0x4606 <Led_vidledOn+0x6>
    4606:	0f 92       	push	r0
    4608:	cd b7       	in	r28, 0x3d	; 61
    460a:	de b7       	in	r29, 0x3e	; 62
    460c:	89 83       	std	Y+1, r24	; 0x01
	switch (ledId)
    460e:	89 81       	ldd	r24, Y+1	; 0x01
    4610:	28 2f       	mov	r18, r24
    4612:	30 e0       	ldi	r19, 0x00	; 0
    4614:	3b 83       	std	Y+3, r19	; 0x03
    4616:	2a 83       	std	Y+2, r18	; 0x02
    4618:	8a 81       	ldd	r24, Y+2	; 0x02
    461a:	9b 81       	ldd	r25, Y+3	; 0x03
    461c:	81 30       	cpi	r24, 0x01	; 1
    461e:	91 05       	cpc	r25, r1
    4620:	79 f0       	breq	.+30     	; 0x4640 <Led_vidledOn+0x40>
    4622:	2a 81       	ldd	r18, Y+2	; 0x02
    4624:	3b 81       	ldd	r19, Y+3	; 0x03
    4626:	22 30       	cpi	r18, 0x02	; 2
    4628:	31 05       	cpc	r19, r1
    462a:	81 f0       	breq	.+32     	; 0x464c <Led_vidledOn+0x4c>
    462c:	8a 81       	ldd	r24, Y+2	; 0x02
    462e:	9b 81       	ldd	r25, Y+3	; 0x03
    4630:	00 97       	sbiw	r24, 0x00	; 0
    4632:	89 f4       	brne	.+34     	; 0x4656 <Led_vidledOn+0x56>
	{
	case LED0:
		Dio_vidwriteChanel(DIO_PORTC, DIO_PIN2, DIO_HIGH);
    4634:	82 e0       	ldi	r24, 0x02	; 2
    4636:	62 e0       	ldi	r22, 0x02	; 2
    4638:	41 e0       	ldi	r20, 0x01	; 1
    463a:	0e 94 33 30 	call	0x6066	; 0x6066 <Dio_vidwriteChanel>
    463e:	0b c0       	rjmp	.+22     	; 0x4656 <Led_vidledOn+0x56>
		break;

	case LED1:
		Dio_vidwriteChanel(DIO_PORTC, DIO_PIN7, DIO_HIGH);
    4640:	82 e0       	ldi	r24, 0x02	; 2
    4642:	67 e0       	ldi	r22, 0x07	; 7
    4644:	41 e0       	ldi	r20, 0x01	; 1
    4646:	0e 94 33 30 	call	0x6066	; 0x6066 <Dio_vidwriteChanel>
    464a:	05 c0       	rjmp	.+10     	; 0x4656 <Led_vidledOn+0x56>
		break;

	case LED2:
		Dio_vidwriteChanel(DIO_PORTD, DIO_PIN3, DIO_HIGH);
    464c:	83 e0       	ldi	r24, 0x03	; 3
    464e:	63 e0       	ldi	r22, 0x03	; 3
    4650:	41 e0       	ldi	r20, 0x01	; 1
    4652:	0e 94 33 30 	call	0x6066	; 0x6066 <Dio_vidwriteChanel>
		break;
	}
}
    4656:	0f 90       	pop	r0
    4658:	0f 90       	pop	r0
    465a:	0f 90       	pop	r0
    465c:	cf 91       	pop	r28
    465e:	df 91       	pop	r29
    4660:	08 95       	ret

00004662 <Led_vidledOff>:

void Led_vidledOff(led_ledId_t ledId)
{
    4662:	df 93       	push	r29
    4664:	cf 93       	push	r28
    4666:	00 d0       	rcall	.+0      	; 0x4668 <Led_vidledOff+0x6>
    4668:	0f 92       	push	r0
    466a:	cd b7       	in	r28, 0x3d	; 61
    466c:	de b7       	in	r29, 0x3e	; 62
    466e:	89 83       	std	Y+1, r24	; 0x01
	switch (ledId)
    4670:	89 81       	ldd	r24, Y+1	; 0x01
    4672:	28 2f       	mov	r18, r24
    4674:	30 e0       	ldi	r19, 0x00	; 0
    4676:	3b 83       	std	Y+3, r19	; 0x03
    4678:	2a 83       	std	Y+2, r18	; 0x02
    467a:	8a 81       	ldd	r24, Y+2	; 0x02
    467c:	9b 81       	ldd	r25, Y+3	; 0x03
    467e:	81 30       	cpi	r24, 0x01	; 1
    4680:	91 05       	cpc	r25, r1
    4682:	79 f0       	breq	.+30     	; 0x46a2 <Led_vidledOff+0x40>
    4684:	2a 81       	ldd	r18, Y+2	; 0x02
    4686:	3b 81       	ldd	r19, Y+3	; 0x03
    4688:	22 30       	cpi	r18, 0x02	; 2
    468a:	31 05       	cpc	r19, r1
    468c:	81 f0       	breq	.+32     	; 0x46ae <Led_vidledOff+0x4c>
    468e:	8a 81       	ldd	r24, Y+2	; 0x02
    4690:	9b 81       	ldd	r25, Y+3	; 0x03
    4692:	00 97       	sbiw	r24, 0x00	; 0
    4694:	89 f4       	brne	.+34     	; 0x46b8 <Led_vidledOff+0x56>
	{
	case LED0:
		Dio_vidwriteChanel(DIO_PORTC, DIO_PIN2, DIO_LOW);
    4696:	82 e0       	ldi	r24, 0x02	; 2
    4698:	62 e0       	ldi	r22, 0x02	; 2
    469a:	40 e0       	ldi	r20, 0x00	; 0
    469c:	0e 94 33 30 	call	0x6066	; 0x6066 <Dio_vidwriteChanel>
    46a0:	0b c0       	rjmp	.+22     	; 0x46b8 <Led_vidledOff+0x56>
		break;

	case LED1:
		Dio_vidwriteChanel(DIO_PORTC, DIO_PIN7, DIO_LOW);
    46a2:	82 e0       	ldi	r24, 0x02	; 2
    46a4:	67 e0       	ldi	r22, 0x07	; 7
    46a6:	40 e0       	ldi	r20, 0x00	; 0
    46a8:	0e 94 33 30 	call	0x6066	; 0x6066 <Dio_vidwriteChanel>
    46ac:	05 c0       	rjmp	.+10     	; 0x46b8 <Led_vidledOff+0x56>
		break;

	case LED2:
		Dio_vidwriteChanel(DIO_PORTD, DIO_PIN3, DIO_LOW);
    46ae:	83 e0       	ldi	r24, 0x03	; 3
    46b0:	63 e0       	ldi	r22, 0x03	; 3
    46b2:	40 e0       	ldi	r20, 0x00	; 0
    46b4:	0e 94 33 30 	call	0x6066	; 0x6066 <Dio_vidwriteChanel>
		break;
	}
}
    46b8:	0f 90       	pop	r0
    46ba:	0f 90       	pop	r0
    46bc:	0f 90       	pop	r0
    46be:	cf 91       	pop	r28
    46c0:	df 91       	pop	r29
    46c2:	08 95       	ret

000046c4 <Led_vidledToggle>:
void Led_vidledToggle(led_ledId_t ledId)
{
    46c4:	df 93       	push	r29
    46c6:	cf 93       	push	r28
    46c8:	00 d0       	rcall	.+0      	; 0x46ca <Led_vidledToggle+0x6>
    46ca:	0f 92       	push	r0
    46cc:	cd b7       	in	r28, 0x3d	; 61
    46ce:	de b7       	in	r29, 0x3e	; 62
    46d0:	89 83       	std	Y+1, r24	; 0x01
	switch (ledId)
    46d2:	89 81       	ldd	r24, Y+1	; 0x01
    46d4:	28 2f       	mov	r18, r24
    46d6:	30 e0       	ldi	r19, 0x00	; 0
    46d8:	3b 83       	std	Y+3, r19	; 0x03
    46da:	2a 83       	std	Y+2, r18	; 0x02
    46dc:	8a 81       	ldd	r24, Y+2	; 0x02
    46de:	9b 81       	ldd	r25, Y+3	; 0x03
    46e0:	81 30       	cpi	r24, 0x01	; 1
    46e2:	91 05       	cpc	r25, r1
    46e4:	71 f0       	breq	.+28     	; 0x4702 <Led_vidledToggle+0x3e>
    46e6:	2a 81       	ldd	r18, Y+2	; 0x02
    46e8:	3b 81       	ldd	r19, Y+3	; 0x03
    46ea:	22 30       	cpi	r18, 0x02	; 2
    46ec:	31 05       	cpc	r19, r1
    46ee:	71 f0       	breq	.+28     	; 0x470c <Led_vidledToggle+0x48>
    46f0:	8a 81       	ldd	r24, Y+2	; 0x02
    46f2:	9b 81       	ldd	r25, Y+3	; 0x03
    46f4:	00 97       	sbiw	r24, 0x00	; 0
    46f6:	71 f4       	brne	.+28     	; 0x4714 <Led_vidledToggle+0x50>
	{
	case LED0:
		Dio_vidflipChanel(DIO_PORTC, DIO_PIN2);
    46f8:	82 e0       	ldi	r24, 0x02	; 2
    46fa:	62 e0       	ldi	r22, 0x02	; 2
    46fc:	0e 94 05 32 	call	0x640a	; 0x640a <Dio_vidflipChanel>
    4700:	09 c0       	rjmp	.+18     	; 0x4714 <Led_vidledToggle+0x50>
		break;

	case LED1:
		Dio_vidflipChanel(DIO_PORTC, DIO_PIN7);
    4702:	82 e0       	ldi	r24, 0x02	; 2
    4704:	67 e0       	ldi	r22, 0x07	; 7
    4706:	0e 94 05 32 	call	0x640a	; 0x640a <Dio_vidflipChanel>
    470a:	04 c0       	rjmp	.+8      	; 0x4714 <Led_vidledToggle+0x50>
		break;

	case LED2:
		Dio_vidflipChanel(DIO_PORTD, DIO_PIN3);
    470c:	83 e0       	ldi	r24, 0x03	; 3
    470e:	63 e0       	ldi	r22, 0x03	; 3
    4710:	0e 94 05 32 	call	0x640a	; 0x640a <Dio_vidflipChanel>
		break;
	}
}
    4714:	0f 90       	pop	r0
    4716:	0f 90       	pop	r0
    4718:	0f 90       	pop	r0
    471a:	cf 91       	pop	r28
    471c:	df 91       	pop	r29
    471e:	08 95       	ret

00004720 <Lm35_vidInit>:

#include "Std_Types.h"
#include "Adc.h"

void Lm35_vidInit(void)
{
    4720:	df 93       	push	r29
    4722:	cf 93       	push	r28
    4724:	cd b7       	in	r28, 0x3d	; 61
    4726:	de b7       	in	r29, 0x3e	; 62
	Adc_vidInit();
    4728:	0e 94 c8 36 	call	0x6d90	; 0x6d90 <Adc_vidInit>
}
    472c:	cf 91       	pop	r28
    472e:	df 91       	pop	r29
    4730:	08 95       	ret

00004732 <Lm35_u8TempRead>:
u16 Lm35_u8TempRead(void)
{
    4732:	df 93       	push	r29
    4734:	cf 93       	push	r28
    4736:	00 d0       	rcall	.+0      	; 0x4738 <Lm35_u8TempRead+0x6>
    4738:	00 d0       	rcall	.+0      	; 0x473a <Lm35_u8TempRead+0x8>
    473a:	00 d0       	rcall	.+0      	; 0x473c <Lm35_u8TempRead+0xa>
    473c:	cd b7       	in	r28, 0x3d	; 61
    473e:	de b7       	in	r29, 0x3e	; 62
	f64 loc_adcRead = 0;
    4740:	80 e0       	ldi	r24, 0x00	; 0
    4742:	90 e0       	ldi	r25, 0x00	; 0
    4744:	a0 e0       	ldi	r26, 0x00	; 0
    4746:	b0 e0       	ldi	r27, 0x00	; 0
    4748:	8b 83       	std	Y+3, r24	; 0x03
    474a:	9c 83       	std	Y+4, r25	; 0x04
    474c:	ad 83       	std	Y+5, r26	; 0x05
    474e:	be 83       	std	Y+6, r27	; 0x06
	u16 loc_temp = 0;
    4750:	1a 82       	std	Y+2, r1	; 0x02
    4752:	19 82       	std	Y+1, r1	; 0x01

	loc_adcRead = Adc_u16AdcRead(ADC_CHANNEL1);
    4754:	81 e0       	ldi	r24, 0x01	; 1
    4756:	0e 94 e4 36 	call	0x6dc8	; 0x6dc8 <Adc_u16AdcRead>
    475a:	dc 01       	movw	r26, r24
    475c:	cb 01       	movw	r24, r22
    475e:	8b 83       	std	Y+3, r24	; 0x03
    4760:	9c 83       	std	Y+4, r25	; 0x04
    4762:	ad 83       	std	Y+5, r26	; 0x05
    4764:	be 83       	std	Y+6, r27	; 0x06
	loc_temp = loc_adcRead/10;
    4766:	6b 81       	ldd	r22, Y+3	; 0x03
    4768:	7c 81       	ldd	r23, Y+4	; 0x04
    476a:	8d 81       	ldd	r24, Y+5	; 0x05
    476c:	9e 81       	ldd	r25, Y+6	; 0x06
    476e:	20 e0       	ldi	r18, 0x00	; 0
    4770:	30 e0       	ldi	r19, 0x00	; 0
    4772:	40 e2       	ldi	r20, 0x20	; 32
    4774:	51 e4       	ldi	r21, 0x41	; 65
    4776:	0e 94 96 03 	call	0x72c	; 0x72c <__divsf3>
    477a:	dc 01       	movw	r26, r24
    477c:	cb 01       	movw	r24, r22
    477e:	bc 01       	movw	r22, r24
    4780:	cd 01       	movw	r24, r26
    4782:	0e 94 c6 00 	call	0x18c	; 0x18c <__fixunssfsi>
    4786:	dc 01       	movw	r26, r24
    4788:	cb 01       	movw	r24, r22
    478a:	9a 83       	std	Y+2, r25	; 0x02
    478c:	89 83       	std	Y+1, r24	; 0x01

	return loc_temp;
    478e:	89 81       	ldd	r24, Y+1	; 0x01
    4790:	9a 81       	ldd	r25, Y+2	; 0x02
}
    4792:	26 96       	adiw	r28, 0x06	; 6
    4794:	0f b6       	in	r0, 0x3f	; 63
    4796:	f8 94       	cli
    4798:	de bf       	out	0x3e, r29	; 62
    479a:	0f be       	out	0x3f, r0	; 63
    479c:	cd bf       	out	0x3d, r28	; 61
    479e:	cf 91       	pop	r28
    47a0:	df 91       	pop	r29
    47a2:	08 95       	ret

000047a4 <Lcd_vidinit>:
#include <util/delay.h>



void Lcd_vidinit(void)
{
    47a4:	df 93       	push	r29
    47a6:	cf 93       	push	r28
    47a8:	cd b7       	in	r28, 0x3d	; 61
    47aa:	de b7       	in	r29, 0x3e	; 62
    47ac:	aa 97       	sbiw	r28, 0x2a	; 42
    47ae:	0f b6       	in	r0, 0x3f	; 63
    47b0:	f8 94       	cli
    47b2:	de bf       	out	0x3e, r29	; 62
    47b4:	0f be       	out	0x3f, r0	; 63
    47b6:	cd bf       	out	0x3d, r28	; 61
	//configure control pins as output
	Dio_vidconfigChanel(DIO_PORTB, DIO_PIN1, DIO_OUTPUT);
    47b8:	81 e0       	ldi	r24, 0x01	; 1
    47ba:	61 e0       	ldi	r22, 0x01	; 1
    47bc:	41 e0       	ldi	r20, 0x01	; 1
    47be:	0e 94 50 2f 	call	0x5ea0	; 0x5ea0 <Dio_vidconfigChanel>
	Dio_vidconfigChanel(DIO_PORTB, DIO_PIN2, DIO_OUTPUT);
    47c2:	81 e0       	ldi	r24, 0x01	; 1
    47c4:	62 e0       	ldi	r22, 0x02	; 2
    47c6:	41 e0       	ldi	r20, 0x01	; 1
    47c8:	0e 94 50 2f 	call	0x5ea0	; 0x5ea0 <Dio_vidconfigChanel>
	Dio_vidconfigChanel(DIO_PORTB, DIO_PIN3, DIO_OUTPUT);
    47cc:	81 e0       	ldi	r24, 0x01	; 1
    47ce:	63 e0       	ldi	r22, 0x03	; 3
    47d0:	41 e0       	ldi	r20, 0x01	; 1
    47d2:	0e 94 50 2f 	call	0x5ea0	; 0x5ea0 <Dio_vidconfigChanel>

	//configure data pins as output
	Dio_vidconfigChanel(DIO_PORTA, DIO_PIN4, DIO_OUTPUT);
    47d6:	80 e0       	ldi	r24, 0x00	; 0
    47d8:	64 e0       	ldi	r22, 0x04	; 4
    47da:	41 e0       	ldi	r20, 0x01	; 1
    47dc:	0e 94 50 2f 	call	0x5ea0	; 0x5ea0 <Dio_vidconfigChanel>
	Dio_vidconfigChanel(DIO_PORTA, DIO_PIN5, DIO_OUTPUT);
    47e0:	80 e0       	ldi	r24, 0x00	; 0
    47e2:	65 e0       	ldi	r22, 0x05	; 5
    47e4:	41 e0       	ldi	r20, 0x01	; 1
    47e6:	0e 94 50 2f 	call	0x5ea0	; 0x5ea0 <Dio_vidconfigChanel>
	Dio_vidconfigChanel(DIO_PORTA, DIO_PIN6, DIO_OUTPUT);
    47ea:	80 e0       	ldi	r24, 0x00	; 0
    47ec:	66 e0       	ldi	r22, 0x06	; 6
    47ee:	41 e0       	ldi	r20, 0x01	; 1
    47f0:	0e 94 50 2f 	call	0x5ea0	; 0x5ea0 <Dio_vidconfigChanel>
	Dio_vidconfigChanel(DIO_PORTA, DIO_PIN7, DIO_OUTPUT);
    47f4:	80 e0       	ldi	r24, 0x00	; 0
    47f6:	67 e0       	ldi	r22, 0x07	; 7
    47f8:	41 e0       	ldi	r20, 0x01	; 1
    47fa:	0e 94 50 2f 	call	0x5ea0	; 0x5ea0 <Dio_vidconfigChanel>

	//RW
	Dio_vidwriteChanel(DIO_PORTB, DIO_PIN2, DIO_LOW);
    47fe:	81 e0       	ldi	r24, 0x01	; 1
    4800:	62 e0       	ldi	r22, 0x02	; 2
    4802:	40 e0       	ldi	r20, 0x00	; 0
    4804:	0e 94 33 30 	call	0x6066	; 0x6066 <Dio_vidwriteChanel>
    4808:	80 e0       	ldi	r24, 0x00	; 0
    480a:	90 e0       	ldi	r25, 0x00	; 0
    480c:	a0 e7       	ldi	r26, 0x70	; 112
    480e:	b1 e4       	ldi	r27, 0x41	; 65
    4810:	8f a3       	std	Y+39, r24	; 0x27
    4812:	98 a7       	std	Y+40, r25	; 0x28
    4814:	a9 a7       	std	Y+41, r26	; 0x29
    4816:	ba a7       	std	Y+42, r27	; 0x2a
 */
void
_delay_ms(double __ms)
{
	uint16_t __ticks;
	double __tmp = ((F_CPU) / 4e3) * __ms;
    4818:	6f a1       	ldd	r22, Y+39	; 0x27
    481a:	78 a5       	ldd	r23, Y+40	; 0x28
    481c:	89 a5       	ldd	r24, Y+41	; 0x29
    481e:	9a a5       	ldd	r25, Y+42	; 0x2a
    4820:	20 e0       	ldi	r18, 0x00	; 0
    4822:	30 e0       	ldi	r19, 0x00	; 0
    4824:	4a e7       	ldi	r20, 0x7A	; 122
    4826:	55 e4       	ldi	r21, 0x45	; 69
    4828:	0e 94 9c 02 	call	0x538	; 0x538 <__mulsf3>
    482c:	dc 01       	movw	r26, r24
    482e:	cb 01       	movw	r24, r22
    4830:	8b a3       	std	Y+35, r24	; 0x23
    4832:	9c a3       	std	Y+36, r25	; 0x24
    4834:	ad a3       	std	Y+37, r26	; 0x25
    4836:	be a3       	std	Y+38, r27	; 0x26
	if (__tmp < 1.0)
    4838:	6b a1       	ldd	r22, Y+35	; 0x23
    483a:	7c a1       	ldd	r23, Y+36	; 0x24
    483c:	8d a1       	ldd	r24, Y+37	; 0x25
    483e:	9e a1       	ldd	r25, Y+38	; 0x26
    4840:	20 e0       	ldi	r18, 0x00	; 0
    4842:	30 e0       	ldi	r19, 0x00	; 0
    4844:	40 e8       	ldi	r20, 0x80	; 128
    4846:	5f e3       	ldi	r21, 0x3F	; 63
    4848:	0e 94 a2 04 	call	0x944	; 0x944 <__ltsf2>
    484c:	88 23       	and	r24, r24
    484e:	2c f4       	brge	.+10     	; 0x485a <Lcd_vidinit+0xb6>
		__ticks = 1;
    4850:	81 e0       	ldi	r24, 0x01	; 1
    4852:	90 e0       	ldi	r25, 0x00	; 0
    4854:	9a a3       	std	Y+34, r25	; 0x22
    4856:	89 a3       	std	Y+33, r24	; 0x21
    4858:	3f c0       	rjmp	.+126    	; 0x48d8 <Lcd_vidinit+0x134>
	else if (__tmp > 65535)
    485a:	6b a1       	ldd	r22, Y+35	; 0x23
    485c:	7c a1       	ldd	r23, Y+36	; 0x24
    485e:	8d a1       	ldd	r24, Y+37	; 0x25
    4860:	9e a1       	ldd	r25, Y+38	; 0x26
    4862:	20 e0       	ldi	r18, 0x00	; 0
    4864:	3f ef       	ldi	r19, 0xFF	; 255
    4866:	4f e7       	ldi	r20, 0x7F	; 127
    4868:	57 e4       	ldi	r21, 0x47	; 71
    486a:	0e 94 42 04 	call	0x884	; 0x884 <__gtsf2>
    486e:	18 16       	cp	r1, r24
    4870:	4c f5       	brge	.+82     	; 0x48c4 <Lcd_vidinit+0x120>
	{
		//	__ticks = requested delay in 1/10 ms
		__ticks = (uint16_t) (__ms * 10.0);
    4872:	6f a1       	ldd	r22, Y+39	; 0x27
    4874:	78 a5       	ldd	r23, Y+40	; 0x28
    4876:	89 a5       	ldd	r24, Y+41	; 0x29
    4878:	9a a5       	ldd	r25, Y+42	; 0x2a
    487a:	20 e0       	ldi	r18, 0x00	; 0
    487c:	30 e0       	ldi	r19, 0x00	; 0
    487e:	40 e2       	ldi	r20, 0x20	; 32
    4880:	51 e4       	ldi	r21, 0x41	; 65
    4882:	0e 94 9c 02 	call	0x538	; 0x538 <__mulsf3>
    4886:	dc 01       	movw	r26, r24
    4888:	cb 01       	movw	r24, r22
    488a:	bc 01       	movw	r22, r24
    488c:	cd 01       	movw	r24, r26
    488e:	0e 94 c6 00 	call	0x18c	; 0x18c <__fixunssfsi>
    4892:	dc 01       	movw	r26, r24
    4894:	cb 01       	movw	r24, r22
    4896:	9a a3       	std	Y+34, r25	; 0x22
    4898:	89 a3       	std	Y+33, r24	; 0x21
    489a:	0f c0       	rjmp	.+30     	; 0x48ba <Lcd_vidinit+0x116>
    489c:	80 e9       	ldi	r24, 0x90	; 144
    489e:	91 e0       	ldi	r25, 0x01	; 1
    48a0:	98 a3       	std	Y+32, r25	; 0x20
    48a2:	8f 8f       	std	Y+31, r24	; 0x1f
    48a4:	8f 8d       	ldd	r24, Y+31	; 0x1f
    48a6:	98 a1       	ldd	r25, Y+32	; 0x20
    48a8:	01 97       	sbiw	r24, 0x01	; 1
    48aa:	f1 f7       	brne	.-4      	; 0x48a8 <Lcd_vidinit+0x104>
    48ac:	98 a3       	std	Y+32, r25	; 0x20
    48ae:	8f 8f       	std	Y+31, r24	; 0x1f
		while(__ticks)
		{
			// wait 1/10 ms
			_delay_loop_2(((F_CPU) / 4e3) / 10);
			__ticks --;
    48b0:	89 a1       	ldd	r24, Y+33	; 0x21
    48b2:	9a a1       	ldd	r25, Y+34	; 0x22
    48b4:	01 97       	sbiw	r24, 0x01	; 1
    48b6:	9a a3       	std	Y+34, r25	; 0x22
    48b8:	89 a3       	std	Y+33, r24	; 0x21
		__ticks = 1;
	else if (__tmp > 65535)
	{
		//	__ticks = requested delay in 1/10 ms
		__ticks = (uint16_t) (__ms * 10.0);
		while(__ticks)
    48ba:	89 a1       	ldd	r24, Y+33	; 0x21
    48bc:	9a a1       	ldd	r25, Y+34	; 0x22
    48be:	00 97       	sbiw	r24, 0x00	; 0
    48c0:	69 f7       	brne	.-38     	; 0x489c <Lcd_vidinit+0xf8>
    48c2:	14 c0       	rjmp	.+40     	; 0x48ec <Lcd_vidinit+0x148>
			__ticks --;
		}
		return;
	}
	else
		__ticks = (uint16_t)__tmp;
    48c4:	6b a1       	ldd	r22, Y+35	; 0x23
    48c6:	7c a1       	ldd	r23, Y+36	; 0x24
    48c8:	8d a1       	ldd	r24, Y+37	; 0x25
    48ca:	9e a1       	ldd	r25, Y+38	; 0x26
    48cc:	0e 94 c6 00 	call	0x18c	; 0x18c <__fixunssfsi>
    48d0:	dc 01       	movw	r26, r24
    48d2:	cb 01       	movw	r24, r22
    48d4:	9a a3       	std	Y+34, r25	; 0x22
    48d6:	89 a3       	std	Y+33, r24	; 0x21
    48d8:	89 a1       	ldd	r24, Y+33	; 0x21
    48da:	9a a1       	ldd	r25, Y+34	; 0x22
    48dc:	9e 8f       	std	Y+30, r25	; 0x1e
    48de:	8d 8f       	std	Y+29, r24	; 0x1d
    48e0:	8d 8d       	ldd	r24, Y+29	; 0x1d
    48e2:	9e 8d       	ldd	r25, Y+30	; 0x1e
    48e4:	01 97       	sbiw	r24, 0x01	; 1
    48e6:	f1 f7       	brne	.-4      	; 0x48e4 <Lcd_vidinit+0x140>
    48e8:	9e 8f       	std	Y+30, r25	; 0x1e
    48ea:	8d 8f       	std	Y+29, r24	; 0x1d


_delay_ms(15);
Lcd_vidCmd(0x30);
    48ec:	80 e3       	ldi	r24, 0x30	; 48
    48ee:	0e 94 e6 26 	call	0x4dcc	; 0x4dcc <Lcd_vidCmd>
    48f2:	80 e0       	ldi	r24, 0x00	; 0
    48f4:	90 e0       	ldi	r25, 0x00	; 0
    48f6:	a0 ea       	ldi	r26, 0xA0	; 160
    48f8:	b0 e4       	ldi	r27, 0x40	; 64
    48fa:	89 8f       	std	Y+25, r24	; 0x19
    48fc:	9a 8f       	std	Y+26, r25	; 0x1a
    48fe:	ab 8f       	std	Y+27, r26	; 0x1b
    4900:	bc 8f       	std	Y+28, r27	; 0x1c
 */
void
_delay_ms(double __ms)
{
	uint16_t __ticks;
	double __tmp = ((F_CPU) / 4e3) * __ms;
    4902:	69 8d       	ldd	r22, Y+25	; 0x19
    4904:	7a 8d       	ldd	r23, Y+26	; 0x1a
    4906:	8b 8d       	ldd	r24, Y+27	; 0x1b
    4908:	9c 8d       	ldd	r25, Y+28	; 0x1c
    490a:	20 e0       	ldi	r18, 0x00	; 0
    490c:	30 e0       	ldi	r19, 0x00	; 0
    490e:	4a e7       	ldi	r20, 0x7A	; 122
    4910:	55 e4       	ldi	r21, 0x45	; 69
    4912:	0e 94 9c 02 	call	0x538	; 0x538 <__mulsf3>
    4916:	dc 01       	movw	r26, r24
    4918:	cb 01       	movw	r24, r22
    491a:	8d 8b       	std	Y+21, r24	; 0x15
    491c:	9e 8b       	std	Y+22, r25	; 0x16
    491e:	af 8b       	std	Y+23, r26	; 0x17
    4920:	b8 8f       	std	Y+24, r27	; 0x18
	if (__tmp < 1.0)
    4922:	6d 89       	ldd	r22, Y+21	; 0x15
    4924:	7e 89       	ldd	r23, Y+22	; 0x16
    4926:	8f 89       	ldd	r24, Y+23	; 0x17
    4928:	98 8d       	ldd	r25, Y+24	; 0x18
    492a:	20 e0       	ldi	r18, 0x00	; 0
    492c:	30 e0       	ldi	r19, 0x00	; 0
    492e:	40 e8       	ldi	r20, 0x80	; 128
    4930:	5f e3       	ldi	r21, 0x3F	; 63
    4932:	0e 94 a2 04 	call	0x944	; 0x944 <__ltsf2>
    4936:	88 23       	and	r24, r24
    4938:	2c f4       	brge	.+10     	; 0x4944 <Lcd_vidinit+0x1a0>
		__ticks = 1;
    493a:	81 e0       	ldi	r24, 0x01	; 1
    493c:	90 e0       	ldi	r25, 0x00	; 0
    493e:	9c 8b       	std	Y+20, r25	; 0x14
    4940:	8b 8b       	std	Y+19, r24	; 0x13
    4942:	3f c0       	rjmp	.+126    	; 0x49c2 <Lcd_vidinit+0x21e>
	else if (__tmp > 65535)
    4944:	6d 89       	ldd	r22, Y+21	; 0x15
    4946:	7e 89       	ldd	r23, Y+22	; 0x16
    4948:	8f 89       	ldd	r24, Y+23	; 0x17
    494a:	98 8d       	ldd	r25, Y+24	; 0x18
    494c:	20 e0       	ldi	r18, 0x00	; 0
    494e:	3f ef       	ldi	r19, 0xFF	; 255
    4950:	4f e7       	ldi	r20, 0x7F	; 127
    4952:	57 e4       	ldi	r21, 0x47	; 71
    4954:	0e 94 42 04 	call	0x884	; 0x884 <__gtsf2>
    4958:	18 16       	cp	r1, r24
    495a:	4c f5       	brge	.+82     	; 0x49ae <Lcd_vidinit+0x20a>
	{
		//	__ticks = requested delay in 1/10 ms
		__ticks = (uint16_t) (__ms * 10.0);
    495c:	69 8d       	ldd	r22, Y+25	; 0x19
    495e:	7a 8d       	ldd	r23, Y+26	; 0x1a
    4960:	8b 8d       	ldd	r24, Y+27	; 0x1b
    4962:	9c 8d       	ldd	r25, Y+28	; 0x1c
    4964:	20 e0       	ldi	r18, 0x00	; 0
    4966:	30 e0       	ldi	r19, 0x00	; 0
    4968:	40 e2       	ldi	r20, 0x20	; 32
    496a:	51 e4       	ldi	r21, 0x41	; 65
    496c:	0e 94 9c 02 	call	0x538	; 0x538 <__mulsf3>
    4970:	dc 01       	movw	r26, r24
    4972:	cb 01       	movw	r24, r22
    4974:	bc 01       	movw	r22, r24
    4976:	cd 01       	movw	r24, r26
    4978:	0e 94 c6 00 	call	0x18c	; 0x18c <__fixunssfsi>
    497c:	dc 01       	movw	r26, r24
    497e:	cb 01       	movw	r24, r22
    4980:	9c 8b       	std	Y+20, r25	; 0x14
    4982:	8b 8b       	std	Y+19, r24	; 0x13
    4984:	0f c0       	rjmp	.+30     	; 0x49a4 <Lcd_vidinit+0x200>
    4986:	80 e9       	ldi	r24, 0x90	; 144
    4988:	91 e0       	ldi	r25, 0x01	; 1
    498a:	9a 8b       	std	Y+18, r25	; 0x12
    498c:	89 8b       	std	Y+17, r24	; 0x11
    498e:	89 89       	ldd	r24, Y+17	; 0x11
    4990:	9a 89       	ldd	r25, Y+18	; 0x12
    4992:	01 97       	sbiw	r24, 0x01	; 1
    4994:	f1 f7       	brne	.-4      	; 0x4992 <Lcd_vidinit+0x1ee>
    4996:	9a 8b       	std	Y+18, r25	; 0x12
    4998:	89 8b       	std	Y+17, r24	; 0x11
		while(__ticks)
		{
			// wait 1/10 ms
			_delay_loop_2(((F_CPU) / 4e3) / 10);
			__ticks --;
    499a:	8b 89       	ldd	r24, Y+19	; 0x13
    499c:	9c 89       	ldd	r25, Y+20	; 0x14
    499e:	01 97       	sbiw	r24, 0x01	; 1
    49a0:	9c 8b       	std	Y+20, r25	; 0x14
    49a2:	8b 8b       	std	Y+19, r24	; 0x13
		__ticks = 1;
	else if (__tmp > 65535)
	{
		//	__ticks = requested delay in 1/10 ms
		__ticks = (uint16_t) (__ms * 10.0);
		while(__ticks)
    49a4:	8b 89       	ldd	r24, Y+19	; 0x13
    49a6:	9c 89       	ldd	r25, Y+20	; 0x14
    49a8:	00 97       	sbiw	r24, 0x00	; 0
    49aa:	69 f7       	brne	.-38     	; 0x4986 <Lcd_vidinit+0x1e2>
    49ac:	14 c0       	rjmp	.+40     	; 0x49d6 <Lcd_vidinit+0x232>
			__ticks --;
		}
		return;
	}
	else
		__ticks = (uint16_t)__tmp;
    49ae:	6d 89       	ldd	r22, Y+21	; 0x15
    49b0:	7e 89       	ldd	r23, Y+22	; 0x16
    49b2:	8f 89       	ldd	r24, Y+23	; 0x17
    49b4:	98 8d       	ldd	r25, Y+24	; 0x18
    49b6:	0e 94 c6 00 	call	0x18c	; 0x18c <__fixunssfsi>
    49ba:	dc 01       	movw	r26, r24
    49bc:	cb 01       	movw	r24, r22
    49be:	9c 8b       	std	Y+20, r25	; 0x14
    49c0:	8b 8b       	std	Y+19, r24	; 0x13
    49c2:	8b 89       	ldd	r24, Y+19	; 0x13
    49c4:	9c 89       	ldd	r25, Y+20	; 0x14
    49c6:	98 8b       	std	Y+16, r25	; 0x10
    49c8:	8f 87       	std	Y+15, r24	; 0x0f
    49ca:	8f 85       	ldd	r24, Y+15	; 0x0f
    49cc:	98 89       	ldd	r25, Y+16	; 0x10
    49ce:	01 97       	sbiw	r24, 0x01	; 1
    49d0:	f1 f7       	brne	.-4      	; 0x49ce <Lcd_vidinit+0x22a>
    49d2:	98 8b       	std	Y+16, r25	; 0x10
    49d4:	8f 87       	std	Y+15, r24	; 0x0f

_delay_ms(5);
Lcd_vidCmd(0x30);
    49d6:	80 e3       	ldi	r24, 0x30	; 48
    49d8:	0e 94 e6 26 	call	0x4dcc	; 0x4dcc <Lcd_vidCmd>
    49dc:	80 e0       	ldi	r24, 0x00	; 0
    49de:	90 e0       	ldi	r25, 0x00	; 0
    49e0:	a8 ec       	ldi	r26, 0xC8	; 200
    49e2:	b2 e4       	ldi	r27, 0x42	; 66
    49e4:	8b 87       	std	Y+11, r24	; 0x0b
    49e6:	9c 87       	std	Y+12, r25	; 0x0c
    49e8:	ad 87       	std	Y+13, r26	; 0x0d
    49ea:	be 87       	std	Y+14, r27	; 0x0e
 */
void
_delay_ms(double __ms)
{
	uint16_t __ticks;
	double __tmp = ((F_CPU) / 4e3) * __ms;
    49ec:	6b 85       	ldd	r22, Y+11	; 0x0b
    49ee:	7c 85       	ldd	r23, Y+12	; 0x0c
    49f0:	8d 85       	ldd	r24, Y+13	; 0x0d
    49f2:	9e 85       	ldd	r25, Y+14	; 0x0e
    49f4:	20 e0       	ldi	r18, 0x00	; 0
    49f6:	30 e0       	ldi	r19, 0x00	; 0
    49f8:	4a e7       	ldi	r20, 0x7A	; 122
    49fa:	55 e4       	ldi	r21, 0x45	; 69
    49fc:	0e 94 9c 02 	call	0x538	; 0x538 <__mulsf3>
    4a00:	dc 01       	movw	r26, r24
    4a02:	cb 01       	movw	r24, r22
    4a04:	8f 83       	std	Y+7, r24	; 0x07
    4a06:	98 87       	std	Y+8, r25	; 0x08
    4a08:	a9 87       	std	Y+9, r26	; 0x09
    4a0a:	ba 87       	std	Y+10, r27	; 0x0a
	if (__tmp < 1.0)
    4a0c:	6f 81       	ldd	r22, Y+7	; 0x07
    4a0e:	78 85       	ldd	r23, Y+8	; 0x08
    4a10:	89 85       	ldd	r24, Y+9	; 0x09
    4a12:	9a 85       	ldd	r25, Y+10	; 0x0a
    4a14:	20 e0       	ldi	r18, 0x00	; 0
    4a16:	30 e0       	ldi	r19, 0x00	; 0
    4a18:	40 e8       	ldi	r20, 0x80	; 128
    4a1a:	5f e3       	ldi	r21, 0x3F	; 63
    4a1c:	0e 94 a2 04 	call	0x944	; 0x944 <__ltsf2>
    4a20:	88 23       	and	r24, r24
    4a22:	2c f4       	brge	.+10     	; 0x4a2e <Lcd_vidinit+0x28a>
		__ticks = 1;
    4a24:	81 e0       	ldi	r24, 0x01	; 1
    4a26:	90 e0       	ldi	r25, 0x00	; 0
    4a28:	9e 83       	std	Y+6, r25	; 0x06
    4a2a:	8d 83       	std	Y+5, r24	; 0x05
    4a2c:	3f c0       	rjmp	.+126    	; 0x4aac <Lcd_vidinit+0x308>
	else if (__tmp > 65535)
    4a2e:	6f 81       	ldd	r22, Y+7	; 0x07
    4a30:	78 85       	ldd	r23, Y+8	; 0x08
    4a32:	89 85       	ldd	r24, Y+9	; 0x09
    4a34:	9a 85       	ldd	r25, Y+10	; 0x0a
    4a36:	20 e0       	ldi	r18, 0x00	; 0
    4a38:	3f ef       	ldi	r19, 0xFF	; 255
    4a3a:	4f e7       	ldi	r20, 0x7F	; 127
    4a3c:	57 e4       	ldi	r21, 0x47	; 71
    4a3e:	0e 94 42 04 	call	0x884	; 0x884 <__gtsf2>
    4a42:	18 16       	cp	r1, r24
    4a44:	4c f5       	brge	.+82     	; 0x4a98 <Lcd_vidinit+0x2f4>
	{
		//	__ticks = requested delay in 1/10 ms
		__ticks = (uint16_t) (__ms * 10.0);
    4a46:	6b 85       	ldd	r22, Y+11	; 0x0b
    4a48:	7c 85       	ldd	r23, Y+12	; 0x0c
    4a4a:	8d 85       	ldd	r24, Y+13	; 0x0d
    4a4c:	9e 85       	ldd	r25, Y+14	; 0x0e
    4a4e:	20 e0       	ldi	r18, 0x00	; 0
    4a50:	30 e0       	ldi	r19, 0x00	; 0
    4a52:	40 e2       	ldi	r20, 0x20	; 32
    4a54:	51 e4       	ldi	r21, 0x41	; 65
    4a56:	0e 94 9c 02 	call	0x538	; 0x538 <__mulsf3>
    4a5a:	dc 01       	movw	r26, r24
    4a5c:	cb 01       	movw	r24, r22
    4a5e:	bc 01       	movw	r22, r24
    4a60:	cd 01       	movw	r24, r26
    4a62:	0e 94 c6 00 	call	0x18c	; 0x18c <__fixunssfsi>
    4a66:	dc 01       	movw	r26, r24
    4a68:	cb 01       	movw	r24, r22
    4a6a:	9e 83       	std	Y+6, r25	; 0x06
    4a6c:	8d 83       	std	Y+5, r24	; 0x05
    4a6e:	0f c0       	rjmp	.+30     	; 0x4a8e <Lcd_vidinit+0x2ea>
    4a70:	80 e9       	ldi	r24, 0x90	; 144
    4a72:	91 e0       	ldi	r25, 0x01	; 1
    4a74:	9c 83       	std	Y+4, r25	; 0x04
    4a76:	8b 83       	std	Y+3, r24	; 0x03
    4a78:	8b 81       	ldd	r24, Y+3	; 0x03
    4a7a:	9c 81       	ldd	r25, Y+4	; 0x04
    4a7c:	01 97       	sbiw	r24, 0x01	; 1
    4a7e:	f1 f7       	brne	.-4      	; 0x4a7c <Lcd_vidinit+0x2d8>
    4a80:	9c 83       	std	Y+4, r25	; 0x04
    4a82:	8b 83       	std	Y+3, r24	; 0x03
		while(__ticks)
		{
			// wait 1/10 ms
			_delay_loop_2(((F_CPU) / 4e3) / 10);
			__ticks --;
    4a84:	8d 81       	ldd	r24, Y+5	; 0x05
    4a86:	9e 81       	ldd	r25, Y+6	; 0x06
    4a88:	01 97       	sbiw	r24, 0x01	; 1
    4a8a:	9e 83       	std	Y+6, r25	; 0x06
    4a8c:	8d 83       	std	Y+5, r24	; 0x05
		__ticks = 1;
	else if (__tmp > 65535)
	{
		//	__ticks = requested delay in 1/10 ms
		__ticks = (uint16_t) (__ms * 10.0);
		while(__ticks)
    4a8e:	8d 81       	ldd	r24, Y+5	; 0x05
    4a90:	9e 81       	ldd	r25, Y+6	; 0x06
    4a92:	00 97       	sbiw	r24, 0x00	; 0
    4a94:	69 f7       	brne	.-38     	; 0x4a70 <Lcd_vidinit+0x2cc>
    4a96:	14 c0       	rjmp	.+40     	; 0x4ac0 <Lcd_vidinit+0x31c>
			__ticks --;
		}
		return;
	}
	else
		__ticks = (uint16_t)__tmp;
    4a98:	6f 81       	ldd	r22, Y+7	; 0x07
    4a9a:	78 85       	ldd	r23, Y+8	; 0x08
    4a9c:	89 85       	ldd	r24, Y+9	; 0x09
    4a9e:	9a 85       	ldd	r25, Y+10	; 0x0a
    4aa0:	0e 94 c6 00 	call	0x18c	; 0x18c <__fixunssfsi>
    4aa4:	dc 01       	movw	r26, r24
    4aa6:	cb 01       	movw	r24, r22
    4aa8:	9e 83       	std	Y+6, r25	; 0x06
    4aaa:	8d 83       	std	Y+5, r24	; 0x05
    4aac:	8d 81       	ldd	r24, Y+5	; 0x05
    4aae:	9e 81       	ldd	r25, Y+6	; 0x06
    4ab0:	9a 83       	std	Y+2, r25	; 0x02
    4ab2:	89 83       	std	Y+1, r24	; 0x01
    4ab4:	89 81       	ldd	r24, Y+1	; 0x01
    4ab6:	9a 81       	ldd	r25, Y+2	; 0x02
    4ab8:	01 97       	sbiw	r24, 0x01	; 1
    4aba:	f1 f7       	brne	.-4      	; 0x4ab8 <Lcd_vidinit+0x314>
    4abc:	9a 83       	std	Y+2, r25	; 0x02
    4abe:	89 83       	std	Y+1, r24	; 0x01

_delay_ms(100);
Lcd_vidCmd(0x03);
    4ac0:	83 e0       	ldi	r24, 0x03	; 3
    4ac2:	0e 94 e6 26 	call	0x4dcc	; 0x4dcc <Lcd_vidCmd>
Lcd_vidCmd(0x02);
    4ac6:	82 e0       	ldi	r24, 0x02	; 2
    4ac8:	0e 94 e6 26 	call	0x4dcc	; 0x4dcc <Lcd_vidCmd>
Lcd_vidCmd(_LCD_4BIT_MODE);
    4acc:	88 e2       	ldi	r24, 0x28	; 40
    4ace:	0e 94 e6 26 	call	0x4dcc	; 0x4dcc <Lcd_vidCmd>

}
    4ad2:	aa 96       	adiw	r28, 0x2a	; 42
    4ad4:	0f b6       	in	r0, 0x3f	; 63
    4ad6:	f8 94       	cli
    4ad8:	de bf       	out	0x3e, r29	; 62
    4ada:	0f be       	out	0x3f, r0	; 63
    4adc:	cd bf       	out	0x3d, r28	; 61
    4ade:	cf 91       	pop	r28
    4ae0:	df 91       	pop	r29
    4ae2:	08 95       	ret

00004ae4 <Lcd_videnablePulse>:


static void Lcd_videnablePulse(void)
{
    4ae4:	df 93       	push	r29
    4ae6:	cf 93       	push	r28
    4ae8:	cd b7       	in	r28, 0x3d	; 61
    4aea:	de b7       	in	r29, 0x3e	; 62
    4aec:	a6 97       	sbiw	r28, 0x26	; 38
    4aee:	0f b6       	in	r0, 0x3f	; 63
    4af0:	f8 94       	cli
    4af2:	de bf       	out	0x3e, r29	; 62
    4af4:	0f be       	out	0x3f, r0	; 63
    4af6:	cd bf       	out	0x3d, r28	; 61
	//send Enable pulse
	Dio_vidwriteChanel(DIO_PORTB, DIO_PIN3, DIO_HIGH);
    4af8:	81 e0       	ldi	r24, 0x01	; 1
    4afa:	63 e0       	ldi	r22, 0x03	; 3
    4afc:	41 e0       	ldi	r20, 0x01	; 1
    4afe:	0e 94 33 30 	call	0x6066	; 0x6066 <Dio_vidwriteChanel>
    4b02:	80 e0       	ldi	r24, 0x00	; 0
    4b04:	90 e0       	ldi	r25, 0x00	; 0
    4b06:	a0 e8       	ldi	r26, 0x80	; 128
    4b08:	bf e3       	ldi	r27, 0x3F	; 63
    4b0a:	8b a3       	std	Y+35, r24	; 0x23
    4b0c:	9c a3       	std	Y+36, r25	; 0x24
    4b0e:	ad a3       	std	Y+37, r26	; 0x25
    4b10:	be a3       	std	Y+38, r27	; 0x26
 */
void
_delay_us(double __us)
{
	uint8_t __ticks;
	double __tmp = ((F_CPU) / 3e6) * __us;
    4b12:	6b a1       	ldd	r22, Y+35	; 0x23
    4b14:	7c a1       	ldd	r23, Y+36	; 0x24
    4b16:	8d a1       	ldd	r24, Y+37	; 0x25
    4b18:	9e a1       	ldd	r25, Y+38	; 0x26
    4b1a:	2b ea       	ldi	r18, 0xAB	; 171
    4b1c:	3a ea       	ldi	r19, 0xAA	; 170
    4b1e:	4a ea       	ldi	r20, 0xAA	; 170
    4b20:	50 e4       	ldi	r21, 0x40	; 64
    4b22:	0e 94 9c 02 	call	0x538	; 0x538 <__mulsf3>
    4b26:	dc 01       	movw	r26, r24
    4b28:	cb 01       	movw	r24, r22
    4b2a:	8f 8f       	std	Y+31, r24	; 0x1f
    4b2c:	98 a3       	std	Y+32, r25	; 0x20
    4b2e:	a9 a3       	std	Y+33, r26	; 0x21
    4b30:	ba a3       	std	Y+34, r27	; 0x22
	if (__tmp < 1.0)
    4b32:	6f 8d       	ldd	r22, Y+31	; 0x1f
    4b34:	78 a1       	ldd	r23, Y+32	; 0x20
    4b36:	89 a1       	ldd	r24, Y+33	; 0x21
    4b38:	9a a1       	ldd	r25, Y+34	; 0x22
    4b3a:	20 e0       	ldi	r18, 0x00	; 0
    4b3c:	30 e0       	ldi	r19, 0x00	; 0
    4b3e:	40 e8       	ldi	r20, 0x80	; 128
    4b40:	5f e3       	ldi	r21, 0x3F	; 63
    4b42:	0e 94 a2 04 	call	0x944	; 0x944 <__ltsf2>
    4b46:	88 23       	and	r24, r24
    4b48:	1c f4       	brge	.+6      	; 0x4b50 <Lcd_videnablePulse+0x6c>
		__ticks = 1;
    4b4a:	81 e0       	ldi	r24, 0x01	; 1
    4b4c:	8e 8f       	std	Y+30, r24	; 0x1e
    4b4e:	91 c0       	rjmp	.+290    	; 0x4c72 <Lcd_videnablePulse+0x18e>
	else if (__tmp > 255)
    4b50:	6f 8d       	ldd	r22, Y+31	; 0x1f
    4b52:	78 a1       	ldd	r23, Y+32	; 0x20
    4b54:	89 a1       	ldd	r24, Y+33	; 0x21
    4b56:	9a a1       	ldd	r25, Y+34	; 0x22
    4b58:	20 e0       	ldi	r18, 0x00	; 0
    4b5a:	30 e0       	ldi	r19, 0x00	; 0
    4b5c:	4f e7       	ldi	r20, 0x7F	; 127
    4b5e:	53 e4       	ldi	r21, 0x43	; 67
    4b60:	0e 94 42 04 	call	0x884	; 0x884 <__gtsf2>
    4b64:	18 16       	cp	r1, r24
    4b66:	0c f0       	brlt	.+2      	; 0x4b6a <Lcd_videnablePulse+0x86>
    4b68:	7b c0       	rjmp	.+246    	; 0x4c60 <Lcd_videnablePulse+0x17c>
	{
		_delay_ms(__us / 1000.0);
    4b6a:	6b a1       	ldd	r22, Y+35	; 0x23
    4b6c:	7c a1       	ldd	r23, Y+36	; 0x24
    4b6e:	8d a1       	ldd	r24, Y+37	; 0x25
    4b70:	9e a1       	ldd	r25, Y+38	; 0x26
    4b72:	20 e0       	ldi	r18, 0x00	; 0
    4b74:	30 e0       	ldi	r19, 0x00	; 0
    4b76:	4a e7       	ldi	r20, 0x7A	; 122
    4b78:	54 e4       	ldi	r21, 0x44	; 68
    4b7a:	0e 94 96 03 	call	0x72c	; 0x72c <__divsf3>
    4b7e:	dc 01       	movw	r26, r24
    4b80:	cb 01       	movw	r24, r22
    4b82:	8a 8f       	std	Y+26, r24	; 0x1a
    4b84:	9b 8f       	std	Y+27, r25	; 0x1b
    4b86:	ac 8f       	std	Y+28, r26	; 0x1c
    4b88:	bd 8f       	std	Y+29, r27	; 0x1d
 */
void
_delay_ms(double __ms)
{
	uint16_t __ticks;
	double __tmp = ((F_CPU) / 4e3) * __ms;
    4b8a:	6a 8d       	ldd	r22, Y+26	; 0x1a
    4b8c:	7b 8d       	ldd	r23, Y+27	; 0x1b
    4b8e:	8c 8d       	ldd	r24, Y+28	; 0x1c
    4b90:	9d 8d       	ldd	r25, Y+29	; 0x1d
    4b92:	20 e0       	ldi	r18, 0x00	; 0
    4b94:	30 e0       	ldi	r19, 0x00	; 0
    4b96:	4a e7       	ldi	r20, 0x7A	; 122
    4b98:	55 e4       	ldi	r21, 0x45	; 69
    4b9a:	0e 94 9c 02 	call	0x538	; 0x538 <__mulsf3>
    4b9e:	dc 01       	movw	r26, r24
    4ba0:	cb 01       	movw	r24, r22
    4ba2:	8e 8b       	std	Y+22, r24	; 0x16
    4ba4:	9f 8b       	std	Y+23, r25	; 0x17
    4ba6:	a8 8f       	std	Y+24, r26	; 0x18
    4ba8:	b9 8f       	std	Y+25, r27	; 0x19
	if (__tmp < 1.0)
    4baa:	6e 89       	ldd	r22, Y+22	; 0x16
    4bac:	7f 89       	ldd	r23, Y+23	; 0x17
    4bae:	88 8d       	ldd	r24, Y+24	; 0x18
    4bb0:	99 8d       	ldd	r25, Y+25	; 0x19
    4bb2:	20 e0       	ldi	r18, 0x00	; 0
    4bb4:	30 e0       	ldi	r19, 0x00	; 0
    4bb6:	40 e8       	ldi	r20, 0x80	; 128
    4bb8:	5f e3       	ldi	r21, 0x3F	; 63
    4bba:	0e 94 a2 04 	call	0x944	; 0x944 <__ltsf2>
    4bbe:	88 23       	and	r24, r24
    4bc0:	2c f4       	brge	.+10     	; 0x4bcc <Lcd_videnablePulse+0xe8>
		__ticks = 1;
    4bc2:	81 e0       	ldi	r24, 0x01	; 1
    4bc4:	90 e0       	ldi	r25, 0x00	; 0
    4bc6:	9d 8b       	std	Y+21, r25	; 0x15
    4bc8:	8c 8b       	std	Y+20, r24	; 0x14
    4bca:	3f c0       	rjmp	.+126    	; 0x4c4a <Lcd_videnablePulse+0x166>
	else if (__tmp > 65535)
    4bcc:	6e 89       	ldd	r22, Y+22	; 0x16
    4bce:	7f 89       	ldd	r23, Y+23	; 0x17
    4bd0:	88 8d       	ldd	r24, Y+24	; 0x18
    4bd2:	99 8d       	ldd	r25, Y+25	; 0x19
    4bd4:	20 e0       	ldi	r18, 0x00	; 0
    4bd6:	3f ef       	ldi	r19, 0xFF	; 255
    4bd8:	4f e7       	ldi	r20, 0x7F	; 127
    4bda:	57 e4       	ldi	r21, 0x47	; 71
    4bdc:	0e 94 42 04 	call	0x884	; 0x884 <__gtsf2>
    4be0:	18 16       	cp	r1, r24
    4be2:	4c f5       	brge	.+82     	; 0x4c36 <Lcd_videnablePulse+0x152>
	{
		//	__ticks = requested delay in 1/10 ms
		__ticks = (uint16_t) (__ms * 10.0);
    4be4:	6a 8d       	ldd	r22, Y+26	; 0x1a
    4be6:	7b 8d       	ldd	r23, Y+27	; 0x1b
    4be8:	8c 8d       	ldd	r24, Y+28	; 0x1c
    4bea:	9d 8d       	ldd	r25, Y+29	; 0x1d
    4bec:	20 e0       	ldi	r18, 0x00	; 0
    4bee:	30 e0       	ldi	r19, 0x00	; 0
    4bf0:	40 e2       	ldi	r20, 0x20	; 32
    4bf2:	51 e4       	ldi	r21, 0x41	; 65
    4bf4:	0e 94 9c 02 	call	0x538	; 0x538 <__mulsf3>
    4bf8:	dc 01       	movw	r26, r24
    4bfa:	cb 01       	movw	r24, r22
    4bfc:	bc 01       	movw	r22, r24
    4bfe:	cd 01       	movw	r24, r26
    4c00:	0e 94 c6 00 	call	0x18c	; 0x18c <__fixunssfsi>
    4c04:	dc 01       	movw	r26, r24
    4c06:	cb 01       	movw	r24, r22
    4c08:	9d 8b       	std	Y+21, r25	; 0x15
    4c0a:	8c 8b       	std	Y+20, r24	; 0x14
    4c0c:	0f c0       	rjmp	.+30     	; 0x4c2c <Lcd_videnablePulse+0x148>
    4c0e:	80 e9       	ldi	r24, 0x90	; 144
    4c10:	91 e0       	ldi	r25, 0x01	; 1
    4c12:	9b 8b       	std	Y+19, r25	; 0x13
    4c14:	8a 8b       	std	Y+18, r24	; 0x12
    4c16:	8a 89       	ldd	r24, Y+18	; 0x12
    4c18:	9b 89       	ldd	r25, Y+19	; 0x13
    4c1a:	01 97       	sbiw	r24, 0x01	; 1
    4c1c:	f1 f7       	brne	.-4      	; 0x4c1a <Lcd_videnablePulse+0x136>
    4c1e:	9b 8b       	std	Y+19, r25	; 0x13
    4c20:	8a 8b       	std	Y+18, r24	; 0x12
		while(__ticks)
		{
			// wait 1/10 ms
			_delay_loop_2(((F_CPU) / 4e3) / 10);
			__ticks --;
    4c22:	8c 89       	ldd	r24, Y+20	; 0x14
    4c24:	9d 89       	ldd	r25, Y+21	; 0x15
    4c26:	01 97       	sbiw	r24, 0x01	; 1
    4c28:	9d 8b       	std	Y+21, r25	; 0x15
    4c2a:	8c 8b       	std	Y+20, r24	; 0x14
		__ticks = 1;
	else if (__tmp > 65535)
	{
		//	__ticks = requested delay in 1/10 ms
		__ticks = (uint16_t) (__ms * 10.0);
		while(__ticks)
    4c2c:	8c 89       	ldd	r24, Y+20	; 0x14
    4c2e:	9d 89       	ldd	r25, Y+21	; 0x15
    4c30:	00 97       	sbiw	r24, 0x00	; 0
    4c32:	69 f7       	brne	.-38     	; 0x4c0e <Lcd_videnablePulse+0x12a>
    4c34:	24 c0       	rjmp	.+72     	; 0x4c7e <Lcd_videnablePulse+0x19a>
			__ticks --;
		}
		return;
	}
	else
		__ticks = (uint16_t)__tmp;
    4c36:	6e 89       	ldd	r22, Y+22	; 0x16
    4c38:	7f 89       	ldd	r23, Y+23	; 0x17
    4c3a:	88 8d       	ldd	r24, Y+24	; 0x18
    4c3c:	99 8d       	ldd	r25, Y+25	; 0x19
    4c3e:	0e 94 c6 00 	call	0x18c	; 0x18c <__fixunssfsi>
    4c42:	dc 01       	movw	r26, r24
    4c44:	cb 01       	movw	r24, r22
    4c46:	9d 8b       	std	Y+21, r25	; 0x15
    4c48:	8c 8b       	std	Y+20, r24	; 0x14
    4c4a:	8c 89       	ldd	r24, Y+20	; 0x14
    4c4c:	9d 89       	ldd	r25, Y+21	; 0x15
    4c4e:	99 8b       	std	Y+17, r25	; 0x11
    4c50:	88 8b       	std	Y+16, r24	; 0x10
    4c52:	88 89       	ldd	r24, Y+16	; 0x10
    4c54:	99 89       	ldd	r25, Y+17	; 0x11
    4c56:	01 97       	sbiw	r24, 0x01	; 1
    4c58:	f1 f7       	brne	.-4      	; 0x4c56 <Lcd_videnablePulse+0x172>
    4c5a:	99 8b       	std	Y+17, r25	; 0x11
    4c5c:	88 8b       	std	Y+16, r24	; 0x10
    4c5e:	0f c0       	rjmp	.+30     	; 0x4c7e <Lcd_videnablePulse+0x19a>
	{
		_delay_ms(__us / 1000.0);
		return;
	}
	else
		__ticks = (uint8_t)__tmp;
    4c60:	6f 8d       	ldd	r22, Y+31	; 0x1f
    4c62:	78 a1       	ldd	r23, Y+32	; 0x20
    4c64:	89 a1       	ldd	r24, Y+33	; 0x21
    4c66:	9a a1       	ldd	r25, Y+34	; 0x22
    4c68:	0e 94 c6 00 	call	0x18c	; 0x18c <__fixunssfsi>
    4c6c:	dc 01       	movw	r26, r24
    4c6e:	cb 01       	movw	r24, r22
    4c70:	8e 8f       	std	Y+30, r24	; 0x1e
    4c72:	8e 8d       	ldd	r24, Y+30	; 0x1e
    4c74:	8f 87       	std	Y+15, r24	; 0x0f
    can be achieved.
*/
void
_delay_loop_1(uint8_t __count)
{
	__asm__ volatile (
    4c76:	8f 85       	ldd	r24, Y+15	; 0x0f
    4c78:	8a 95       	dec	r24
    4c7a:	f1 f7       	brne	.-4      	; 0x4c78 <Lcd_videnablePulse+0x194>
    4c7c:	8f 87       	std	Y+15, r24	; 0x0f
	_delay_us(1);
	Dio_vidwriteChanel(DIO_PORTB, DIO_PIN3, DIO_LOW);
    4c7e:	81 e0       	ldi	r24, 0x01	; 1
    4c80:	63 e0       	ldi	r22, 0x03	; 3
    4c82:	40 e0       	ldi	r20, 0x00	; 0
    4c84:	0e 94 33 30 	call	0x6066	; 0x6066 <Dio_vidwriteChanel>
    4c88:	80 e0       	ldi	r24, 0x00	; 0
    4c8a:	90 e0       	ldi	r25, 0x00	; 0
    4c8c:	a0 e0       	ldi	r26, 0x00	; 0
    4c8e:	b0 e4       	ldi	r27, 0x40	; 64
    4c90:	8b 87       	std	Y+11, r24	; 0x0b
    4c92:	9c 87       	std	Y+12, r25	; 0x0c
    4c94:	ad 87       	std	Y+13, r26	; 0x0d
    4c96:	be 87       	std	Y+14, r27	; 0x0e
 */
void
_delay_ms(double __ms)
{
	uint16_t __ticks;
	double __tmp = ((F_CPU) / 4e3) * __ms;
    4c98:	6b 85       	ldd	r22, Y+11	; 0x0b
    4c9a:	7c 85       	ldd	r23, Y+12	; 0x0c
    4c9c:	8d 85       	ldd	r24, Y+13	; 0x0d
    4c9e:	9e 85       	ldd	r25, Y+14	; 0x0e
    4ca0:	20 e0       	ldi	r18, 0x00	; 0
    4ca2:	30 e0       	ldi	r19, 0x00	; 0
    4ca4:	4a e7       	ldi	r20, 0x7A	; 122
    4ca6:	55 e4       	ldi	r21, 0x45	; 69
    4ca8:	0e 94 9c 02 	call	0x538	; 0x538 <__mulsf3>
    4cac:	dc 01       	movw	r26, r24
    4cae:	cb 01       	movw	r24, r22
    4cb0:	8f 83       	std	Y+7, r24	; 0x07
    4cb2:	98 87       	std	Y+8, r25	; 0x08
    4cb4:	a9 87       	std	Y+9, r26	; 0x09
    4cb6:	ba 87       	std	Y+10, r27	; 0x0a
	if (__tmp < 1.0)
    4cb8:	6f 81       	ldd	r22, Y+7	; 0x07
    4cba:	78 85       	ldd	r23, Y+8	; 0x08
    4cbc:	89 85       	ldd	r24, Y+9	; 0x09
    4cbe:	9a 85       	ldd	r25, Y+10	; 0x0a
    4cc0:	20 e0       	ldi	r18, 0x00	; 0
    4cc2:	30 e0       	ldi	r19, 0x00	; 0
    4cc4:	40 e8       	ldi	r20, 0x80	; 128
    4cc6:	5f e3       	ldi	r21, 0x3F	; 63
    4cc8:	0e 94 a2 04 	call	0x944	; 0x944 <__ltsf2>
    4ccc:	88 23       	and	r24, r24
    4cce:	2c f4       	brge	.+10     	; 0x4cda <Lcd_videnablePulse+0x1f6>
		__ticks = 1;
    4cd0:	81 e0       	ldi	r24, 0x01	; 1
    4cd2:	90 e0       	ldi	r25, 0x00	; 0
    4cd4:	9e 83       	std	Y+6, r25	; 0x06
    4cd6:	8d 83       	std	Y+5, r24	; 0x05
    4cd8:	3f c0       	rjmp	.+126    	; 0x4d58 <Lcd_videnablePulse+0x274>
	else if (__tmp > 65535)
    4cda:	6f 81       	ldd	r22, Y+7	; 0x07
    4cdc:	78 85       	ldd	r23, Y+8	; 0x08
    4cde:	89 85       	ldd	r24, Y+9	; 0x09
    4ce0:	9a 85       	ldd	r25, Y+10	; 0x0a
    4ce2:	20 e0       	ldi	r18, 0x00	; 0
    4ce4:	3f ef       	ldi	r19, 0xFF	; 255
    4ce6:	4f e7       	ldi	r20, 0x7F	; 127
    4ce8:	57 e4       	ldi	r21, 0x47	; 71
    4cea:	0e 94 42 04 	call	0x884	; 0x884 <__gtsf2>
    4cee:	18 16       	cp	r1, r24
    4cf0:	4c f5       	brge	.+82     	; 0x4d44 <Lcd_videnablePulse+0x260>
	{
		//	__ticks = requested delay in 1/10 ms
		__ticks = (uint16_t) (__ms * 10.0);
    4cf2:	6b 85       	ldd	r22, Y+11	; 0x0b
    4cf4:	7c 85       	ldd	r23, Y+12	; 0x0c
    4cf6:	8d 85       	ldd	r24, Y+13	; 0x0d
    4cf8:	9e 85       	ldd	r25, Y+14	; 0x0e
    4cfa:	20 e0       	ldi	r18, 0x00	; 0
    4cfc:	30 e0       	ldi	r19, 0x00	; 0
    4cfe:	40 e2       	ldi	r20, 0x20	; 32
    4d00:	51 e4       	ldi	r21, 0x41	; 65
    4d02:	0e 94 9c 02 	call	0x538	; 0x538 <__mulsf3>
    4d06:	dc 01       	movw	r26, r24
    4d08:	cb 01       	movw	r24, r22
    4d0a:	bc 01       	movw	r22, r24
    4d0c:	cd 01       	movw	r24, r26
    4d0e:	0e 94 c6 00 	call	0x18c	; 0x18c <__fixunssfsi>
    4d12:	dc 01       	movw	r26, r24
    4d14:	cb 01       	movw	r24, r22
    4d16:	9e 83       	std	Y+6, r25	; 0x06
    4d18:	8d 83       	std	Y+5, r24	; 0x05
    4d1a:	0f c0       	rjmp	.+30     	; 0x4d3a <Lcd_videnablePulse+0x256>
    4d1c:	80 e9       	ldi	r24, 0x90	; 144
    4d1e:	91 e0       	ldi	r25, 0x01	; 1
    4d20:	9c 83       	std	Y+4, r25	; 0x04
    4d22:	8b 83       	std	Y+3, r24	; 0x03
    milliseconds can be achieved.
 */
void
_delay_loop_2(uint16_t __count)
{
	__asm__ volatile (
    4d24:	8b 81       	ldd	r24, Y+3	; 0x03
    4d26:	9c 81       	ldd	r25, Y+4	; 0x04
    4d28:	01 97       	sbiw	r24, 0x01	; 1
    4d2a:	f1 f7       	brne	.-4      	; 0x4d28 <Lcd_videnablePulse+0x244>
    4d2c:	9c 83       	std	Y+4, r25	; 0x04
    4d2e:	8b 83       	std	Y+3, r24	; 0x03
		while(__ticks)
		{
			// wait 1/10 ms
			_delay_loop_2(((F_CPU) / 4e3) / 10);
			__ticks --;
    4d30:	8d 81       	ldd	r24, Y+5	; 0x05
    4d32:	9e 81       	ldd	r25, Y+6	; 0x06
    4d34:	01 97       	sbiw	r24, 0x01	; 1
    4d36:	9e 83       	std	Y+6, r25	; 0x06
    4d38:	8d 83       	std	Y+5, r24	; 0x05
		__ticks = 1;
	else if (__tmp > 65535)
	{
		//	__ticks = requested delay in 1/10 ms
		__ticks = (uint16_t) (__ms * 10.0);
		while(__ticks)
    4d3a:	8d 81       	ldd	r24, Y+5	; 0x05
    4d3c:	9e 81       	ldd	r25, Y+6	; 0x06
    4d3e:	00 97       	sbiw	r24, 0x00	; 0
    4d40:	69 f7       	brne	.-38     	; 0x4d1c <Lcd_videnablePulse+0x238>
    4d42:	14 c0       	rjmp	.+40     	; 0x4d6c <Lcd_videnablePulse+0x288>
			__ticks --;
		}
		return;
	}
	else
		__ticks = (uint16_t)__tmp;
    4d44:	6f 81       	ldd	r22, Y+7	; 0x07
    4d46:	78 85       	ldd	r23, Y+8	; 0x08
    4d48:	89 85       	ldd	r24, Y+9	; 0x09
    4d4a:	9a 85       	ldd	r25, Y+10	; 0x0a
    4d4c:	0e 94 c6 00 	call	0x18c	; 0x18c <__fixunssfsi>
    4d50:	dc 01       	movw	r26, r24
    4d52:	cb 01       	movw	r24, r22
    4d54:	9e 83       	std	Y+6, r25	; 0x06
    4d56:	8d 83       	std	Y+5, r24	; 0x05
    4d58:	8d 81       	ldd	r24, Y+5	; 0x05
    4d5a:	9e 81       	ldd	r25, Y+6	; 0x06
    4d5c:	9a 83       	std	Y+2, r25	; 0x02
    4d5e:	89 83       	std	Y+1, r24	; 0x01
    4d60:	89 81       	ldd	r24, Y+1	; 0x01
    4d62:	9a 81       	ldd	r25, Y+2	; 0x02
    4d64:	01 97       	sbiw	r24, 0x01	; 1
    4d66:	f1 f7       	brne	.-4      	; 0x4d64 <Lcd_videnablePulse+0x280>
    4d68:	9a 83       	std	Y+2, r25	; 0x02
    4d6a:	89 83       	std	Y+1, r24	; 0x01
	_delay_ms(2);
}
    4d6c:	a6 96       	adiw	r28, 0x26	; 38
    4d6e:	0f b6       	in	r0, 0x3f	; 63
    4d70:	f8 94       	cli
    4d72:	de bf       	out	0x3e, r29	; 62
    4d74:	0f be       	out	0x3f, r0	; 63
    4d76:	cd bf       	out	0x3d, r28	; 61
    4d78:	cf 91       	pop	r28
    4d7a:	df 91       	pop	r29
    4d7c:	08 95       	ret

00004d7e <Lcd_vidDisplayChar>:

void Lcd_vidDisplayChar(u8 chr)
{
    4d7e:	df 93       	push	r29
    4d80:	cf 93       	push	r28
    4d82:	00 d0       	rcall	.+0      	; 0x4d84 <Lcd_vidDisplayChar+0x6>
    4d84:	0f 92       	push	r0
    4d86:	cd b7       	in	r28, 0x3d	; 61
    4d88:	de b7       	in	r29, 0x3e	; 62
    4d8a:	8b 83       	std	Y+3, r24	; 0x03

  	1101 0000
  	1001 0000
 */

	u8 loc_MSB =chr & ~LCD_MASK;
    4d8c:	8b 81       	ldd	r24, Y+3	; 0x03
    4d8e:	80 7f       	andi	r24, 0xF0	; 240
    4d90:	8a 83       	std	Y+2, r24	; 0x02
	u8 loc_LSB =chr <<4;
    4d92:	8b 81       	ldd	r24, Y+3	; 0x03
    4d94:	82 95       	swap	r24
    4d96:	80 7f       	andi	r24, 0xF0	; 240
    4d98:	89 83       	std	Y+1, r24	; 0x01

	// RS->1
	Dio_vidwriteChanel(DIO_PORTB, DIO_PIN1, DIO_HIGH);
    4d9a:	81 e0       	ldi	r24, 0x01	; 1
    4d9c:	61 e0       	ldi	r22, 0x01	; 1
    4d9e:	41 e0       	ldi	r20, 0x01	; 1
    4da0:	0e 94 33 30 	call	0x6066	; 0x6066 <Dio_vidwriteChanel>

	// write data MSB to LCD
	Dio_vidwritechanelgroup(DIO_PORTA, loc_MSB, LCD_MASK);
    4da4:	80 e0       	ldi	r24, 0x00	; 0
    4da6:	6a 81       	ldd	r22, Y+2	; 0x02
    4da8:	4f e0       	ldi	r20, 0x0F	; 15
    4daa:	0e 94 16 31 	call	0x622c	; 0x622c <Dio_vidwritechanelgroup>

	//send Enable pulse
	Lcd_videnablePulse();
    4dae:	0e 94 72 25 	call	0x4ae4	; 0x4ae4 <Lcd_videnablePulse>

	// write data LSB to LCD
	Dio_vidwritechanelgroup(DIO_PORTA, loc_LSB, LCD_MASK);
    4db2:	80 e0       	ldi	r24, 0x00	; 0
    4db4:	69 81       	ldd	r22, Y+1	; 0x01
    4db6:	4f e0       	ldi	r20, 0x0F	; 15
    4db8:	0e 94 16 31 	call	0x622c	; 0x622c <Dio_vidwritechanelgroup>

	//send Enable pulse
	Lcd_videnablePulse();
    4dbc:	0e 94 72 25 	call	0x4ae4	; 0x4ae4 <Lcd_videnablePulse>

}
    4dc0:	0f 90       	pop	r0
    4dc2:	0f 90       	pop	r0
    4dc4:	0f 90       	pop	r0
    4dc6:	cf 91       	pop	r28
    4dc8:	df 91       	pop	r29
    4dca:	08 95       	ret

00004dcc <Lcd_vidCmd>:


void Lcd_vidCmd(lcd_Cmd_t cmd)
{
    4dcc:	df 93       	push	r29
    4dce:	cf 93       	push	r28
    4dd0:	00 d0       	rcall	.+0      	; 0x4dd2 <Lcd_vidCmd+0x6>
    4dd2:	0f 92       	push	r0
    4dd4:	cd b7       	in	r28, 0x3d	; 61
    4dd6:	de b7       	in	r29, 0x3e	; 62
    4dd8:	8b 83       	std	Y+3, r24	; 0x03
	// RS->0
	u8 loc_MSB =cmd & ~LCD_MASK;
    4dda:	8b 81       	ldd	r24, Y+3	; 0x03
    4ddc:	80 7f       	andi	r24, 0xF0	; 240
    4dde:	8a 83       	std	Y+2, r24	; 0x02
	u8 loc_LSB =cmd <<4;
    4de0:	8b 81       	ldd	r24, Y+3	; 0x03
    4de2:	82 95       	swap	r24
    4de4:	80 7f       	andi	r24, 0xF0	; 240
    4de6:	89 83       	std	Y+1, r24	; 0x01


	Dio_vidwriteChanel(DIO_PORTB, DIO_PIN1, DIO_LOW);
    4de8:	81 e0       	ldi	r24, 0x01	; 1
    4dea:	61 e0       	ldi	r22, 0x01	; 1
    4dec:	40 e0       	ldi	r20, 0x00	; 0
    4dee:	0e 94 33 30 	call	0x6066	; 0x6066 <Dio_vidwriteChanel>

	// write data MSB to LCD
	Dio_vidwritechanelgroup(DIO_PORTA, loc_MSB, LCD_MASK);
    4df2:	80 e0       	ldi	r24, 0x00	; 0
    4df4:	6a 81       	ldd	r22, Y+2	; 0x02
    4df6:	4f e0       	ldi	r20, 0x0F	; 15
    4df8:	0e 94 16 31 	call	0x622c	; 0x622c <Dio_vidwritechanelgroup>

	//send Enable pulse
	Lcd_videnablePulse();
    4dfc:	0e 94 72 25 	call	0x4ae4	; 0x4ae4 <Lcd_videnablePulse>

	// write data LSB to LCD
	Dio_vidwritechanelgroup(DIO_PORTA, loc_LSB, LCD_MASK);
    4e00:	80 e0       	ldi	r24, 0x00	; 0
    4e02:	69 81       	ldd	r22, Y+1	; 0x01
    4e04:	4f e0       	ldi	r20, 0x0F	; 15
    4e06:	0e 94 16 31 	call	0x622c	; 0x622c <Dio_vidwritechanelgroup>

	//send Enable pulse
	Lcd_videnablePulse();
    4e0a:	0e 94 72 25 	call	0x4ae4	; 0x4ae4 <Lcd_videnablePulse>
}
    4e0e:	0f 90       	pop	r0
    4e10:	0f 90       	pop	r0
    4e12:	0f 90       	pop	r0
    4e14:	cf 91       	pop	r28
    4e16:	df 91       	pop	r29
    4e18:	08 95       	ret

00004e1a <Lcd_vidRowColumn>:

void Lcd_vidRowColumn(u8 row, u8 col)
{
    4e1a:	df 93       	push	r29
    4e1c:	cf 93       	push	r28
    4e1e:	00 d0       	rcall	.+0      	; 0x4e20 <Lcd_vidRowColumn+0x6>
    4e20:	00 d0       	rcall	.+0      	; 0x4e22 <Lcd_vidRowColumn+0x8>
    4e22:	cd b7       	in	r28, 0x3d	; 61
    4e24:	de b7       	in	r29, 0x3e	; 62
    4e26:	89 83       	std	Y+1, r24	; 0x01
    4e28:	6a 83       	std	Y+2, r22	; 0x02
	switch (row)
    4e2a:	89 81       	ldd	r24, Y+1	; 0x01
    4e2c:	28 2f       	mov	r18, r24
    4e2e:	30 e0       	ldi	r19, 0x00	; 0
    4e30:	3c 83       	std	Y+4, r19	; 0x04
    4e32:	2b 83       	std	Y+3, r18	; 0x03
    4e34:	8b 81       	ldd	r24, Y+3	; 0x03
    4e36:	9c 81       	ldd	r25, Y+4	; 0x04
    4e38:	00 97       	sbiw	r24, 0x00	; 0
    4e3a:	31 f0       	breq	.+12     	; 0x4e48 <Lcd_vidRowColumn+0x2e>
    4e3c:	2b 81       	ldd	r18, Y+3	; 0x03
    4e3e:	3c 81       	ldd	r19, Y+4	; 0x04
    4e40:	21 30       	cpi	r18, 0x01	; 1
    4e42:	31 05       	cpc	r19, r1
    4e44:	31 f0       	breq	.+12     	; 0x4e52 <Lcd_vidRowColumn+0x38>
    4e46:	09 c0       	rjmp	.+18     	; 0x4e5a <Lcd_vidRowColumn+0x40>
	{
	case 0:
		Lcd_vidCmd(0x80 + col);
    4e48:	8a 81       	ldd	r24, Y+2	; 0x02
    4e4a:	80 58       	subi	r24, 0x80	; 128
    4e4c:	0e 94 e6 26 	call	0x4dcc	; 0x4dcc <Lcd_vidCmd>
    4e50:	04 c0       	rjmp	.+8      	; 0x4e5a <Lcd_vidRowColumn+0x40>
		break;

	case 1:
		Lcd_vidCmd(0xC0 + col);
    4e52:	8a 81       	ldd	r24, Y+2	; 0x02
    4e54:	80 54       	subi	r24, 0x40	; 64
    4e56:	0e 94 e6 26 	call	0x4dcc	; 0x4dcc <Lcd_vidCmd>
		break;

	}

}
    4e5a:	0f 90       	pop	r0
    4e5c:	0f 90       	pop	r0
    4e5e:	0f 90       	pop	r0
    4e60:	0f 90       	pop	r0
    4e62:	cf 91       	pop	r28
    4e64:	df 91       	pop	r29
    4e66:	08 95       	ret

00004e68 <Lcd_vidDisplayStr>:

void Lcd_vidDisplayStr(u8* str)
{
    4e68:	df 93       	push	r29
    4e6a:	cf 93       	push	r28
    4e6c:	00 d0       	rcall	.+0      	; 0x4e6e <Lcd_vidDisplayStr+0x6>
    4e6e:	cd b7       	in	r28, 0x3d	; 61
    4e70:	de b7       	in	r29, 0x3e	; 62
    4e72:	9a 83       	std	Y+2, r25	; 0x02
    4e74:	89 83       	std	Y+1, r24	; 0x01
    4e76:	0a c0       	rjmp	.+20     	; 0x4e8c <Lcd_vidDisplayStr+0x24>
	while(*str!='\0')
	{
		Lcd_vidDisplayChar(*str);
    4e78:	e9 81       	ldd	r30, Y+1	; 0x01
    4e7a:	fa 81       	ldd	r31, Y+2	; 0x02
    4e7c:	80 81       	ld	r24, Z
    4e7e:	0e 94 bf 26 	call	0x4d7e	; 0x4d7e <Lcd_vidDisplayChar>
		str++;
    4e82:	89 81       	ldd	r24, Y+1	; 0x01
    4e84:	9a 81       	ldd	r25, Y+2	; 0x02
    4e86:	01 96       	adiw	r24, 0x01	; 1
    4e88:	9a 83       	std	Y+2, r25	; 0x02
    4e8a:	89 83       	std	Y+1, r24	; 0x01

}

void Lcd_vidDisplayStr(u8* str)
{
	while(*str!='\0')
    4e8c:	e9 81       	ldd	r30, Y+1	; 0x01
    4e8e:	fa 81       	ldd	r31, Y+2	; 0x02
    4e90:	80 81       	ld	r24, Z
    4e92:	88 23       	and	r24, r24
    4e94:	89 f7       	brne	.-30     	; 0x4e78 <Lcd_vidDisplayStr+0x10>
	{
		Lcd_vidDisplayChar(*str);
		str++;
	}

}
    4e96:	0f 90       	pop	r0
    4e98:	0f 90       	pop	r0
    4e9a:	cf 91       	pop	r28
    4e9c:	df 91       	pop	r29
    4e9e:	08 95       	ret

00004ea0 <Lcd_vidDisplayInt>:


void Lcd_vidDisplayInt(u32 num)
{
    4ea0:	df 93       	push	r29
    4ea2:	cf 93       	push	r28
    4ea4:	cd b7       	in	r28, 0x3d	; 61
    4ea6:	de b7       	in	r29, 0x3e	; 62
    4ea8:	29 97       	sbiw	r28, 0x09	; 9
    4eaa:	0f b6       	in	r0, 0x3f	; 63
    4eac:	f8 94       	cli
    4eae:	de bf       	out	0x3e, r29	; 62
    4eb0:	0f be       	out	0x3f, r0	; 63
    4eb2:	cd bf       	out	0x3d, r28	; 61
    4eb4:	6e 83       	std	Y+6, r22	; 0x06
    4eb6:	7f 83       	std	Y+7, r23	; 0x07
    4eb8:	88 87       	std	Y+8, r24	; 0x08
    4eba:	99 87       	std	Y+9, r25	; 0x09
	u8 buffer[5];
	sprintf(buffer,"%d",num);
    4ebc:	8d b7       	in	r24, 0x3d	; 61
    4ebe:	9e b7       	in	r25, 0x3e	; 62
    4ec0:	08 97       	sbiw	r24, 0x08	; 8
    4ec2:	0f b6       	in	r0, 0x3f	; 63
    4ec4:	f8 94       	cli
    4ec6:	9e bf       	out	0x3e, r25	; 62
    4ec8:	0f be       	out	0x3f, r0	; 63
    4eca:	8d bf       	out	0x3d, r24	; 61
    4ecc:	ed b7       	in	r30, 0x3d	; 61
    4ece:	fe b7       	in	r31, 0x3e	; 62
    4ed0:	31 96       	adiw	r30, 0x01	; 1
    4ed2:	ce 01       	movw	r24, r28
    4ed4:	01 96       	adiw	r24, 0x01	; 1
    4ed6:	91 83       	std	Z+1, r25	; 0x01
    4ed8:	80 83       	st	Z, r24
    4eda:	84 e2       	ldi	r24, 0x24	; 36
    4edc:	93 e0       	ldi	r25, 0x03	; 3
    4ede:	93 83       	std	Z+3, r25	; 0x03
    4ee0:	82 83       	std	Z+2, r24	; 0x02
    4ee2:	8e 81       	ldd	r24, Y+6	; 0x06
    4ee4:	9f 81       	ldd	r25, Y+7	; 0x07
    4ee6:	a8 85       	ldd	r26, Y+8	; 0x08
    4ee8:	b9 85       	ldd	r27, Y+9	; 0x09
    4eea:	84 83       	std	Z+4, r24	; 0x04
    4eec:	95 83       	std	Z+5, r25	; 0x05
    4eee:	a6 83       	std	Z+6, r26	; 0x06
    4ef0:	b7 83       	std	Z+7, r27	; 0x07
    4ef2:	0e 94 da 37 	call	0x6fb4	; 0x6fb4 <sprintf>
    4ef6:	8d b7       	in	r24, 0x3d	; 61
    4ef8:	9e b7       	in	r25, 0x3e	; 62
    4efa:	08 96       	adiw	r24, 0x08	; 8
    4efc:	0f b6       	in	r0, 0x3f	; 63
    4efe:	f8 94       	cli
    4f00:	9e bf       	out	0x3e, r25	; 62
    4f02:	0f be       	out	0x3f, r0	; 63
    4f04:	8d bf       	out	0x3d, r24	; 61
	Lcd_vidDisplayStr(buffer);
    4f06:	ce 01       	movw	r24, r28
    4f08:	01 96       	adiw	r24, 0x01	; 1
    4f0a:	0e 94 34 27 	call	0x4e68	; 0x4e68 <Lcd_vidDisplayStr>
}
    4f0e:	29 96       	adiw	r28, 0x09	; 9
    4f10:	0f b6       	in	r0, 0x3f	; 63
    4f12:	f8 94       	cli
    4f14:	de bf       	out	0x3e, r29	; 62
    4f16:	0f be       	out	0x3f, r0	; 63
    4f18:	cd bf       	out	0x3d, r28	; 61
    4f1a:	cf 91       	pop	r28
    4f1c:	df 91       	pop	r29
    4f1e:	08 95       	ret

00004f20 <Lcd_vidDisplayFloat>:


void Lcd_vidDisplayFloat(f64 num)
{
    4f20:	0f 93       	push	r16
    4f22:	1f 93       	push	r17
    4f24:	df 93       	push	r29
    4f26:	cf 93       	push	r28
    4f28:	cd b7       	in	r28, 0x3d	; 61
    4f2a:	de b7       	in	r29, 0x3e	; 62
    4f2c:	68 97       	sbiw	r28, 0x18	; 24
    4f2e:	0f b6       	in	r0, 0x3f	; 63
    4f30:	f8 94       	cli
    4f32:	de bf       	out	0x3e, r29	; 62
    4f34:	0f be       	out	0x3f, r0	; 63
    4f36:	cd bf       	out	0x3d, r28	; 61
    4f38:	6d 8b       	std	Y+21, r22	; 0x15
    4f3a:	7e 8b       	std	Y+22, r23	; 0x16
    4f3c:	8f 8b       	std	Y+23, r24	; 0x17
    4f3e:	98 8f       	std	Y+24, r25	; 0x18
	u8 buffer[20];
	dtostrf(num,7,3,buffer);
    4f40:	8d 89       	ldd	r24, Y+21	; 0x15
    4f42:	9e 89       	ldd	r25, Y+22	; 0x16
    4f44:	af 89       	ldd	r26, Y+23	; 0x17
    4f46:	b8 8d       	ldd	r27, Y+24	; 0x18
    4f48:	bc 01       	movw	r22, r24
    4f4a:	cd 01       	movw	r24, r26
    4f4c:	47 e0       	ldi	r20, 0x07	; 7
    4f4e:	50 e0       	ldi	r21, 0x00	; 0
    4f50:	23 e0       	ldi	r18, 0x03	; 3
    4f52:	30 e0       	ldi	r19, 0x00	; 0
    4f54:	fe 01       	movw	r30, r28
    4f56:	31 96       	adiw	r30, 0x01	; 1
    4f58:	8f 01       	movw	r16, r30
    4f5a:	0e 94 b9 37 	call	0x6f72	; 0x6f72 <dtostrf>
	Lcd_vidDisplayStr(buffer);
    4f5e:	ce 01       	movw	r24, r28
    4f60:	01 96       	adiw	r24, 0x01	; 1
    4f62:	0e 94 34 27 	call	0x4e68	; 0x4e68 <Lcd_vidDisplayStr>
}
    4f66:	68 96       	adiw	r28, 0x18	; 24
    4f68:	0f b6       	in	r0, 0x3f	; 63
    4f6a:	f8 94       	cli
    4f6c:	de bf       	out	0x3e, r29	; 62
    4f6e:	0f be       	out	0x3f, r0	; 63
    4f70:	cd bf       	out	0x3d, r28	; 61
    4f72:	cf 91       	pop	r28
    4f74:	df 91       	pop	r29
    4f76:	1f 91       	pop	r17
    4f78:	0f 91       	pop	r16
    4f7a:	08 95       	ret

00004f7c <Keypad_vidinit>:




void Keypad_vidinit(void)
{
    4f7c:	df 93       	push	r29
    4f7e:	cf 93       	push	r28
    4f80:	cd b7       	in	r28, 0x3d	; 61
    4f82:	de b7       	in	r29, 0x3e	; 62
	Dio_vidconfigChanel(DIO_PORTC,DIO_PIN3,OUTPUT);
    4f84:	82 e0       	ldi	r24, 0x02	; 2
    4f86:	63 e0       	ldi	r22, 0x03	; 3
    4f88:	41 e0       	ldi	r20, 0x01	; 1
    4f8a:	0e 94 50 2f 	call	0x5ea0	; 0x5ea0 <Dio_vidconfigChanel>
	Dio_vidconfigChanel(DIO_PORTC,DIO_PIN4,OUTPUT);
    4f8e:	82 e0       	ldi	r24, 0x02	; 2
    4f90:	64 e0       	ldi	r22, 0x04	; 4
    4f92:	41 e0       	ldi	r20, 0x01	; 1
    4f94:	0e 94 50 2f 	call	0x5ea0	; 0x5ea0 <Dio_vidconfigChanel>
	Dio_vidconfigChanel(DIO_PORTC,DIO_PIN5,OUTPUT);
    4f98:	82 e0       	ldi	r24, 0x02	; 2
    4f9a:	65 e0       	ldi	r22, 0x05	; 5
    4f9c:	41 e0       	ldi	r20, 0x01	; 1
    4f9e:	0e 94 50 2f 	call	0x5ea0	; 0x5ea0 <Dio_vidconfigChanel>
	Dio_vidconfigChanel(DIO_PORTC,DIO_PIN6,OUTPUT);
    4fa2:	82 e0       	ldi	r24, 0x02	; 2
    4fa4:	66 e0       	ldi	r22, 0x06	; 6
    4fa6:	41 e0       	ldi	r20, 0x01	; 1
    4fa8:	0e 94 50 2f 	call	0x5ea0	; 0x5ea0 <Dio_vidconfigChanel>

	Dio_vidconfigChanel(DIO_PORTB,DIO_PIN4,INPUT);
    4fac:	81 e0       	ldi	r24, 0x01	; 1
    4fae:	64 e0       	ldi	r22, 0x04	; 4
    4fb0:	40 e0       	ldi	r20, 0x00	; 0
    4fb2:	0e 94 50 2f 	call	0x5ea0	; 0x5ea0 <Dio_vidconfigChanel>
	Dio_vidconfigChanel(DIO_PORTB,DIO_PIN5,INPUT);
    4fb6:	81 e0       	ldi	r24, 0x01	; 1
    4fb8:	65 e0       	ldi	r22, 0x05	; 5
    4fba:	40 e0       	ldi	r20, 0x00	; 0
    4fbc:	0e 94 50 2f 	call	0x5ea0	; 0x5ea0 <Dio_vidconfigChanel>
	Dio_vidconfigChanel(DIO_PORTB,DIO_PIN6,INPUT);
    4fc0:	81 e0       	ldi	r24, 0x01	; 1
    4fc2:	66 e0       	ldi	r22, 0x06	; 6
    4fc4:	40 e0       	ldi	r20, 0x00	; 0
    4fc6:	0e 94 50 2f 	call	0x5ea0	; 0x5ea0 <Dio_vidconfigChanel>
	Dio_vidconfigChanel(DIO_PORTB,DIO_PIN7,INPUT);
    4fca:	81 e0       	ldi	r24, 0x01	; 1
    4fcc:	67 e0       	ldi	r22, 0x07	; 7
    4fce:	40 e0       	ldi	r20, 0x00	; 0
    4fd0:	0e 94 50 2f 	call	0x5ea0	; 0x5ea0 <Dio_vidconfigChanel>



	// to activate internal pull up res

	Dio_vidPullUpEn(DIO_PORTB,DIO_PIN4);
    4fd4:	81 e0       	ldi	r24, 0x01	; 1
    4fd6:	64 e0       	ldi	r22, 0x04	; 4
    4fd8:	0e 94 82 32 	call	0x6504	; 0x6504 <Dio_vidPullUpEn>
	Dio_vidPullUpEn(DIO_PORTB,DIO_PIN5);
    4fdc:	81 e0       	ldi	r24, 0x01	; 1
    4fde:	65 e0       	ldi	r22, 0x05	; 5
    4fe0:	0e 94 82 32 	call	0x6504	; 0x6504 <Dio_vidPullUpEn>
	Dio_vidPullUpEn(DIO_PORTB,DIO_PIN6);
    4fe4:	81 e0       	ldi	r24, 0x01	; 1
    4fe6:	66 e0       	ldi	r22, 0x06	; 6
    4fe8:	0e 94 82 32 	call	0x6504	; 0x6504 <Dio_vidPullUpEn>
	Dio_vidPullUpEn(DIO_PORTB,DIO_PIN7);
    4fec:	81 e0       	ldi	r24, 0x01	; 1
    4fee:	67 e0       	ldi	r22, 0x07	; 7
    4ff0:	0e 94 82 32 	call	0x6504	; 0x6504 <Dio_vidPullUpEn>


	Dio_vidSetPinValue(KEYPAD_R0_PIN,HIGH);
    4ff4:	81 e2       	ldi	r24, 0x21	; 33
    4ff6:	61 e0       	ldi	r22, 0x01	; 1
    4ff8:	0e 94 9c 34 	call	0x6938	; 0x6938 <Dio_vidSetPinValue>
	Dio_vidSetPinValue(KEYPAD_R1_PIN,HIGH);
    4ffc:	82 e2       	ldi	r24, 0x22	; 34
    4ffe:	61 e0       	ldi	r22, 0x01	; 1
    5000:	0e 94 9c 34 	call	0x6938	; 0x6938 <Dio_vidSetPinValue>
	Dio_vidSetPinValue(KEYPAD_R2_PIN,HIGH);
    5004:	83 e2       	ldi	r24, 0x23	; 35
    5006:	61 e0       	ldi	r22, 0x01	; 1
    5008:	0e 94 9c 34 	call	0x6938	; 0x6938 <Dio_vidSetPinValue>
	Dio_vidSetPinValue(KEYPAD_R3_PIN,HIGH);
    500c:	84 e2       	ldi	r24, 0x24	; 36
    500e:	61 e0       	ldi	r22, 0x01	; 1
    5010:	0e 94 9c 34 	call	0x6938	; 0x6938 <Dio_vidSetPinValue>
}
    5014:	cf 91       	pop	r28
    5016:	df 91       	pop	r29
    5018:	08 95       	ret

0000501a <Keypad_getChar>:
u8   Keypad_getChar(void)
{
    501a:	df 93       	push	r29
    501c:	cf 93       	push	r28
    501e:	cd b7       	in	r28, 0x3d	; 61
    5020:	de b7       	in	r29, 0x3e	; 62
    5022:	a6 97       	sbiw	r28, 0x26	; 38
    5024:	0f b6       	in	r0, 0x3f	; 63
    5026:	f8 94       	cli
    5028:	de bf       	out	0x3e, r29	; 62
    502a:	0f be       	out	0x3f, r0	; 63
    502c:	cd bf       	out	0x3d, r28	; 61
	u8 Local_U8_Arr [4][4] = { { '1' , '2' , '3' , 'A' },
			                   { '4' , '5' , '6' , 'B' },
		                       { '7' , '8' , '9' , 'C' },
			                   { '*' , '0' , '#' , 'D' }};
    502e:	ce 01       	movw	r24, r28
    5030:	42 96       	adiw	r24, 0x12	; 18
    5032:	9b a3       	std	Y+35, r25	; 0x23
    5034:	8a a3       	std	Y+34, r24	; 0x22
    5036:	e2 e3       	ldi	r30, 0x32	; 50
    5038:	f4 e0       	ldi	r31, 0x04	; 4
    503a:	fd a3       	std	Y+37, r31	; 0x25
    503c:	ec a3       	std	Y+36, r30	; 0x24
    503e:	f0 e1       	ldi	r31, 0x10	; 16
    5040:	fe a3       	std	Y+38, r31	; 0x26
    5042:	ec a1       	ldd	r30, Y+36	; 0x24
    5044:	fd a1       	ldd	r31, Y+37	; 0x25
    5046:	00 80       	ld	r0, Z
    5048:	8c a1       	ldd	r24, Y+36	; 0x24
    504a:	9d a1       	ldd	r25, Y+37	; 0x25
    504c:	01 96       	adiw	r24, 0x01	; 1
    504e:	9d a3       	std	Y+37, r25	; 0x25
    5050:	8c a3       	std	Y+36, r24	; 0x24
    5052:	ea a1       	ldd	r30, Y+34	; 0x22
    5054:	fb a1       	ldd	r31, Y+35	; 0x23
    5056:	00 82       	st	Z, r0
    5058:	8a a1       	ldd	r24, Y+34	; 0x22
    505a:	9b a1       	ldd	r25, Y+35	; 0x23
    505c:	01 96       	adiw	r24, 0x01	; 1
    505e:	9b a3       	std	Y+35, r25	; 0x23
    5060:	8a a3       	std	Y+34, r24	; 0x22
    5062:	9e a1       	ldd	r25, Y+38	; 0x26
    5064:	91 50       	subi	r25, 0x01	; 1
    5066:	9e a3       	std	Y+38, r25	; 0x26
    5068:	ee a1       	ldd	r30, Y+38	; 0x26
    506a:	ee 23       	and	r30, r30
    506c:	51 f7       	brne	.-44     	; 0x5042 <Keypad_getChar+0x28>
	u8 Local_U8_Reading = 0;
    506e:	19 8a       	std	Y+17, r1	; 0x11
	u8 Local_U8_Row = 0;
    5070:	18 8a       	std	Y+16, r1	; 0x10
	u8 Local_U8_Col = 0;
    5072:	1f 86       	std	Y+15, r1	; 0x0f
	for(Local_U8_Row=KEYPAD_R0_PIN;Local_U8_Row<=KEYPAD_R3_PIN;Local_U8_Row++)
    5074:	81 e2       	ldi	r24, 0x21	; 33
    5076:	88 8b       	std	Y+16, r24	; 0x10
    5078:	b2 c0       	rjmp	.+356    	; 0x51de <Keypad_getChar+0x1c4>
	{
		Dio_vidSetPinValue(Local_U8_Row,LOW);
    507a:	88 89       	ldd	r24, Y+16	; 0x10
    507c:	60 e0       	ldi	r22, 0x00	; 0
    507e:	0e 94 9c 34 	call	0x6938	; 0x6938 <Dio_vidSetPinValue>
		for(Local_U8_Col=KEYPAD_C0_PIN;Local_U8_Col<=KEYPAD_C3_PIN;Local_U8_Col++)
    5082:	88 e1       	ldi	r24, 0x18	; 24
    5084:	8f 87       	std	Y+15, r24	; 0x0f
    5086:	a0 c0       	rjmp	.+320    	; 0x51c8 <Keypad_getChar+0x1ae>
		{
			if(Dio_GetPinValue(Local_U8_Col) == KEYPAD_PRESSED)
    5088:	8f 85       	ldd	r24, Y+15	; 0x0f
    508a:	0e 94 ff 32 	call	0x65fe	; 0x65fe <Dio_GetPinValue>
    508e:	88 23       	and	r24, r24
    5090:	09 f0       	breq	.+2      	; 0x5094 <Keypad_getChar+0x7a>
    5092:	97 c0       	rjmp	.+302    	; 0x51c2 <Keypad_getChar+0x1a8>
    5094:	80 e0       	ldi	r24, 0x00	; 0
    5096:	90 e0       	ldi	r25, 0x00	; 0
    5098:	a0 ef       	ldi	r26, 0xF0	; 240
    509a:	b2 e4       	ldi	r27, 0x42	; 66
    509c:	8b 87       	std	Y+11, r24	; 0x0b
    509e:	9c 87       	std	Y+12, r25	; 0x0c
    50a0:	ad 87       	std	Y+13, r26	; 0x0d
    50a2:	be 87       	std	Y+14, r27	; 0x0e
 */
void
_delay_ms(double __ms)
{
	uint16_t __ticks;
	double __tmp = ((F_CPU) / 4e3) * __ms;
    50a4:	6b 85       	ldd	r22, Y+11	; 0x0b
    50a6:	7c 85       	ldd	r23, Y+12	; 0x0c
    50a8:	8d 85       	ldd	r24, Y+13	; 0x0d
    50aa:	9e 85       	ldd	r25, Y+14	; 0x0e
    50ac:	20 e0       	ldi	r18, 0x00	; 0
    50ae:	30 e0       	ldi	r19, 0x00	; 0
    50b0:	4a e7       	ldi	r20, 0x7A	; 122
    50b2:	55 e4       	ldi	r21, 0x45	; 69
    50b4:	0e 94 9c 02 	call	0x538	; 0x538 <__mulsf3>
    50b8:	dc 01       	movw	r26, r24
    50ba:	cb 01       	movw	r24, r22
    50bc:	8f 83       	std	Y+7, r24	; 0x07
    50be:	98 87       	std	Y+8, r25	; 0x08
    50c0:	a9 87       	std	Y+9, r26	; 0x09
    50c2:	ba 87       	std	Y+10, r27	; 0x0a
	if (__tmp < 1.0)
    50c4:	6f 81       	ldd	r22, Y+7	; 0x07
    50c6:	78 85       	ldd	r23, Y+8	; 0x08
    50c8:	89 85       	ldd	r24, Y+9	; 0x09
    50ca:	9a 85       	ldd	r25, Y+10	; 0x0a
    50cc:	20 e0       	ldi	r18, 0x00	; 0
    50ce:	30 e0       	ldi	r19, 0x00	; 0
    50d0:	40 e8       	ldi	r20, 0x80	; 128
    50d2:	5f e3       	ldi	r21, 0x3F	; 63
    50d4:	0e 94 a2 04 	call	0x944	; 0x944 <__ltsf2>
    50d8:	88 23       	and	r24, r24
    50da:	2c f4       	brge	.+10     	; 0x50e6 <Keypad_getChar+0xcc>
		__ticks = 1;
    50dc:	81 e0       	ldi	r24, 0x01	; 1
    50de:	90 e0       	ldi	r25, 0x00	; 0
    50e0:	9e 83       	std	Y+6, r25	; 0x06
    50e2:	8d 83       	std	Y+5, r24	; 0x05
    50e4:	3f c0       	rjmp	.+126    	; 0x5164 <Keypad_getChar+0x14a>
	else if (__tmp > 65535)
    50e6:	6f 81       	ldd	r22, Y+7	; 0x07
    50e8:	78 85       	ldd	r23, Y+8	; 0x08
    50ea:	89 85       	ldd	r24, Y+9	; 0x09
    50ec:	9a 85       	ldd	r25, Y+10	; 0x0a
    50ee:	20 e0       	ldi	r18, 0x00	; 0
    50f0:	3f ef       	ldi	r19, 0xFF	; 255
    50f2:	4f e7       	ldi	r20, 0x7F	; 127
    50f4:	57 e4       	ldi	r21, 0x47	; 71
    50f6:	0e 94 42 04 	call	0x884	; 0x884 <__gtsf2>
    50fa:	18 16       	cp	r1, r24
    50fc:	4c f5       	brge	.+82     	; 0x5150 <Keypad_getChar+0x136>
	{
		//	__ticks = requested delay in 1/10 ms
		__ticks = (uint16_t) (__ms * 10.0);
    50fe:	6b 85       	ldd	r22, Y+11	; 0x0b
    5100:	7c 85       	ldd	r23, Y+12	; 0x0c
    5102:	8d 85       	ldd	r24, Y+13	; 0x0d
    5104:	9e 85       	ldd	r25, Y+14	; 0x0e
    5106:	20 e0       	ldi	r18, 0x00	; 0
    5108:	30 e0       	ldi	r19, 0x00	; 0
    510a:	40 e2       	ldi	r20, 0x20	; 32
    510c:	51 e4       	ldi	r21, 0x41	; 65
    510e:	0e 94 9c 02 	call	0x538	; 0x538 <__mulsf3>
    5112:	dc 01       	movw	r26, r24
    5114:	cb 01       	movw	r24, r22
    5116:	bc 01       	movw	r22, r24
    5118:	cd 01       	movw	r24, r26
    511a:	0e 94 c6 00 	call	0x18c	; 0x18c <__fixunssfsi>
    511e:	dc 01       	movw	r26, r24
    5120:	cb 01       	movw	r24, r22
    5122:	9e 83       	std	Y+6, r25	; 0x06
    5124:	8d 83       	std	Y+5, r24	; 0x05
    5126:	0f c0       	rjmp	.+30     	; 0x5146 <Keypad_getChar+0x12c>
    5128:	80 e9       	ldi	r24, 0x90	; 144
    512a:	91 e0       	ldi	r25, 0x01	; 1
    512c:	9c 83       	std	Y+4, r25	; 0x04
    512e:	8b 83       	std	Y+3, r24	; 0x03
    5130:	8b 81       	ldd	r24, Y+3	; 0x03
    5132:	9c 81       	ldd	r25, Y+4	; 0x04
    5134:	01 97       	sbiw	r24, 0x01	; 1
    5136:	f1 f7       	brne	.-4      	; 0x5134 <Keypad_getChar+0x11a>
    5138:	9c 83       	std	Y+4, r25	; 0x04
    513a:	8b 83       	std	Y+3, r24	; 0x03
		while(__ticks)
		{
			// wait 1/10 ms
			_delay_loop_2(((F_CPU) / 4e3) / 10);
			__ticks --;
    513c:	8d 81       	ldd	r24, Y+5	; 0x05
    513e:	9e 81       	ldd	r25, Y+6	; 0x06
    5140:	01 97       	sbiw	r24, 0x01	; 1
    5142:	9e 83       	std	Y+6, r25	; 0x06
    5144:	8d 83       	std	Y+5, r24	; 0x05
		__ticks = 1;
	else if (__tmp > 65535)
	{
		//	__ticks = requested delay in 1/10 ms
		__ticks = (uint16_t) (__ms * 10.0);
		while(__ticks)
    5146:	8d 81       	ldd	r24, Y+5	; 0x05
    5148:	9e 81       	ldd	r25, Y+6	; 0x06
    514a:	00 97       	sbiw	r24, 0x00	; 0
    514c:	69 f7       	brne	.-38     	; 0x5128 <Keypad_getChar+0x10e>
    514e:	14 c0       	rjmp	.+40     	; 0x5178 <Keypad_getChar+0x15e>
			__ticks --;
		}
		return;
	}
	else
		__ticks = (uint16_t)__tmp;
    5150:	6f 81       	ldd	r22, Y+7	; 0x07
    5152:	78 85       	ldd	r23, Y+8	; 0x08
    5154:	89 85       	ldd	r24, Y+9	; 0x09
    5156:	9a 85       	ldd	r25, Y+10	; 0x0a
    5158:	0e 94 c6 00 	call	0x18c	; 0x18c <__fixunssfsi>
    515c:	dc 01       	movw	r26, r24
    515e:	cb 01       	movw	r24, r22
    5160:	9e 83       	std	Y+6, r25	; 0x06
    5162:	8d 83       	std	Y+5, r24	; 0x05
    5164:	8d 81       	ldd	r24, Y+5	; 0x05
    5166:	9e 81       	ldd	r25, Y+6	; 0x06
    5168:	9a 83       	std	Y+2, r25	; 0x02
    516a:	89 83       	std	Y+1, r24	; 0x01
    516c:	89 81       	ldd	r24, Y+1	; 0x01
    516e:	9a 81       	ldd	r25, Y+2	; 0x02
    5170:	01 97       	sbiw	r24, 0x01	; 1
    5172:	f1 f7       	brne	.-4      	; 0x5170 <Keypad_getChar+0x156>
    5174:	9a 83       	std	Y+2, r25	; 0x02
    5176:	89 83       	std	Y+1, r24	; 0x01
			{
				_delay_ms(KEYPAD_DEBOUNCING_TIME);
				if(Dio_GetPinValue(Local_U8_Col) == KEYPAD_PRESSED)
    5178:	8f 85       	ldd	r24, Y+15	; 0x0f
    517a:	0e 94 ff 32 	call	0x65fe	; 0x65fe <Dio_GetPinValue>
    517e:	88 23       	and	r24, r24
    5180:	01 f5       	brne	.+64     	; 0x51c2 <Keypad_getChar+0x1a8>
				{
					while(Dio_GetPinValue(Local_U8_Col) == KEYPAD_PRESSED);
    5182:	8f 85       	ldd	r24, Y+15	; 0x0f
    5184:	0e 94 ff 32 	call	0x65fe	; 0x65fe <Dio_GetPinValue>
    5188:	88 23       	and	r24, r24
    518a:	d9 f3       	breq	.-10     	; 0x5182 <Keypad_getChar+0x168>
					Local_U8_Reading = Local_U8_Arr[Local_U8_Row-KEYPAD_R0_PIN][Local_U8_Col-KEYPAD_C0_PIN];
    518c:	88 89       	ldd	r24, Y+16	; 0x10
    518e:	88 2f       	mov	r24, r24
    5190:	90 e0       	ldi	r25, 0x00	; 0
    5192:	9c 01       	movw	r18, r24
    5194:	21 52       	subi	r18, 0x21	; 33
    5196:	30 40       	sbci	r19, 0x00	; 0
    5198:	8f 85       	ldd	r24, Y+15	; 0x0f
    519a:	88 2f       	mov	r24, r24
    519c:	90 e0       	ldi	r25, 0x00	; 0
    519e:	ac 01       	movw	r20, r24
    51a0:	48 51       	subi	r20, 0x18	; 24
    51a2:	50 40       	sbci	r21, 0x00	; 0
    51a4:	22 0f       	add	r18, r18
    51a6:	33 1f       	adc	r19, r19
    51a8:	22 0f       	add	r18, r18
    51aa:	33 1f       	adc	r19, r19
    51ac:	ce 01       	movw	r24, r28
    51ae:	01 96       	adiw	r24, 0x01	; 1
    51b0:	82 0f       	add	r24, r18
    51b2:	93 1f       	adc	r25, r19
    51b4:	84 0f       	add	r24, r20
    51b6:	95 1f       	adc	r25, r21
    51b8:	fc 01       	movw	r30, r24
    51ba:	71 96       	adiw	r30, 0x11	; 17
    51bc:	80 81       	ld	r24, Z
    51be:	89 8b       	std	Y+17, r24	; 0x11
    51c0:	07 c0       	rjmp	.+14     	; 0x51d0 <Keypad_getChar+0x1b6>
	u8 Local_U8_Row = 0;
	u8 Local_U8_Col = 0;
	for(Local_U8_Row=KEYPAD_R0_PIN;Local_U8_Row<=KEYPAD_R3_PIN;Local_U8_Row++)
	{
		Dio_vidSetPinValue(Local_U8_Row,LOW);
		for(Local_U8_Col=KEYPAD_C0_PIN;Local_U8_Col<=KEYPAD_C3_PIN;Local_U8_Col++)
    51c2:	8f 85       	ldd	r24, Y+15	; 0x0f
    51c4:	8f 5f       	subi	r24, 0xFF	; 255
    51c6:	8f 87       	std	Y+15, r24	; 0x0f
    51c8:	8f 85       	ldd	r24, Y+15	; 0x0f
    51ca:	8c 31       	cpi	r24, 0x1C	; 28
    51cc:	08 f4       	brcc	.+2      	; 0x51d0 <Keypad_getChar+0x1b6>
    51ce:	5c cf       	rjmp	.-328    	; 0x5088 <Keypad_getChar+0x6e>
					Local_U8_Reading = Local_U8_Arr[Local_U8_Row-KEYPAD_R0_PIN][Local_U8_Col-KEYPAD_C0_PIN];
					break;
				}
			}
		}
		Dio_vidSetPinValue(Local_U8_Row,HIGH);
    51d0:	88 89       	ldd	r24, Y+16	; 0x10
    51d2:	61 e0       	ldi	r22, 0x01	; 1
    51d4:	0e 94 9c 34 	call	0x6938	; 0x6938 <Dio_vidSetPinValue>
		                       { '7' , '8' , '9' , 'C' },
			                   { '*' , '0' , '#' , 'D' }};
	u8 Local_U8_Reading = 0;
	u8 Local_U8_Row = 0;
	u8 Local_U8_Col = 0;
	for(Local_U8_Row=KEYPAD_R0_PIN;Local_U8_Row<=KEYPAD_R3_PIN;Local_U8_Row++)
    51d8:	88 89       	ldd	r24, Y+16	; 0x10
    51da:	8f 5f       	subi	r24, 0xFF	; 255
    51dc:	88 8b       	std	Y+16, r24	; 0x10
    51de:	88 89       	ldd	r24, Y+16	; 0x10
    51e0:	85 32       	cpi	r24, 0x25	; 37
    51e2:	08 f4       	brcc	.+2      	; 0x51e6 <Keypad_getChar+0x1cc>
    51e4:	4a cf       	rjmp	.-364    	; 0x507a <Keypad_getChar+0x60>
				}
			}
		}
		Dio_vidSetPinValue(Local_U8_Row,HIGH);
	}
	return Local_U8_Reading;
    51e6:	89 89       	ldd	r24, Y+17	; 0x11
}
    51e8:	a6 96       	adiw	r28, 0x26	; 38
    51ea:	0f b6       	in	r0, 0x3f	; 63
    51ec:	f8 94       	cli
    51ee:	de bf       	out	0x3e, r29	; 62
    51f0:	0f be       	out	0x3f, r0	; 63
    51f2:	cd bf       	out	0x3d, r28	; 61
    51f4:	cf 91       	pop	r28
    51f6:	df 91       	pop	r29
    51f8:	08 95       	ret

000051fa <Hc05_Init>:
 */ 
#include "Hc05.h"


void Hc05_Init(void)
{
    51fa:	df 93       	push	r29
    51fc:	cf 93       	push	r28
    51fe:	cd b7       	in	r28, 0x3d	; 61
    5200:	de b7       	in	r29, 0x3e	; 62
    USART_Init(9600);
    5202:	60 e8       	ldi	r22, 0x80	; 128
    5204:	75 e2       	ldi	r23, 0x25	; 37
    5206:	80 e0       	ldi	r24, 0x00	; 0
    5208:	90 e0       	ldi	r25, 0x00	; 0
    520a:	0e 94 0f 2b 	call	0x561e	; 0x561e <USART_Init>
}
    520e:	cf 91       	pop	r28
    5210:	df 91       	pop	r29
    5212:	08 95       	ret

00005214 <Hc05_Send>:
void Hc05_Send(u8 Local_u8_Data)
{
    5214:	df 93       	push	r29
    5216:	cf 93       	push	r28
    5218:	0f 92       	push	r0
    521a:	cd b7       	in	r28, 0x3d	; 61
    521c:	de b7       	in	r29, 0x3e	; 62
    521e:	89 83       	std	Y+1, r24	; 0x01
   USART_TransmitChr(Local_u8_Data);
    5220:	89 81       	ldd	r24, Y+1	; 0x01
    5222:	0e 94 64 2b 	call	0x56c8	; 0x56c8 <USART_TransmitChr>
}
    5226:	0f 90       	pop	r0
    5228:	cf 91       	pop	r28
    522a:	df 91       	pop	r29
    522c:	08 95       	ret

0000522e <Hc05_SendString>:

void Hc05_SendString(u8* Local_u8_PtrToString)
{
    522e:	df 93       	push	r29
    5230:	cf 93       	push	r28
    5232:	cd b7       	in	r28, 0x3d	; 61
    5234:	de b7       	in	r29, 0x3e	; 62
    5236:	62 97       	sbiw	r28, 0x12	; 18
    5238:	0f b6       	in	r0, 0x3f	; 63
    523a:	f8 94       	cli
    523c:	de bf       	out	0x3e, r29	; 62
    523e:	0f be       	out	0x3f, r0	; 63
    5240:	cd bf       	out	0x3d, r28	; 61
    5242:	9a 8b       	std	Y+18, r25	; 0x12
    5244:	89 8b       	std	Y+17, r24	; 0x11
	u8 Local_u8_Counter = 0;
    5246:	18 8a       	std	Y+16, r1	; 0x10
	u8 Local_u8_Data = 0;
    5248:	1f 86       	std	Y+15, r1	; 0x0f
    524a:	82 c0       	rjmp	.+260    	; 0x5350 <Hc05_SendString+0x122>
	while (Local_u8_PtrToString[Local_u8_Counter] !='\0')
	{
		Local_u8_Data=Local_u8_PtrToString[Local_u8_Counter];
    524c:	88 89       	ldd	r24, Y+16	; 0x10
    524e:	28 2f       	mov	r18, r24
    5250:	30 e0       	ldi	r19, 0x00	; 0
    5252:	89 89       	ldd	r24, Y+17	; 0x11
    5254:	9a 89       	ldd	r25, Y+18	; 0x12
    5256:	fc 01       	movw	r30, r24
    5258:	e2 0f       	add	r30, r18
    525a:	f3 1f       	adc	r31, r19
    525c:	80 81       	ld	r24, Z
    525e:	8f 87       	std	Y+15, r24	; 0x0f
		Hc05_Send(Local_u8_Data);
    5260:	8f 85       	ldd	r24, Y+15	; 0x0f
    5262:	0e 94 0a 29 	call	0x5214	; 0x5214 <Hc05_Send>
    5266:	80 e0       	ldi	r24, 0x00	; 0
    5268:	90 e0       	ldi	r25, 0x00	; 0
    526a:	a8 e4       	ldi	r26, 0x48	; 72
    526c:	b2 e4       	ldi	r27, 0x42	; 66
    526e:	8b 87       	std	Y+11, r24	; 0x0b
    5270:	9c 87       	std	Y+12, r25	; 0x0c
    5272:	ad 87       	std	Y+13, r26	; 0x0d
    5274:	be 87       	std	Y+14, r27	; 0x0e
 */
void
_delay_ms(double __ms)
{
	uint16_t __ticks;
	double __tmp = ((F_CPU) / 4e3) * __ms;
    5276:	6b 85       	ldd	r22, Y+11	; 0x0b
    5278:	7c 85       	ldd	r23, Y+12	; 0x0c
    527a:	8d 85       	ldd	r24, Y+13	; 0x0d
    527c:	9e 85       	ldd	r25, Y+14	; 0x0e
    527e:	20 e0       	ldi	r18, 0x00	; 0
    5280:	30 e0       	ldi	r19, 0x00	; 0
    5282:	4a e7       	ldi	r20, 0x7A	; 122
    5284:	55 e4       	ldi	r21, 0x45	; 69
    5286:	0e 94 9c 02 	call	0x538	; 0x538 <__mulsf3>
    528a:	dc 01       	movw	r26, r24
    528c:	cb 01       	movw	r24, r22
    528e:	8f 83       	std	Y+7, r24	; 0x07
    5290:	98 87       	std	Y+8, r25	; 0x08
    5292:	a9 87       	std	Y+9, r26	; 0x09
    5294:	ba 87       	std	Y+10, r27	; 0x0a
	if (__tmp < 1.0)
    5296:	6f 81       	ldd	r22, Y+7	; 0x07
    5298:	78 85       	ldd	r23, Y+8	; 0x08
    529a:	89 85       	ldd	r24, Y+9	; 0x09
    529c:	9a 85       	ldd	r25, Y+10	; 0x0a
    529e:	20 e0       	ldi	r18, 0x00	; 0
    52a0:	30 e0       	ldi	r19, 0x00	; 0
    52a2:	40 e8       	ldi	r20, 0x80	; 128
    52a4:	5f e3       	ldi	r21, 0x3F	; 63
    52a6:	0e 94 a2 04 	call	0x944	; 0x944 <__ltsf2>
    52aa:	88 23       	and	r24, r24
    52ac:	2c f4       	brge	.+10     	; 0x52b8 <Hc05_SendString+0x8a>
		__ticks = 1;
    52ae:	81 e0       	ldi	r24, 0x01	; 1
    52b0:	90 e0       	ldi	r25, 0x00	; 0
    52b2:	9e 83       	std	Y+6, r25	; 0x06
    52b4:	8d 83       	std	Y+5, r24	; 0x05
    52b6:	3f c0       	rjmp	.+126    	; 0x5336 <Hc05_SendString+0x108>
	else if (__tmp > 65535)
    52b8:	6f 81       	ldd	r22, Y+7	; 0x07
    52ba:	78 85       	ldd	r23, Y+8	; 0x08
    52bc:	89 85       	ldd	r24, Y+9	; 0x09
    52be:	9a 85       	ldd	r25, Y+10	; 0x0a
    52c0:	20 e0       	ldi	r18, 0x00	; 0
    52c2:	3f ef       	ldi	r19, 0xFF	; 255
    52c4:	4f e7       	ldi	r20, 0x7F	; 127
    52c6:	57 e4       	ldi	r21, 0x47	; 71
    52c8:	0e 94 42 04 	call	0x884	; 0x884 <__gtsf2>
    52cc:	18 16       	cp	r1, r24
    52ce:	4c f5       	brge	.+82     	; 0x5322 <Hc05_SendString+0xf4>
	{
		//	__ticks = requested delay in 1/10 ms
		__ticks = (uint16_t) (__ms * 10.0);
    52d0:	6b 85       	ldd	r22, Y+11	; 0x0b
    52d2:	7c 85       	ldd	r23, Y+12	; 0x0c
    52d4:	8d 85       	ldd	r24, Y+13	; 0x0d
    52d6:	9e 85       	ldd	r25, Y+14	; 0x0e
    52d8:	20 e0       	ldi	r18, 0x00	; 0
    52da:	30 e0       	ldi	r19, 0x00	; 0
    52dc:	40 e2       	ldi	r20, 0x20	; 32
    52de:	51 e4       	ldi	r21, 0x41	; 65
    52e0:	0e 94 9c 02 	call	0x538	; 0x538 <__mulsf3>
    52e4:	dc 01       	movw	r26, r24
    52e6:	cb 01       	movw	r24, r22
    52e8:	bc 01       	movw	r22, r24
    52ea:	cd 01       	movw	r24, r26
    52ec:	0e 94 c6 00 	call	0x18c	; 0x18c <__fixunssfsi>
    52f0:	dc 01       	movw	r26, r24
    52f2:	cb 01       	movw	r24, r22
    52f4:	9e 83       	std	Y+6, r25	; 0x06
    52f6:	8d 83       	std	Y+5, r24	; 0x05
    52f8:	0f c0       	rjmp	.+30     	; 0x5318 <Hc05_SendString+0xea>
    52fa:	80 e9       	ldi	r24, 0x90	; 144
    52fc:	91 e0       	ldi	r25, 0x01	; 1
    52fe:	9c 83       	std	Y+4, r25	; 0x04
    5300:	8b 83       	std	Y+3, r24	; 0x03
    5302:	8b 81       	ldd	r24, Y+3	; 0x03
    5304:	9c 81       	ldd	r25, Y+4	; 0x04
    5306:	01 97       	sbiw	r24, 0x01	; 1
    5308:	f1 f7       	brne	.-4      	; 0x5306 <Hc05_SendString+0xd8>
    530a:	9c 83       	std	Y+4, r25	; 0x04
    530c:	8b 83       	std	Y+3, r24	; 0x03
		while(__ticks)
		{
			// wait 1/10 ms
			_delay_loop_2(((F_CPU) / 4e3) / 10);
			__ticks --;
    530e:	8d 81       	ldd	r24, Y+5	; 0x05
    5310:	9e 81       	ldd	r25, Y+6	; 0x06
    5312:	01 97       	sbiw	r24, 0x01	; 1
    5314:	9e 83       	std	Y+6, r25	; 0x06
    5316:	8d 83       	std	Y+5, r24	; 0x05
		__ticks = 1;
	else if (__tmp > 65535)
	{
		//	__ticks = requested delay in 1/10 ms
		__ticks = (uint16_t) (__ms * 10.0);
		while(__ticks)
    5318:	8d 81       	ldd	r24, Y+5	; 0x05
    531a:	9e 81       	ldd	r25, Y+6	; 0x06
    531c:	00 97       	sbiw	r24, 0x00	; 0
    531e:	69 f7       	brne	.-38     	; 0x52fa <Hc05_SendString+0xcc>
    5320:	14 c0       	rjmp	.+40     	; 0x534a <Hc05_SendString+0x11c>
			__ticks --;
		}
		return;
	}
	else
		__ticks = (uint16_t)__tmp;
    5322:	6f 81       	ldd	r22, Y+7	; 0x07
    5324:	78 85       	ldd	r23, Y+8	; 0x08
    5326:	89 85       	ldd	r24, Y+9	; 0x09
    5328:	9a 85       	ldd	r25, Y+10	; 0x0a
    532a:	0e 94 c6 00 	call	0x18c	; 0x18c <__fixunssfsi>
    532e:	dc 01       	movw	r26, r24
    5330:	cb 01       	movw	r24, r22
    5332:	9e 83       	std	Y+6, r25	; 0x06
    5334:	8d 83       	std	Y+5, r24	; 0x05
    5336:	8d 81       	ldd	r24, Y+5	; 0x05
    5338:	9e 81       	ldd	r25, Y+6	; 0x06
    533a:	9a 83       	std	Y+2, r25	; 0x02
    533c:	89 83       	std	Y+1, r24	; 0x01
    533e:	89 81       	ldd	r24, Y+1	; 0x01
    5340:	9a 81       	ldd	r25, Y+2	; 0x02
    5342:	01 97       	sbiw	r24, 0x01	; 1
    5344:	f1 f7       	brne	.-4      	; 0x5342 <Hc05_SendString+0x114>
    5346:	9a 83       	std	Y+2, r25	; 0x02
    5348:	89 83       	std	Y+1, r24	; 0x01
		_delay_ms(50);
		Local_u8_Counter++;
    534a:	88 89       	ldd	r24, Y+16	; 0x10
    534c:	8f 5f       	subi	r24, 0xFF	; 255
    534e:	88 8b       	std	Y+16, r24	; 0x10

void Hc05_SendString(u8* Local_u8_PtrToString)
{
	u8 Local_u8_Counter = 0;
	u8 Local_u8_Data = 0;
	while (Local_u8_PtrToString[Local_u8_Counter] !='\0')
    5350:	88 89       	ldd	r24, Y+16	; 0x10
    5352:	28 2f       	mov	r18, r24
    5354:	30 e0       	ldi	r19, 0x00	; 0
    5356:	89 89       	ldd	r24, Y+17	; 0x11
    5358:	9a 89       	ldd	r25, Y+18	; 0x12
    535a:	fc 01       	movw	r30, r24
    535c:	e2 0f       	add	r30, r18
    535e:	f3 1f       	adc	r31, r19
    5360:	80 81       	ld	r24, Z
    5362:	88 23       	and	r24, r24
    5364:	09 f0       	breq	.+2      	; 0x5368 <Hc05_SendString+0x13a>
    5366:	72 cf       	rjmp	.-284    	; 0x524c <Hc05_SendString+0x1e>
		Local_u8_Data=Local_u8_PtrToString[Local_u8_Counter];
		Hc05_Send(Local_u8_Data);
		_delay_ms(50);
		Local_u8_Counter++;
	}
}
    5368:	62 96       	adiw	r28, 0x12	; 18
    536a:	0f b6       	in	r0, 0x3f	; 63
    536c:	f8 94       	cli
    536e:	de bf       	out	0x3e, r29	; 62
    5370:	0f be       	out	0x3f, r0	; 63
    5372:	cd bf       	out	0x3d, r28	; 61
    5374:	cf 91       	pop	r28
    5376:	df 91       	pop	r29
    5378:	08 95       	ret

0000537a <Hc05_Rec>:
u8 Hc05_Rec(void)
{
    537a:	df 93       	push	r29
    537c:	cf 93       	push	r28
    537e:	0f 92       	push	r0
    5380:	cd b7       	in	r28, 0x3d	; 61
    5382:	de b7       	in	r29, 0x3e	; 62
	u8 Local_u8_Data = 0;
    5384:	19 82       	std	Y+1, r1	; 0x01
	Local_u8_Data = USART_Receive_Blocking();
    5386:	0e 94 7e 2b 	call	0x56fc	; 0x56fc <USART_Receive_Blocking>
    538a:	89 83       	std	Y+1, r24	; 0x01
	return Local_u8_Data;
    538c:	89 81       	ldd	r24, Y+1	; 0x01
}
    538e:	0f 90       	pop	r0
    5390:	cf 91       	pop	r28
    5392:	df 91       	pop	r29
    5394:	08 95       	ret

00005396 <Dc_Motor_vidInit>:
#include "Dio.h"
#include "Dc_Motor.h"
#include "util/delay.h"

void Dc_Motor_vidInit(void)
{
    5396:	df 93       	push	r29
    5398:	cf 93       	push	r28
    539a:	cd b7       	in	r28, 0x3d	; 61
    539c:	de b7       	in	r29, 0x3e	; 62
	/*	Configure Motor Control Pins as Outputs	*/
	Dio_vidconfigChanel(DIO_PORTC,DIO_PIN3,DIO_OUTPUT);
    539e:	82 e0       	ldi	r24, 0x02	; 2
    53a0:	63 e0       	ldi	r22, 0x03	; 3
    53a2:	41 e0       	ldi	r20, 0x01	; 1
    53a4:	0e 94 50 2f 	call	0x5ea0	; 0x5ea0 <Dio_vidconfigChanel>
	Dio_vidconfigChanel(DIO_PORTC,DIO_PIN4,DIO_OUTPUT);
    53a8:	82 e0       	ldi	r24, 0x02	; 2
    53aa:	64 e0       	ldi	r22, 0x04	; 4
    53ac:	41 e0       	ldi	r20, 0x01	; 1
    53ae:	0e 94 50 2f 	call	0x5ea0	; 0x5ea0 <Dio_vidconfigChanel>

	/*	Make Sure Motor is Stop	*/
	Dio_vidwriteChanel(DIO_PORTD,DIO_PIN4,DIO_LOW);
    53b2:	83 e0       	ldi	r24, 0x03	; 3
    53b4:	64 e0       	ldi	r22, 0x04	; 4
    53b6:	40 e0       	ldi	r20, 0x00	; 0
    53b8:	0e 94 33 30 	call	0x6066	; 0x6066 <Dio_vidwriteChanel>
}
    53bc:	cf 91       	pop	r28
    53be:	df 91       	pop	r29
    53c0:	08 95       	ret

000053c2 <Dc_Motor_vidStart>:
void Dc_Motor_vidStart(motor_dir_t dir)
{
    53c2:	df 93       	push	r29
    53c4:	cf 93       	push	r28
    53c6:	0f 92       	push	r0
    53c8:	cd b7       	in	r28, 0x3d	; 61
    53ca:	de b7       	in	r29, 0x3e	; 62
    53cc:	89 83       	std	Y+1, r24	; 0x01
	if (dir == DIR_CW)
    53ce:	89 81       	ldd	r24, Y+1	; 0x01
    53d0:	88 23       	and	r24, r24
    53d2:	59 f4       	brne	.+22     	; 0x53ea <Dc_Motor_vidStart+0x28>
	{
		/*	Set IN1 Pin	*/
		Dio_vidwriteChanel(DIO_PORTC,DIO_PIN3,DIO_HIGH);
    53d4:	82 e0       	ldi	r24, 0x02	; 2
    53d6:	63 e0       	ldi	r22, 0x03	; 3
    53d8:	41 e0       	ldi	r20, 0x01	; 1
    53da:	0e 94 33 30 	call	0x6066	; 0x6066 <Dio_vidwriteChanel>
		/*	Clear IN2 Pin	*/
		Dio_vidwriteChanel(DIO_PORTC,DIO_PIN4,DIO_LOW);
    53de:	82 e0       	ldi	r24, 0x02	; 2
    53e0:	64 e0       	ldi	r22, 0x04	; 4
    53e2:	40 e0       	ldi	r20, 0x00	; 0
    53e4:	0e 94 33 30 	call	0x6066	; 0x6066 <Dio_vidwriteChanel>
    53e8:	0a c0       	rjmp	.+20     	; 0x53fe <Dc_Motor_vidStart+0x3c>
	}
	else
	{
		/*	Clear IN1 Pin	*/
		Dio_vidwriteChanel(DIO_PORTC,DIO_PIN3,DIO_LOW);
    53ea:	82 e0       	ldi	r24, 0x02	; 2
    53ec:	63 e0       	ldi	r22, 0x03	; 3
    53ee:	40 e0       	ldi	r20, 0x00	; 0
    53f0:	0e 94 33 30 	call	0x6066	; 0x6066 <Dio_vidwriteChanel>
		/*	Set IN2 Pin	*/
		Dio_vidwriteChanel(DIO_PORTC,DIO_PIN4,DIO_HIGH);
    53f4:	82 e0       	ldi	r24, 0x02	; 2
    53f6:	64 e0       	ldi	r22, 0x04	; 4
    53f8:	41 e0       	ldi	r20, 0x01	; 1
    53fa:	0e 94 33 30 	call	0x6066	; 0x6066 <Dio_vidwriteChanel>
	}

	/*	Set EN1 Pin	*/
	Dio_vidwriteChanel(DIO_PORTD,DIO_PIN4,DIO_HIGH);
    53fe:	83 e0       	ldi	r24, 0x03	; 3
    5400:	64 e0       	ldi	r22, 0x04	; 4
    5402:	41 e0       	ldi	r20, 0x01	; 1
    5404:	0e 94 33 30 	call	0x6066	; 0x6066 <Dio_vidwriteChanel>
}
    5408:	0f 90       	pop	r0
    540a:	cf 91       	pop	r28
    540c:	df 91       	pop	r29
    540e:	08 95       	ret

00005410 <Dc_Motor_vidStop>:
void Dc_Motor_vidStop(void)
{
    5410:	df 93       	push	r29
    5412:	cf 93       	push	r28
    5414:	cd b7       	in	r28, 0x3d	; 61
    5416:	de b7       	in	r29, 0x3e	; 62
    5418:	2e 97       	sbiw	r28, 0x0e	; 14
    541a:	0f b6       	in	r0, 0x3f	; 63
    541c:	f8 94       	cli
    541e:	de bf       	out	0x3e, r29	; 62
    5420:	0f be       	out	0x3f, r0	; 63
    5422:	cd bf       	out	0x3d, r28	; 61
	/*	Clear EN1 Pin	*/
	Dio_vidwriteChanel(DIO_PORTD,DIO_PIN4,DIO_LOW);
    5424:	83 e0       	ldi	r24, 0x03	; 3
    5426:	64 e0       	ldi	r22, 0x04	; 4
    5428:	40 e0       	ldi	r20, 0x00	; 0
    542a:	0e 94 33 30 	call	0x6066	; 0x6066 <Dio_vidwriteChanel>
    542e:	80 e0       	ldi	r24, 0x00	; 0
    5430:	90 e8       	ldi	r25, 0x80	; 128
    5432:	ab e3       	ldi	r26, 0x3B	; 59
    5434:	b5 e4       	ldi	r27, 0x45	; 69
    5436:	8b 87       	std	Y+11, r24	; 0x0b
    5438:	9c 87       	std	Y+12, r25	; 0x0c
    543a:	ad 87       	std	Y+13, r26	; 0x0d
    543c:	be 87       	std	Y+14, r27	; 0x0e
 */
void
_delay_ms(double __ms)
{
	uint16_t __ticks;
	double __tmp = ((F_CPU) / 4e3) * __ms;
    543e:	6b 85       	ldd	r22, Y+11	; 0x0b
    5440:	7c 85       	ldd	r23, Y+12	; 0x0c
    5442:	8d 85       	ldd	r24, Y+13	; 0x0d
    5444:	9e 85       	ldd	r25, Y+14	; 0x0e
    5446:	20 e0       	ldi	r18, 0x00	; 0
    5448:	30 e0       	ldi	r19, 0x00	; 0
    544a:	4a e7       	ldi	r20, 0x7A	; 122
    544c:	55 e4       	ldi	r21, 0x45	; 69
    544e:	0e 94 9c 02 	call	0x538	; 0x538 <__mulsf3>
    5452:	dc 01       	movw	r26, r24
    5454:	cb 01       	movw	r24, r22
    5456:	8f 83       	std	Y+7, r24	; 0x07
    5458:	98 87       	std	Y+8, r25	; 0x08
    545a:	a9 87       	std	Y+9, r26	; 0x09
    545c:	ba 87       	std	Y+10, r27	; 0x0a
	if (__tmp < 1.0)
    545e:	6f 81       	ldd	r22, Y+7	; 0x07
    5460:	78 85       	ldd	r23, Y+8	; 0x08
    5462:	89 85       	ldd	r24, Y+9	; 0x09
    5464:	9a 85       	ldd	r25, Y+10	; 0x0a
    5466:	20 e0       	ldi	r18, 0x00	; 0
    5468:	30 e0       	ldi	r19, 0x00	; 0
    546a:	40 e8       	ldi	r20, 0x80	; 128
    546c:	5f e3       	ldi	r21, 0x3F	; 63
    546e:	0e 94 a2 04 	call	0x944	; 0x944 <__ltsf2>
    5472:	88 23       	and	r24, r24
    5474:	2c f4       	brge	.+10     	; 0x5480 <Dc_Motor_vidStop+0x70>
		__ticks = 1;
    5476:	81 e0       	ldi	r24, 0x01	; 1
    5478:	90 e0       	ldi	r25, 0x00	; 0
    547a:	9e 83       	std	Y+6, r25	; 0x06
    547c:	8d 83       	std	Y+5, r24	; 0x05
    547e:	3f c0       	rjmp	.+126    	; 0x54fe <Dc_Motor_vidStop+0xee>
	else if (__tmp > 65535)
    5480:	6f 81       	ldd	r22, Y+7	; 0x07
    5482:	78 85       	ldd	r23, Y+8	; 0x08
    5484:	89 85       	ldd	r24, Y+9	; 0x09
    5486:	9a 85       	ldd	r25, Y+10	; 0x0a
    5488:	20 e0       	ldi	r18, 0x00	; 0
    548a:	3f ef       	ldi	r19, 0xFF	; 255
    548c:	4f e7       	ldi	r20, 0x7F	; 127
    548e:	57 e4       	ldi	r21, 0x47	; 71
    5490:	0e 94 42 04 	call	0x884	; 0x884 <__gtsf2>
    5494:	18 16       	cp	r1, r24
    5496:	4c f5       	brge	.+82     	; 0x54ea <Dc_Motor_vidStop+0xda>
	{
		//	__ticks = requested delay in 1/10 ms
		__ticks = (uint16_t) (__ms * 10.0);
    5498:	6b 85       	ldd	r22, Y+11	; 0x0b
    549a:	7c 85       	ldd	r23, Y+12	; 0x0c
    549c:	8d 85       	ldd	r24, Y+13	; 0x0d
    549e:	9e 85       	ldd	r25, Y+14	; 0x0e
    54a0:	20 e0       	ldi	r18, 0x00	; 0
    54a2:	30 e0       	ldi	r19, 0x00	; 0
    54a4:	40 e2       	ldi	r20, 0x20	; 32
    54a6:	51 e4       	ldi	r21, 0x41	; 65
    54a8:	0e 94 9c 02 	call	0x538	; 0x538 <__mulsf3>
    54ac:	dc 01       	movw	r26, r24
    54ae:	cb 01       	movw	r24, r22
    54b0:	bc 01       	movw	r22, r24
    54b2:	cd 01       	movw	r24, r26
    54b4:	0e 94 c6 00 	call	0x18c	; 0x18c <__fixunssfsi>
    54b8:	dc 01       	movw	r26, r24
    54ba:	cb 01       	movw	r24, r22
    54bc:	9e 83       	std	Y+6, r25	; 0x06
    54be:	8d 83       	std	Y+5, r24	; 0x05
    54c0:	0f c0       	rjmp	.+30     	; 0x54e0 <Dc_Motor_vidStop+0xd0>
    54c2:	80 e9       	ldi	r24, 0x90	; 144
    54c4:	91 e0       	ldi	r25, 0x01	; 1
    54c6:	9c 83       	std	Y+4, r25	; 0x04
    54c8:	8b 83       	std	Y+3, r24	; 0x03
    54ca:	8b 81       	ldd	r24, Y+3	; 0x03
    54cc:	9c 81       	ldd	r25, Y+4	; 0x04
    54ce:	01 97       	sbiw	r24, 0x01	; 1
    54d0:	f1 f7       	brne	.-4      	; 0x54ce <Dc_Motor_vidStop+0xbe>
    54d2:	9c 83       	std	Y+4, r25	; 0x04
    54d4:	8b 83       	std	Y+3, r24	; 0x03
		while(__ticks)
		{
			// wait 1/10 ms
			_delay_loop_2(((F_CPU) / 4e3) / 10);
			__ticks --;
    54d6:	8d 81       	ldd	r24, Y+5	; 0x05
    54d8:	9e 81       	ldd	r25, Y+6	; 0x06
    54da:	01 97       	sbiw	r24, 0x01	; 1
    54dc:	9e 83       	std	Y+6, r25	; 0x06
    54de:	8d 83       	std	Y+5, r24	; 0x05
		__ticks = 1;
	else if (__tmp > 65535)
	{
		//	__ticks = requested delay in 1/10 ms
		__ticks = (uint16_t) (__ms * 10.0);
		while(__ticks)
    54e0:	8d 81       	ldd	r24, Y+5	; 0x05
    54e2:	9e 81       	ldd	r25, Y+6	; 0x06
    54e4:	00 97       	sbiw	r24, 0x00	; 0
    54e6:	69 f7       	brne	.-38     	; 0x54c2 <Dc_Motor_vidStop+0xb2>
    54e8:	14 c0       	rjmp	.+40     	; 0x5512 <Dc_Motor_vidStop+0x102>
			__ticks --;
		}
		return;
	}
	else
		__ticks = (uint16_t)__tmp;
    54ea:	6f 81       	ldd	r22, Y+7	; 0x07
    54ec:	78 85       	ldd	r23, Y+8	; 0x08
    54ee:	89 85       	ldd	r24, Y+9	; 0x09
    54f0:	9a 85       	ldd	r25, Y+10	; 0x0a
    54f2:	0e 94 c6 00 	call	0x18c	; 0x18c <__fixunssfsi>
    54f6:	dc 01       	movw	r26, r24
    54f8:	cb 01       	movw	r24, r22
    54fa:	9e 83       	std	Y+6, r25	; 0x06
    54fc:	8d 83       	std	Y+5, r24	; 0x05
    54fe:	8d 81       	ldd	r24, Y+5	; 0x05
    5500:	9e 81       	ldd	r25, Y+6	; 0x06
    5502:	9a 83       	std	Y+2, r25	; 0x02
    5504:	89 83       	std	Y+1, r24	; 0x01
    5506:	89 81       	ldd	r24, Y+1	; 0x01
    5508:	9a 81       	ldd	r25, Y+2	; 0x02
    550a:	01 97       	sbiw	r24, 0x01	; 1
    550c:	f1 f7       	brne	.-4      	; 0x550a <Dc_Motor_vidStop+0xfa>
    550e:	9a 83       	std	Y+2, r25	; 0x02
    5510:	89 83       	std	Y+1, r24	; 0x01

	/*	Wait Till Motor Stop	*/
	_delay_ms(3000);
}
    5512:	2e 96       	adiw	r28, 0x0e	; 14
    5514:	0f b6       	in	r0, 0x3f	; 63
    5516:	f8 94       	cli
    5518:	de bf       	out	0x3e, r29	; 62
    551a:	0f be       	out	0x3f, r0	; 63
    551c:	cd bf       	out	0x3d, r28	; 61
    551e:	cf 91       	pop	r28
    5520:	df 91       	pop	r29
    5522:	08 95       	ret

00005524 <Buzzer_vidinit>:
 *      Author: Mazen Mokbel
 */
#include "Dio.h"

void Buzzer_vidinit(void)
{
    5524:	df 93       	push	r29
    5526:	cf 93       	push	r28
    5528:	cd b7       	in	r28, 0x3d	; 61
    552a:	de b7       	in	r29, 0x3e	; 62
	Dio_vidconfigChanel(DIO_PORTA,DIO_PIN3,DIO_OUTPUT);
    552c:	80 e0       	ldi	r24, 0x00	; 0
    552e:	63 e0       	ldi	r22, 0x03	; 3
    5530:	41 e0       	ldi	r20, 0x01	; 1
    5532:	0e 94 50 2f 	call	0x5ea0	; 0x5ea0 <Dio_vidconfigChanel>
}
    5536:	cf 91       	pop	r28
    5538:	df 91       	pop	r29
    553a:	08 95       	ret

0000553c <Buzzer_vidbuzzerOn>:
void Buzzer_vidbuzzerOn(void)
{
    553c:	df 93       	push	r29
    553e:	cf 93       	push	r28
    5540:	cd b7       	in	r28, 0x3d	; 61
    5542:	de b7       	in	r29, 0x3e	; 62
	Dio_vidwriteChanel(DIO_PORTA, DIO_PIN3, DIO_HIGH);
    5544:	80 e0       	ldi	r24, 0x00	; 0
    5546:	63 e0       	ldi	r22, 0x03	; 3
    5548:	41 e0       	ldi	r20, 0x01	; 1
    554a:	0e 94 33 30 	call	0x6066	; 0x6066 <Dio_vidwriteChanel>
}
    554e:	cf 91       	pop	r28
    5550:	df 91       	pop	r29
    5552:	08 95       	ret

00005554 <Buzzer_vidbuzzerOff>:
void Buzzer_vidbuzzerOff(void)
{
    5554:	df 93       	push	r29
    5556:	cf 93       	push	r28
    5558:	cd b7       	in	r28, 0x3d	; 61
    555a:	de b7       	in	r29, 0x3e	; 62
	Dio_vidwriteChanel(DIO_PORTA, DIO_PIN3, DIO_LOW);
    555c:	80 e0       	ldi	r24, 0x00	; 0
    555e:	63 e0       	ldi	r22, 0x03	; 3
    5560:	40 e0       	ldi	r20, 0x00	; 0
    5562:	0e 94 33 30 	call	0x6066	; 0x6066 <Dio_vidwriteChanel>
}
    5566:	cf 91       	pop	r28
    5568:	df 91       	pop	r29
    556a:	08 95       	ret

0000556c <Button_vidbuttonInit>:
 */
#include "Button.h"
#include "Dio.h"

void Button_vidbuttonInit(void)
{
    556c:	df 93       	push	r29
    556e:	cf 93       	push	r28
    5570:	cd b7       	in	r28, 0x3d	; 61
    5572:	de b7       	in	r29, 0x3e	; 62
	Dio_vidconfigChanel(DIO_PORTB, DIO_PIN0, DIO_INPUT);
    5574:	81 e0       	ldi	r24, 0x01	; 1
    5576:	60 e0       	ldi	r22, 0x00	; 0
    5578:	40 e0       	ldi	r20, 0x00	; 0
    557a:	0e 94 50 2f 	call	0x5ea0	; 0x5ea0 <Dio_vidconfigChanel>
	Dio_vidconfigChanel(DIO_PORTD, DIO_PIN6, DIO_INPUT);
    557e:	83 e0       	ldi	r24, 0x03	; 3
    5580:	66 e0       	ldi	r22, 0x06	; 6
    5582:	40 e0       	ldi	r20, 0x00	; 0
    5584:	0e 94 50 2f 	call	0x5ea0	; 0x5ea0 <Dio_vidconfigChanel>
	Dio_vidconfigChanel(DIO_PORTD, DIO_PIN2, DIO_INPUT);
    5588:	83 e0       	ldi	r24, 0x03	; 3
    558a:	62 e0       	ldi	r22, 0x02	; 2
    558c:	40 e0       	ldi	r20, 0x00	; 0
    558e:	0e 94 50 2f 	call	0x5ea0	; 0x5ea0 <Dio_vidconfigChanel>
}
    5592:	cf 91       	pop	r28
    5594:	df 91       	pop	r29
    5596:	08 95       	ret

00005598 <Button_udtbuttonStatus>:


button_butStatus_t Button_udtbuttonStatus(button_buttonId_t butnId)
{
    5598:	df 93       	push	r29
    559a:	cf 93       	push	r28
    559c:	00 d0       	rcall	.+0      	; 0x559e <Button_udtbuttonStatus+0x6>
    559e:	00 d0       	rcall	.+0      	; 0x55a0 <Button_udtbuttonStatus+0x8>
    55a0:	cd b7       	in	r28, 0x3d	; 61
    55a2:	de b7       	in	r29, 0x3e	; 62
    55a4:	8a 83       	std	Y+2, r24	; 0x02
	button_butStatus_t locBtnStatus = RELAEASED;
    55a6:	19 82       	std	Y+1, r1	; 0x01
	switch (butnId)
    55a8:	8a 81       	ldd	r24, Y+2	; 0x02
    55aa:	28 2f       	mov	r18, r24
    55ac:	30 e0       	ldi	r19, 0x00	; 0
    55ae:	3c 83       	std	Y+4, r19	; 0x04
    55b0:	2b 83       	std	Y+3, r18	; 0x03
    55b2:	8b 81       	ldd	r24, Y+3	; 0x03
    55b4:	9c 81       	ldd	r25, Y+4	; 0x04
    55b6:	81 30       	cpi	r24, 0x01	; 1
    55b8:	91 05       	cpc	r25, r1
    55ba:	a1 f0       	breq	.+40     	; 0x55e4 <Button_udtbuttonStatus+0x4c>
    55bc:	2b 81       	ldd	r18, Y+3	; 0x03
    55be:	3c 81       	ldd	r19, Y+4	; 0x04
    55c0:	22 30       	cpi	r18, 0x02	; 2
    55c2:	31 05       	cpc	r19, r1
    55c4:	d1 f0       	breq	.+52     	; 0x55fa <Button_udtbuttonStatus+0x62>
    55c6:	8b 81       	ldd	r24, Y+3	; 0x03
    55c8:	9c 81       	ldd	r25, Y+4	; 0x04
    55ca:	00 97       	sbiw	r24, 0x00	; 0
    55cc:	01 f5       	brne	.+64     	; 0x560e <Button_udtbuttonStatus+0x76>
	{
		case BUTTON0:
			if (Dio_udtreadChanel(DIO_PORTB, DIO_PIN0) == DIO_HIGH)
    55ce:	81 e0       	ldi	r24, 0x01	; 1
    55d0:	60 e0       	ldi	r22, 0x00	; 0
    55d2:	0e 94 72 31 	call	0x62e4	; 0x62e4 <Dio_udtreadChanel>
    55d6:	81 30       	cpi	r24, 0x01	; 1
    55d8:	19 f4       	brne	.+6      	; 0x55e0 <Button_udtbuttonStatus+0x48>
			{
				locBtnStatus = PRESSED;
    55da:	81 e0       	ldi	r24, 0x01	; 1
    55dc:	89 83       	std	Y+1, r24	; 0x01
    55de:	17 c0       	rjmp	.+46     	; 0x560e <Button_udtbuttonStatus+0x76>
			}
			else
			{
				locBtnStatus = RELAEASED;
    55e0:	19 82       	std	Y+1, r1	; 0x01
    55e2:	15 c0       	rjmp	.+42     	; 0x560e <Button_udtbuttonStatus+0x76>
			}
			break;

		case BUTTON1:
			if (Dio_udtreadChanel(DIO_PORTD, DIO_PIN6) == DIO_HIGH)
    55e4:	83 e0       	ldi	r24, 0x03	; 3
    55e6:	66 e0       	ldi	r22, 0x06	; 6
    55e8:	0e 94 72 31 	call	0x62e4	; 0x62e4 <Dio_udtreadChanel>
    55ec:	81 30       	cpi	r24, 0x01	; 1
    55ee:	19 f4       	brne	.+6      	; 0x55f6 <Button_udtbuttonStatus+0x5e>
			{
				locBtnStatus = PRESSED;
    55f0:	81 e0       	ldi	r24, 0x01	; 1
    55f2:	89 83       	std	Y+1, r24	; 0x01
    55f4:	0c c0       	rjmp	.+24     	; 0x560e <Button_udtbuttonStatus+0x76>
			}
			else
			{
				locBtnStatus = RELAEASED;
    55f6:	19 82       	std	Y+1, r1	; 0x01
    55f8:	0a c0       	rjmp	.+20     	; 0x560e <Button_udtbuttonStatus+0x76>
			}
			break;

		case BUTTON2:
			if (Dio_udtreadChanel(DIO_PORTD, DIO_PIN2) == DIO_HIGH)
    55fa:	83 e0       	ldi	r24, 0x03	; 3
    55fc:	62 e0       	ldi	r22, 0x02	; 2
    55fe:	0e 94 72 31 	call	0x62e4	; 0x62e4 <Dio_udtreadChanel>
    5602:	81 30       	cpi	r24, 0x01	; 1
    5604:	19 f4       	brne	.+6      	; 0x560c <Button_udtbuttonStatus+0x74>
			{
				locBtnStatus = PRESSED;
    5606:	81 e0       	ldi	r24, 0x01	; 1
    5608:	89 83       	std	Y+1, r24	; 0x01
    560a:	01 c0       	rjmp	.+2      	; 0x560e <Button_udtbuttonStatus+0x76>
			}
			else
			{
				locBtnStatus = RELAEASED;
    560c:	19 82       	std	Y+1, r1	; 0x01
			}
			break;
	}
	return locBtnStatus;
    560e:	89 81       	ldd	r24, Y+1	; 0x01
}
    5610:	0f 90       	pop	r0
    5612:	0f 90       	pop	r0
    5614:	0f 90       	pop	r0
    5616:	0f 90       	pop	r0
    5618:	cf 91       	pop	r28
    561a:	df 91       	pop	r29
    561c:	08 95       	ret

0000561e <USART_Init>:
#include "Uart.h"
#include "Std_Types.h"
#include "Bit_Math.h"

void USART_Init(u32 baud)
{
    561e:	df 93       	push	r29
    5620:	cf 93       	push	r28
    5622:	cd b7       	in	r28, 0x3d	; 61
    5624:	de b7       	in	r29, 0x3e	; 62
    5626:	28 97       	sbiw	r28, 0x08	; 8
    5628:	0f b6       	in	r0, 0x3f	; 63
    562a:	f8 94       	cli
    562c:	de bf       	out	0x3e, r29	; 62
    562e:	0f be       	out	0x3f, r0	; 63
    5630:	cd bf       	out	0x3d, r28	; 61
    5632:	6d 83       	std	Y+5, r22	; 0x05
    5634:	7e 83       	std	Y+6, r23	; 0x06
    5636:	8f 83       	std	Y+7, r24	; 0x07
    5638:	98 87       	std	Y+8, r25	; 0x08
	/*	Calculate UBRR Value	*/
	u32 loc_UBBR_val = ((F_OSC/(16*baud))-1);
    563a:	8d 81       	ldd	r24, Y+5	; 0x05
    563c:	9e 81       	ldd	r25, Y+6	; 0x06
    563e:	af 81       	ldd	r26, Y+7	; 0x07
    5640:	b8 85       	ldd	r27, Y+8	; 0x08
    5642:	88 0f       	add	r24, r24
    5644:	99 1f       	adc	r25, r25
    5646:	aa 1f       	adc	r26, r26
    5648:	bb 1f       	adc	r27, r27
    564a:	88 0f       	add	r24, r24
    564c:	99 1f       	adc	r25, r25
    564e:	aa 1f       	adc	r26, r26
    5650:	bb 1f       	adc	r27, r27
    5652:	88 0f       	add	r24, r24
    5654:	99 1f       	adc	r25, r25
    5656:	aa 1f       	adc	r26, r26
    5658:	bb 1f       	adc	r27, r27
    565a:	88 0f       	add	r24, r24
    565c:	99 1f       	adc	r25, r25
    565e:	aa 1f       	adc	r26, r26
    5660:	bb 1f       	adc	r27, r27
    5662:	9c 01       	movw	r18, r24
    5664:	ad 01       	movw	r20, r26
    5666:	80 e0       	ldi	r24, 0x00	; 0
    5668:	94 e2       	ldi	r25, 0x24	; 36
    566a:	a4 ef       	ldi	r26, 0xF4	; 244
    566c:	b0 e0       	ldi	r27, 0x00	; 0
    566e:	bc 01       	movw	r22, r24
    5670:	cd 01       	movw	r24, r26
    5672:	0e 94 60 37 	call	0x6ec0	; 0x6ec0 <__udivmodsi4>
    5676:	da 01       	movw	r26, r20
    5678:	c9 01       	movw	r24, r18
    567a:	01 97       	sbiw	r24, 0x01	; 1
    567c:	a1 09       	sbc	r26, r1
    567e:	b1 09       	sbc	r27, r1
    5680:	89 83       	std	Y+1, r24	; 0x01
    5682:	9a 83       	std	Y+2, r25	; 0x02
    5684:	ab 83       	std	Y+3, r26	; 0x03
    5686:	bc 83       	std	Y+4, r27	; 0x04
	/* Set baud rate */
	UART_UBRRH_REG = loc_UBBR_val>>8;
    5688:	e0 e4       	ldi	r30, 0x40	; 64
    568a:	f0 e0       	ldi	r31, 0x00	; 0
    568c:	89 81       	ldd	r24, Y+1	; 0x01
    568e:	9a 81       	ldd	r25, Y+2	; 0x02
    5690:	ab 81       	ldd	r26, Y+3	; 0x03
    5692:	bc 81       	ldd	r27, Y+4	; 0x04
    5694:	89 2f       	mov	r24, r25
    5696:	9a 2f       	mov	r25, r26
    5698:	ab 2f       	mov	r26, r27
    569a:	bb 27       	eor	r27, r27
    569c:	80 83       	st	Z, r24
	UART_UBRRL_REG = loc_UBBR_val;
    569e:	e9 e2       	ldi	r30, 0x29	; 41
    56a0:	f0 e0       	ldi	r31, 0x00	; 0
    56a2:	89 81       	ldd	r24, Y+1	; 0x01
    56a4:	80 83       	st	Z, r24
	/* Enable receiver and transmitter */
	UART_UCSRB_REG = (1<<UART_RXEN_BIT)|(1<<UART_TXEN_BIT);
    56a6:	ea e2       	ldi	r30, 0x2A	; 42
    56a8:	f0 e0       	ldi	r31, 0x00	; 0
    56aa:	88 e1       	ldi	r24, 0x18	; 24
    56ac:	80 83       	st	Z, r24
	/* Set frame format: 8data, 2stop bit */
	UART_UCSRC_REG = (1<<UART_URSEL_BIT)|(1<<UART_USBS_BIT)|(3<<UART_UCSZ0_BIT);
    56ae:	e0 e4       	ldi	r30, 0x40	; 64
    56b0:	f0 e0       	ldi	r31, 0x00	; 0
    56b2:	8e e8       	ldi	r24, 0x8E	; 142
    56b4:	80 83       	st	Z, r24
}
    56b6:	28 96       	adiw	r28, 0x08	; 8
    56b8:	0f b6       	in	r0, 0x3f	; 63
    56ba:	f8 94       	cli
    56bc:	de bf       	out	0x3e, r29	; 62
    56be:	0f be       	out	0x3f, r0	; 63
    56c0:	cd bf       	out	0x3d, r28	; 61
    56c2:	cf 91       	pop	r28
    56c4:	df 91       	pop	r29
    56c6:	08 95       	ret

000056c8 <USART_TransmitChr>:

void USART_TransmitChr(u8 data)
{
    56c8:	df 93       	push	r29
    56ca:	cf 93       	push	r28
    56cc:	0f 92       	push	r0
    56ce:	cd b7       	in	r28, 0x3d	; 61
    56d0:	de b7       	in	r29, 0x3e	; 62
    56d2:	89 83       	std	Y+1, r24	; 0x01
	/* Wait for empty transmit buffer */
	while (CHECK_BIT(UART_UCSRA_REG,UART_UDRE_BIT) == 0)
    56d4:	eb e2       	ldi	r30, 0x2B	; 43
    56d6:	f0 e0       	ldi	r31, 0x00	; 0
    56d8:	80 81       	ld	r24, Z
    56da:	82 95       	swap	r24
    56dc:	86 95       	lsr	r24
    56de:	87 70       	andi	r24, 0x07	; 7
    56e0:	88 2f       	mov	r24, r24
    56e2:	90 e0       	ldi	r25, 0x00	; 0
    56e4:	81 70       	andi	r24, 0x01	; 1
    56e6:	90 70       	andi	r25, 0x00	; 0
    56e8:	00 97       	sbiw	r24, 0x00	; 0
    56ea:	a1 f3       	breq	.-24     	; 0x56d4 <USART_TransmitChr+0xc>
	{
		;
	}
		/* Put data into buffer, sends the data */
	UART_UDR_REG = data;
    56ec:	ec e2       	ldi	r30, 0x2C	; 44
    56ee:	f0 e0       	ldi	r31, 0x00	; 0
    56f0:	89 81       	ldd	r24, Y+1	; 0x01
    56f2:	80 83       	st	Z, r24
}
    56f4:	0f 90       	pop	r0
    56f6:	cf 91       	pop	r28
    56f8:	df 91       	pop	r29
    56fa:	08 95       	ret

000056fc <USART_Receive_Blocking>:

u8 USART_Receive_Blocking(void)
{
    56fc:	df 93       	push	r29
    56fe:	cf 93       	push	r28
    5700:	cd b7       	in	r28, 0x3d	; 61
    5702:	de b7       	in	r29, 0x3e	; 62
	/* Wait for data to be received */
	while (CHECK_BIT(UART_UCSRA_REG,UART_RXC_BIT) == 0)
    5704:	eb e2       	ldi	r30, 0x2B	; 43
    5706:	f0 e0       	ldi	r31, 0x00	; 0
    5708:	80 81       	ld	r24, Z
    570a:	88 23       	and	r24, r24
    570c:	dc f7       	brge	.-10     	; 0x5704 <USART_Receive_Blocking+0x8>
	{
		;
	}
	/* Get and return received data from buffer */
	return UART_UDR_REG;
    570e:	ec e2       	ldi	r30, 0x2C	; 44
    5710:	f0 e0       	ldi	r31, 0x00	; 0
    5712:	80 81       	ld	r24, Z
}
    5714:	cf 91       	pop	r28
    5716:	df 91       	pop	r29
    5718:	08 95       	ret

0000571a <USART_Receive_NonBlocking>:
u8 USART_Receive_NonBlocking(void)
{
    571a:	df 93       	push	r29
    571c:	cf 93       	push	r28
    571e:	0f 92       	push	r0
    5720:	cd b7       	in	r28, 0x3d	; 61
    5722:	de b7       	in	r29, 0x3e	; 62
	/* Wait for data to be received */
	if (CHECK_BIT(UART_UCSRA_REG,UART_RXC_BIT) == 1)
    5724:	eb e2       	ldi	r30, 0x2B	; 43
    5726:	f0 e0       	ldi	r31, 0x00	; 0
    5728:	80 81       	ld	r24, Z
    572a:	88 1f       	adc	r24, r24
    572c:	88 27       	eor	r24, r24
    572e:	88 1f       	adc	r24, r24
    5730:	81 30       	cpi	r24, 0x01	; 1
    5732:	29 f4       	brne	.+10     	; 0x573e <USART_Receive_NonBlocking+0x24>
	{
		/* Get and return received data from buffer */
		return UART_UDR_REG;
    5734:	ec e2       	ldi	r30, 0x2C	; 44
    5736:	f0 e0       	ldi	r31, 0x00	; 0
    5738:	80 81       	ld	r24, Z
    573a:	89 83       	std	Y+1, r24	; 0x01
    573c:	01 c0       	rjmp	.+2      	; 0x5740 <USART_Receive_NonBlocking+0x26>
	}
	else
	{
		return 0;
    573e:	19 82       	std	Y+1, r1	; 0x01
    5740:	89 81       	ldd	r24, Y+1	; 0x01
	}

}
    5742:	0f 90       	pop	r0
    5744:	cf 91       	pop	r28
    5746:	df 91       	pop	r29
    5748:	08 95       	ret

0000574a <USART_TransmitStr>:
void USART_TransmitStr(u8 *str)
{
    574a:	df 93       	push	r29
    574c:	cf 93       	push	r28
    574e:	00 d0       	rcall	.+0      	; 0x5750 <USART_TransmitStr+0x6>
    5750:	cd b7       	in	r28, 0x3d	; 61
    5752:	de b7       	in	r29, 0x3e	; 62
    5754:	9a 83       	std	Y+2, r25	; 0x02
    5756:	89 83       	std	Y+1, r24	; 0x01
    5758:	0a c0       	rjmp	.+20     	; 0x576e <USART_TransmitStr+0x24>
	while (*str != '\0')
	{
		USART_TransmitChr(*str);
    575a:	e9 81       	ldd	r30, Y+1	; 0x01
    575c:	fa 81       	ldd	r31, Y+2	; 0x02
    575e:	80 81       	ld	r24, Z
    5760:	0e 94 64 2b 	call	0x56c8	; 0x56c8 <USART_TransmitChr>
		str++;
    5764:	89 81       	ldd	r24, Y+1	; 0x01
    5766:	9a 81       	ldd	r25, Y+2	; 0x02
    5768:	01 96       	adiw	r24, 0x01	; 1
    576a:	9a 83       	std	Y+2, r25	; 0x02
    576c:	89 83       	std	Y+1, r24	; 0x01
	}

}
void USART_TransmitStr(u8 *str)
{
	while (*str != '\0')
    576e:	e9 81       	ldd	r30, Y+1	; 0x01
    5770:	fa 81       	ldd	r31, Y+2	; 0x02
    5772:	80 81       	ld	r24, Z
    5774:	88 23       	and	r24, r24
    5776:	89 f7       	brne	.-30     	; 0x575a <USART_TransmitStr+0x10>
	{
		USART_TransmitChr(*str);
		str++;
	}
}
    5778:	0f 90       	pop	r0
    577a:	0f 90       	pop	r0
    577c:	cf 91       	pop	r28
    577e:	df 91       	pop	r29
    5780:	08 95       	ret

00005782 <USART_Receive_InterruptEnable>:
void USART_Receive_InterruptEnable(void)
{
    5782:	df 93       	push	r29
    5784:	cf 93       	push	r28
    5786:	cd b7       	in	r28, 0x3d	; 61
    5788:	de b7       	in	r29, 0x3e	; 62
	SET_BIT(UART_UCSRB_REG,UART_RXCIE_BIT);
    578a:	aa e2       	ldi	r26, 0x2A	; 42
    578c:	b0 e0       	ldi	r27, 0x00	; 0
    578e:	ea e2       	ldi	r30, 0x2A	; 42
    5790:	f0 e0       	ldi	r31, 0x00	; 0
    5792:	80 81       	ld	r24, Z
    5794:	80 68       	ori	r24, 0x80	; 128
    5796:	8c 93       	st	X, r24
}
    5798:	cf 91       	pop	r28
    579a:	df 91       	pop	r29
    579c:	08 95       	ret

0000579e <Timer0_vidInit>:
#include "Timer0.h"

void Timer0_vidInit(void)
{
    579e:	df 93       	push	r29
    57a0:	cf 93       	push	r28
    57a2:	cd b7       	in	r28, 0x3d	; 61
    57a4:	de b7       	in	r29, 0x3e	; 62

}
    57a6:	cf 91       	pop	r28
    57a8:	df 91       	pop	r29
    57aa:	08 95       	ret

000057ac <Timer0_vidSetPreload>:

void Timer0_vidSetPreload(u8 preload)
{
    57ac:	df 93       	push	r29
    57ae:	cf 93       	push	r28
    57b0:	0f 92       	push	r0
    57b2:	cd b7       	in	r28, 0x3d	; 61
    57b4:	de b7       	in	r29, 0x3e	; 62
    57b6:	89 83       	std	Y+1, r24	; 0x01

}
    57b8:	0f 90       	pop	r0
    57ba:	cf 91       	pop	r28
    57bc:	df 91       	pop	r29
    57be:	08 95       	ret

000057c0 <Timer0_vidTimerStart>:

void Timer0_vidTimerStart(timer0_clk_t clk)
{
    57c0:	df 93       	push	r29
    57c2:	cf 93       	push	r28
    57c4:	0f 92       	push	r0
    57c6:	cd b7       	in	r28, 0x3d	; 61
    57c8:	de b7       	in	r29, 0x3e	; 62
    57ca:	89 83       	std	Y+1, r24	; 0x01

}
    57cc:	0f 90       	pop	r0
    57ce:	cf 91       	pop	r28
    57d0:	df 91       	pop	r29
    57d2:	08 95       	ret

000057d4 <Timer0_vidTimerStop>:

void Timer0_vidTimerStop(void)
{
    57d4:	df 93       	push	r29
    57d6:	cf 93       	push	r28
    57d8:	cd b7       	in	r28, 0x3d	; 61
    57da:	de b7       	in	r29, 0x3e	; 62

}
    57dc:	cf 91       	pop	r28
    57de:	df 91       	pop	r29
    57e0:	08 95       	ret

000057e2 <Timer0_vidEnableOVInterrupt>:

void Timer0_vidEnableOVInterrupt(void)
{
    57e2:	df 93       	push	r29
    57e4:	cf 93       	push	r28
    57e6:	cd b7       	in	r28, 0x3d	; 61
    57e8:	de b7       	in	r29, 0x3e	; 62

}
    57ea:	cf 91       	pop	r28
    57ec:	df 91       	pop	r29
    57ee:	08 95       	ret

000057f0 <Timer0_vidDisableOVInterrupt>:
void Timer0_vidDisableOVInterrupt(void)
{
    57f0:	df 93       	push	r29
    57f2:	cf 93       	push	r28
    57f4:	cd b7       	in	r28, 0x3d	; 61
    57f6:	de b7       	in	r29, 0x3e	; 62

}
    57f8:	cf 91       	pop	r28
    57fa:	df 91       	pop	r29
    57fc:	08 95       	ret

000057fe <Spi_vidMasterInit>:
 *      Author: Youssef Galal
 *************************************************/
#include "Spi.h"

void Spi_vidMasterInit(void)
{
    57fe:	df 93       	push	r29
    5800:	cf 93       	push	r28
    5802:	cd b7       	in	r28, 0x3d	; 61
    5804:	de b7       	in	r29, 0x3e	; 62
	/*	configure SPI MOSI Pin as output	*/
	Dio_vidconfigChanel(DIO_PORTB, DIO_PIN5, DIO_OUTPUT);
    5806:	81 e0       	ldi	r24, 0x01	; 1
    5808:	65 e0       	ldi	r22, 0x05	; 5
    580a:	41 e0       	ldi	r20, 0x01	; 1
    580c:	0e 94 50 2f 	call	0x5ea0	; 0x5ea0 <Dio_vidconfigChanel>
	/*	configure SPI SS Pin as output	*/
	Dio_vidconfigChanel(DIO_PORTB, DIO_PIN4, DIO_OUTPUT);
    5810:	81 e0       	ldi	r24, 0x01	; 1
    5812:	64 e0       	ldi	r22, 0x04	; 4
    5814:	41 e0       	ldi	r20, 0x01	; 1
    5816:	0e 94 50 2f 	call	0x5ea0	; 0x5ea0 <Dio_vidconfigChanel>
	/*	configure SPI SCK Pin as output	*/
	Dio_vidconfigChanel(DIO_PORTB, DIO_PIN7, DIO_OUTPUT);
    581a:	81 e0       	ldi	r24, 0x01	; 1
    581c:	67 e0       	ldi	r22, 0x07	; 7
    581e:	41 e0       	ldi	r20, 0x01	; 1
    5820:	0e 94 50 2f 	call	0x5ea0	; 0x5ea0 <Dio_vidconfigChanel>
	/*	configure SPI MISO Pin as input	*/
	Dio_vidconfigChanel(DIO_PORTB, DIO_PIN6, DIO_INPUT);
    5824:	81 e0       	ldi	r24, 0x01	; 1
    5826:	66 e0       	ldi	r22, 0x06	; 6
    5828:	40 e0       	ldi	r20, 0x00	; 0
    582a:	0e 94 50 2f 	call	0x5ea0	; 0x5ea0 <Dio_vidconfigChanel>
	/*	initialize SPI SS pin with HIGH (No slave selected) */
	Dio_vidwriteChanel(DIO_PORTB, DIO_PIN4, DIO_HIGH);
    582e:	81 e0       	ldi	r24, 0x01	; 1
    5830:	64 e0       	ldi	r22, 0x04	; 4
    5832:	41 e0       	ldi	r20, 0x01	; 1
    5834:	0e 94 33 30 	call	0x6066	; 0x6066 <Dio_vidwriteChanel>
	/*	enable SPI Module	*/
	SET_BIT(SPI_SPCR_REG,SPI_SPE_BIT_NO);
    5838:	ad e2       	ldi	r26, 0x2D	; 45
    583a:	b0 e0       	ldi	r27, 0x00	; 0
    583c:	ed e2       	ldi	r30, 0x2D	; 45
    583e:	f0 e0       	ldi	r31, 0x00	; 0
    5840:	80 81       	ld	r24, Z
    5842:	80 64       	ori	r24, 0x40	; 64
    5844:	8c 93       	st	X, r24
	/*	enable SPI Module in Master mode	*/
	SET_BIT(SPI_SPCR_REG,SPI_MSTR_BIT_NO);
    5846:	ad e2       	ldi	r26, 0x2D	; 45
    5848:	b0 e0       	ldi	r27, 0x00	; 0
    584a:	ed e2       	ldi	r30, 0x2D	; 45
    584c:	f0 e0       	ldi	r31, 0x00	; 0
    584e:	80 81       	ld	r24, Z
    5850:	80 61       	ori	r24, 0x10	; 16
    5852:	8c 93       	st	X, r24
	/*	set SCK frequency by F_CPU/16	*/
	/*	Set SPI Speed	1MHZ*/
	SPI_SPCR_REG |= SPI_SCK_FREQ_FCPU_DIV_16;
    5854:	ad e2       	ldi	r26, 0x2D	; 45
    5856:	b0 e0       	ldi	r27, 0x00	; 0
    5858:	ed e2       	ldi	r30, 0x2D	; 45
    585a:	f0 e0       	ldi	r31, 0x00	; 0
    585c:	80 81       	ld	r24, Z
    585e:	81 60       	ori	r24, 0x01	; 1
    5860:	8c 93       	st	X, r24
}
    5862:	cf 91       	pop	r28
    5864:	df 91       	pop	r29
    5866:	08 95       	ret

00005868 <Spi_vidSlaveInit>:

void Spi_vidSlaveInit(void)
{
    5868:	df 93       	push	r29
    586a:	cf 93       	push	r28
    586c:	cd b7       	in	r28, 0x3d	; 61
    586e:	de b7       	in	r29, 0x3e	; 62
	/*	configure SPI MOSI Pin as input	*/
	Dio_vidconfigChanel(DIO_PORTB, DIO_PIN5, DIO_INPUT);
    5870:	81 e0       	ldi	r24, 0x01	; 1
    5872:	65 e0       	ldi	r22, 0x05	; 5
    5874:	40 e0       	ldi	r20, 0x00	; 0
    5876:	0e 94 50 2f 	call	0x5ea0	; 0x5ea0 <Dio_vidconfigChanel>
	/*	configure SPI SS Pin as input	*/
	Dio_vidconfigChanel(DIO_PORTB, DIO_PIN4, DIO_INPUT);
    587a:	81 e0       	ldi	r24, 0x01	; 1
    587c:	64 e0       	ldi	r22, 0x04	; 4
    587e:	40 e0       	ldi	r20, 0x00	; 0
    5880:	0e 94 50 2f 	call	0x5ea0	; 0x5ea0 <Dio_vidconfigChanel>
	/*	configure SPI SCK Pin as input	*/
	Dio_vidconfigChanel(DIO_PORTB, DIO_PIN7, DIO_INPUT);
    5884:	81 e0       	ldi	r24, 0x01	; 1
    5886:	67 e0       	ldi	r22, 0x07	; 7
    5888:	40 e0       	ldi	r20, 0x00	; 0
    588a:	0e 94 50 2f 	call	0x5ea0	; 0x5ea0 <Dio_vidconfigChanel>
	/*	configure SPI MISO Pin as output	*/
	Dio_vidconfigChanel(DIO_PORTB, DIO_PIN6, DIO_OUTPUT);
    588e:	81 e0       	ldi	r24, 0x01	; 1
    5890:	66 e0       	ldi	r22, 0x06	; 6
    5892:	41 e0       	ldi	r20, 0x01	; 1
    5894:	0e 94 50 2f 	call	0x5ea0	; 0x5ea0 <Dio_vidconfigChanel>
	/*	enable SPI Module	*/
	SET_BIT(SPI_SPCR_REG,SPI_SPE_BIT_NO);
    5898:	ad e2       	ldi	r26, 0x2D	; 45
    589a:	b0 e0       	ldi	r27, 0x00	; 0
    589c:	ed e2       	ldi	r30, 0x2D	; 45
    589e:	f0 e0       	ldi	r31, 0x00	; 0
    58a0:	80 81       	ld	r24, Z
    58a2:	80 64       	ori	r24, 0x40	; 64
    58a4:	8c 93       	st	X, r24
	/*	enable SPI Module in Slave mode	*/
	CLEAR_BIT(SPI_SPCR_REG,SPI_MSTR_BIT_NO);
    58a6:	ad e2       	ldi	r26, 0x2D	; 45
    58a8:	b0 e0       	ldi	r27, 0x00	; 0
    58aa:	ed e2       	ldi	r30, 0x2D	; 45
    58ac:	f0 e0       	ldi	r31, 0x00	; 0
    58ae:	80 81       	ld	r24, Z
    58b0:	8f 7e       	andi	r24, 0xEF	; 239
    58b2:	8c 93       	st	X, r24
}
    58b4:	cf 91       	pop	r28
    58b6:	df 91       	pop	r29
    58b8:	08 95       	ret

000058ba <Spi_MasterWrite>:

void Spi_MasterWrite(u8 data)
{
    58ba:	df 93       	push	r29
    58bc:	cf 93       	push	r28
    58be:	00 d0       	rcall	.+0      	; 0x58c0 <Spi_MasterWrite+0x6>
    58c0:	cd b7       	in	r28, 0x3d	; 61
    58c2:	de b7       	in	r29, 0x3e	; 62
    58c4:	8a 83       	std	Y+2, r24	; 0x02
	u8 loc_flush_byte;
	/*	load SPI data register with a byte to send	*/
	SPI_SPDR_REG = data;
    58c6:	ef e2       	ldi	r30, 0x2F	; 47
    58c8:	f0 e0       	ldi	r31, 0x00	; 0
    58ca:	8a 81       	ldd	r24, Y+2	; 0x02
    58cc:	80 83       	st	Z, r24
	/*	wait until byte sent	*/
	while(CHECK_BIT(SPI_SPSR_REG,SPI_SPIF_BIT_NO) == 0)
    58ce:	ee e2       	ldi	r30, 0x2E	; 46
    58d0:	f0 e0       	ldi	r31, 0x00	; 0
    58d2:	80 81       	ld	r24, Z
    58d4:	88 23       	and	r24, r24
    58d6:	dc f7       	brge	.-10     	; 0x58ce <Spi_MasterWrite+0x14>
	{
		;
	}
	loc_flush_byte = SPI_SPDR_REG;
    58d8:	ef e2       	ldi	r30, 0x2F	; 47
    58da:	f0 e0       	ldi	r31, 0x00	; 0
    58dc:	80 81       	ld	r24, Z
    58de:	89 83       	std	Y+1, r24	; 0x01
}
    58e0:	0f 90       	pop	r0
    58e2:	0f 90       	pop	r0
    58e4:	cf 91       	pop	r28
    58e6:	df 91       	pop	r29
    58e8:	08 95       	ret

000058ea <Spi_u8MasterRead>:

u8 Spi_u8MasterRead(void)
{
    58ea:	df 93       	push	r29
    58ec:	cf 93       	push	r28
    58ee:	0f 92       	push	r0
    58f0:	cd b7       	in	r28, 0x3d	; 61
    58f2:	de b7       	in	r29, 0x3e	; 62
	u8 loc_dummy_byte=0xFF;
    58f4:	8f ef       	ldi	r24, 0xFF	; 255
    58f6:	89 83       	std	Y+1, r24	; 0x01
	/*	load SPI data register with a byte to send	*/
	SPI_SPDR_REG = loc_dummy_byte;
    58f8:	ef e2       	ldi	r30, 0x2F	; 47
    58fa:	f0 e0       	ldi	r31, 0x00	; 0
    58fc:	89 81       	ldd	r24, Y+1	; 0x01
    58fe:	80 83       	st	Z, r24
	/*	wait until byte received	*/
	while(CHECK_BIT(SPI_SPSR_REG,SPI_SPIF_BIT_NO) == 0)
    5900:	ee e2       	ldi	r30, 0x2E	; 46
    5902:	f0 e0       	ldi	r31, 0x00	; 0
    5904:	80 81       	ld	r24, Z
    5906:	88 23       	and	r24, r24
    5908:	dc f7       	brge	.-10     	; 0x5900 <Spi_u8MasterRead+0x16>
	{
		;
	}
		/*	read the data register	*/
	return SPI_SPDR_REG;
    590a:	ef e2       	ldi	r30, 0x2F	; 47
    590c:	f0 e0       	ldi	r31, 0x00	; 0
    590e:	80 81       	ld	r24, Z
}
    5910:	0f 90       	pop	r0
    5912:	cf 91       	pop	r28
    5914:	df 91       	pop	r29
    5916:	08 95       	ret

00005918 <Spi_u8MasterTranseve>:

u8 Spi_u8MasterTranseve(u8 data)
{
    5918:	df 93       	push	r29
    591a:	cf 93       	push	r28
    591c:	0f 92       	push	r0
    591e:	cd b7       	in	r28, 0x3d	; 61
    5920:	de b7       	in	r29, 0x3e	; 62
    5922:	89 83       	std	Y+1, r24	; 0x01
	/*	load SPI data register with a byte to send	*/
	SPI_SPDR_REG = data;
    5924:	ef e2       	ldi	r30, 0x2F	; 47
    5926:	f0 e0       	ldi	r31, 0x00	; 0
    5928:	89 81       	ldd	r24, Y+1	; 0x01
    592a:	80 83       	st	Z, r24
	/*	wait until byte sent	*/
	while(CHECK_BIT(SPI_SPSR_REG,SPI_SPIF_BIT_NO) == 0)
    592c:	ee e2       	ldi	r30, 0x2E	; 46
    592e:	f0 e0       	ldi	r31, 0x00	; 0
    5930:	80 81       	ld	r24, Z
    5932:	88 23       	and	r24, r24
    5934:	dc f7       	brge	.-10     	; 0x592c <Spi_u8MasterTranseve+0x14>
	{
		;
	}
	/*	flush the data register	*/
	return SPI_SPDR_REG;
    5936:	ef e2       	ldi	r30, 0x2F	; 47
    5938:	f0 e0       	ldi	r31, 0x00	; 0
    593a:	80 81       	ld	r24, Z
}
    593c:	0f 90       	pop	r0
    593e:	cf 91       	pop	r28
    5940:	df 91       	pop	r29
    5942:	08 95       	ret

00005944 <Spi_u8SlaveRead>:

u8 Spi_u8SlaveRead(void)
{
    5944:	df 93       	push	r29
    5946:	cf 93       	push	r28
    5948:	cd b7       	in	r28, 0x3d	; 61
    594a:	de b7       	in	r29, 0x3e	; 62
	/*	wait until byte received	*/
	while(CHECK_BIT(SPI_SPSR_REG,SPI_SPIF_BIT_NO) == 0)
    594c:	ee e2       	ldi	r30, 0x2E	; 46
    594e:	f0 e0       	ldi	r31, 0x00	; 0
    5950:	80 81       	ld	r24, Z
    5952:	88 23       	and	r24, r24
    5954:	dc f7       	brge	.-10     	; 0x594c <Spi_u8SlaveRead+0x8>
	{
		;
	}
		/*	read the data register	*/
	return SPI_SPDR_REG;
    5956:	ef e2       	ldi	r30, 0x2F	; 47
    5958:	f0 e0       	ldi	r31, 0x00	; 0
    595a:	80 81       	ld	r24, Z
}
    595c:	cf 91       	pop	r28
    595e:	df 91       	pop	r29
    5960:	08 95       	ret

00005962 <Spi_vidSlaveWrite>:

void Spi_vidSlaveWrite(u8 data)
{
    5962:	df 93       	push	r29
    5964:	cf 93       	push	r28
    5966:	0f 92       	push	r0
    5968:	cd b7       	in	r28, 0x3d	; 61
    596a:	de b7       	in	r29, 0x3e	; 62
    596c:	89 83       	std	Y+1, r24	; 0x01
	SPI_SPDR_REG = data;
    596e:	ef e2       	ldi	r30, 0x2F	; 47
    5970:	f0 e0       	ldi	r31, 0x00	; 0
    5972:	89 81       	ldd	r24, Y+1	; 0x01
    5974:	80 83       	st	Z, r24
}
    5976:	0f 90       	pop	r0
    5978:	cf 91       	pop	r28
    597a:	df 91       	pop	r29
    597c:	08 95       	ret

0000597e <I2C_MasterInit>:
 *      Author: Malek Elsaka
 ***********************************************/
#include "I2c.h"

void I2C_MasterInit(void)
{
    597e:	df 93       	push	r29
    5980:	cf 93       	push	r28
    5982:	cd b7       	in	r28, 0x3d	; 61
    5984:	de b7       	in	r29, 0x3e	; 62
    /* Bit Rate: 400 KHZ */
	I2C_TWBR_REG=0x0C;
    5986:	e0 e2       	ldi	r30, 0x20	; 32
    5988:	f0 e0       	ldi	r31, 0x00	; 0
    598a:	8c e0       	ldi	r24, 0x0C	; 12
    598c:	80 83       	st	Z, r24
    /* enable I2C Module	*/
	/* enable ACK check	*/
	I2C_TWCR_REG |=I2C_ENABLE|I2C_ENABLE_ACK;
    598e:	a6 e5       	ldi	r26, 0x56	; 86
    5990:	b0 e0       	ldi	r27, 0x00	; 0
    5992:	e6 e5       	ldi	r30, 0x56	; 86
    5994:	f0 e0       	ldi	r31, 0x00	; 0
    5996:	80 81       	ld	r24, Z
    5998:	84 64       	ori	r24, 0x44	; 68
    599a:	8c 93       	st	X, r24
}
    599c:	cf 91       	pop	r28
    599e:	df 91       	pop	r29
    59a0:	08 95       	ret

000059a2 <I2C_SlaveInit>:

void I2C_SlaveInit(u8 addr)
{
    59a2:	df 93       	push	r29
    59a4:	cf 93       	push	r28
    59a6:	0f 92       	push	r0
    59a8:	cd b7       	in	r28, 0x3d	; 61
    59aa:	de b7       	in	r29, 0x3e	; 62
    59ac:	89 83       	std	Y+1, r24	; 0x01
	/*	enable general call response in slave mode	*/
	SET_BIT(I2C_TWAR_REG,I2C_SLAVE_RESPONSE_BIT_NO);
    59ae:	a2 e2       	ldi	r26, 0x22	; 34
    59b0:	b0 e0       	ldi	r27, 0x00	; 0
    59b2:	e2 e2       	ldi	r30, 0x22	; 34
    59b4:	f0 e0       	ldi	r31, 0x00	; 0
    59b6:	80 81       	ld	r24, Z
    59b8:	81 60       	ori	r24, 0x01	; 1
    59ba:	8c 93       	st	X, r24
    /* I2C Bus Slave Address	*/
	I2C_TWAR_REG |= (addr<<1);
    59bc:	a2 e2       	ldi	r26, 0x22	; 34
    59be:	b0 e0       	ldi	r27, 0x00	; 0
    59c0:	e2 e2       	ldi	r30, 0x22	; 34
    59c2:	f0 e0       	ldi	r31, 0x00	; 0
    59c4:	80 81       	ld	r24, Z
    59c6:	28 2f       	mov	r18, r24
    59c8:	89 81       	ldd	r24, Y+1	; 0x01
    59ca:	88 2f       	mov	r24, r24
    59cc:	90 e0       	ldi	r25, 0x00	; 0
    59ce:	88 0f       	add	r24, r24
    59d0:	99 1f       	adc	r25, r25
    59d2:	82 2b       	or	r24, r18
    59d4:	8c 93       	st	X, r24
    /* enable I2C Module	*/
	/*	enable ACK check	*/
	I2C_TWCR_REG |=I2C_ENABLE|I2C_ENABLE_ACK;
    59d6:	a6 e5       	ldi	r26, 0x56	; 86
    59d8:	b0 e0       	ldi	r27, 0x00	; 0
    59da:	e6 e5       	ldi	r30, 0x56	; 86
    59dc:	f0 e0       	ldi	r31, 0x00	; 0
    59de:	80 81       	ld	r24, Z
    59e0:	84 64       	ori	r24, 0x44	; 68
    59e2:	8c 93       	st	X, r24
}
    59e4:	0f 90       	pop	r0
    59e6:	cf 91       	pop	r28
    59e8:	df 91       	pop	r29
    59ea:	08 95       	ret

000059ec <I2C_StartCondition>:

boolean I2C_StartCondition(void)
{
    59ec:	df 93       	push	r29
    59ee:	cf 93       	push	r28
    59f0:	0f 92       	push	r0
    59f2:	cd b7       	in	r28, 0x3d	; 61
    59f4:	de b7       	in	r29, 0x3e	; 62
	/*	send start condition	*/
	I2C_TWCR_REG = I2C_ENABLE|I2C_INTERRUPT_FLAG|I2C_START_COND;
    59f6:	e6 e5       	ldi	r30, 0x56	; 86
    59f8:	f0 e0       	ldi	r31, 0x00	; 0
    59fa:	84 ea       	ldi	r24, 0xA4	; 164
    59fc:	80 83       	st	Z, r24
    /*	Wait until start condition sent successfully	*/
    while (CHECK_BIT(I2C_TWCR_REG,I2C_INTERRUPT_FLAG_BIT_NO)==0)
    59fe:	e6 e5       	ldi	r30, 0x56	; 86
    5a00:	f0 e0       	ldi	r31, 0x00	; 0
    5a02:	80 81       	ld	r24, Z
    5a04:	88 23       	and	r24, r24
    5a06:	dc f7       	brge	.-10     	; 0x59fe <I2C_StartCondition+0x12>
    {
    	/*Do Nothing */
    	   ;
    }

    if (I2C_ReadStatus() != I2C_START_ACK)
    5a08:	0e 94 b0 2d 	call	0x5b60	; 0x5b60 <I2C_ReadStatus>
    5a0c:	88 30       	cpi	r24, 0x08	; 8
    5a0e:	11 f0       	breq	.+4      	; 0x5a14 <I2C_StartCondition+0x28>
    {
    	return FALSE;
    5a10:	19 82       	std	Y+1, r1	; 0x01
    5a12:	02 c0       	rjmp	.+4      	; 0x5a18 <I2C_StartCondition+0x2c>
    }
    else
    {
    	/*	Do Nothing	*/
    }
    return TRUE;
    5a14:	81 e0       	ldi	r24, 0x01	; 1
    5a16:	89 83       	std	Y+1, r24	; 0x01
    5a18:	89 81       	ldd	r24, Y+1	; 0x01
}
    5a1a:	0f 90       	pop	r0
    5a1c:	cf 91       	pop	r28
    5a1e:	df 91       	pop	r29
    5a20:	08 95       	ret

00005a22 <I2C_RepeatedStartCondition>:

boolean I2C_RepeatedStartCondition(void)
{
    5a22:	df 93       	push	r29
    5a24:	cf 93       	push	r28
    5a26:	0f 92       	push	r0
    5a28:	cd b7       	in	r28, 0x3d	; 61
    5a2a:	de b7       	in	r29, 0x3e	; 62
	/*	send start condition	*/
	I2C_TWCR_REG |= I2C_ENABLE|I2C_INTERRUPT_FLAG|I2C_START_COND;
    5a2c:	a6 e5       	ldi	r26, 0x56	; 86
    5a2e:	b0 e0       	ldi	r27, 0x00	; 0
    5a30:	e6 e5       	ldi	r30, 0x56	; 86
    5a32:	f0 e0       	ldi	r31, 0x00	; 0
    5a34:	80 81       	ld	r24, Z
    5a36:	84 6a       	ori	r24, 0xA4	; 164
    5a38:	8c 93       	st	X, r24
    /*	Wait until start condition sent successfully	*/
    while (CHECK_BIT(I2C_TWCR_REG,I2C_INTERRUPT_FLAG_BIT_NO)==0)
    5a3a:	e6 e5       	ldi	r30, 0x56	; 86
    5a3c:	f0 e0       	ldi	r31, 0x00	; 0
    5a3e:	80 81       	ld	r24, Z
    5a40:	88 23       	and	r24, r24
    5a42:	dc f7       	brge	.-10     	; 0x5a3a <I2C_RepeatedStartCondition+0x18>
    {
    	/*Do Nothing */
    	   ;
    }
    if (I2C_ReadStatus() != I2C_REP_START_ACK)
    5a44:	0e 94 b0 2d 	call	0x5b60	; 0x5b60 <I2C_ReadStatus>
    5a48:	80 31       	cpi	r24, 0x10	; 16
    5a4a:	11 f0       	breq	.+4      	; 0x5a50 <I2C_RepeatedStartCondition+0x2e>
    {
    	return FALSE;
    5a4c:	19 82       	std	Y+1, r1	; 0x01
    5a4e:	02 c0       	rjmp	.+4      	; 0x5a54 <I2C_RepeatedStartCondition+0x32>
    }
    else
    {
    	/*	Do Nothing	*/
    }
    return TRUE;
    5a50:	81 e0       	ldi	r24, 0x01	; 1
    5a52:	89 83       	std	Y+1, r24	; 0x01
    5a54:	89 81       	ldd	r24, Y+1	; 0x01
}
    5a56:	0f 90       	pop	r0
    5a58:	cf 91       	pop	r28
    5a5a:	df 91       	pop	r29
    5a5c:	08 95       	ret

00005a5e <I2C_StopCondition>:

void I2C_StopCondition(void)
{
    5a5e:	df 93       	push	r29
    5a60:	cf 93       	push	r28
    5a62:	cd b7       	in	r28, 0x3d	; 61
    5a64:	de b7       	in	r29, 0x3e	; 62
	/*	send stop condition	*/
	I2C_TWCR_REG |= I2C_ENABLE|I2C_INTERRUPT_FLAG|I2C_STOP_COND;
    5a66:	a6 e5       	ldi	r26, 0x56	; 86
    5a68:	b0 e0       	ldi	r27, 0x00	; 0
    5a6a:	e6 e5       	ldi	r30, 0x56	; 86
    5a6c:	f0 e0       	ldi	r31, 0x00	; 0
    5a6e:	80 81       	ld	r24, Z
    5a70:	84 69       	ori	r24, 0x94	; 148
    5a72:	8c 93       	st	X, r24
	/*	Wait until start condition sent successfully	*/
    while (CHECK_BIT(I2C_TWCR_REG,I2C_INTERRUPT_FLAG_BIT_NO)==0)
    5a74:	e6 e5       	ldi	r30, 0x56	; 86
    5a76:	f0 e0       	ldi	r31, 0x00	; 0
    5a78:	80 81       	ld	r24, Z
    5a7a:	88 23       	and	r24, r24
    5a7c:	dc f7       	brge	.-10     	; 0x5a74 <I2C_StopCondition+0x16>
    {
    	/*Do Nothing */
    	   ;
    }
}
    5a7e:	cf 91       	pop	r28
    5a80:	df 91       	pop	r29
    5a82:	08 95       	ret

00005a84 <I2C_WriteByte>:

void I2C_WriteByte(u8 data)
{
    5a84:	df 93       	push	r29
    5a86:	cf 93       	push	r28
    5a88:	0f 92       	push	r0
    5a8a:	cd b7       	in	r28, 0x3d	; 61
    5a8c:	de b7       	in	r29, 0x3e	; 62
    5a8e:	89 83       	std	Y+1, r24	; 0x01
    /*	Put data On I2C data Register	*/
	I2C_TWDR_REG = data;
    5a90:	e3 e2       	ldi	r30, 0x23	; 35
    5a92:	f0 e0       	ldi	r31, 0x00	; 0
    5a94:	89 81       	ldd	r24, Y+1	; 0x01
    5a96:	80 83       	st	Z, r24

    /*clear flag	*/
	I2C_TWCR_REG |= I2C_ENABLE|I2C_INTERRUPT_FLAG;
    5a98:	a6 e5       	ldi	r26, 0x56	; 86
    5a9a:	b0 e0       	ldi	r27, 0x00	; 0
    5a9c:	e6 e5       	ldi	r30, 0x56	; 86
    5a9e:	f0 e0       	ldi	r31, 0x00	; 0
    5aa0:	80 81       	ld	r24, Z
    5aa2:	84 68       	ori	r24, 0x84	; 132
    5aa4:	8c 93       	st	X, r24


	/*	Wait until data sent successfully	*/
    while (CHECK_BIT(I2C_TWCR_REG,I2C_INTERRUPT_FLAG_BIT_NO)==0)
    5aa6:	e6 e5       	ldi	r30, 0x56	; 86
    5aa8:	f0 e0       	ldi	r31, 0x00	; 0
    5aaa:	80 81       	ld	r24, Z
    5aac:	88 23       	and	r24, r24
    5aae:	dc f7       	brge	.-10     	; 0x5aa6 <I2C_WriteByte+0x22>
    {
    	/*Do Nothing */
    	   ;
    }
}
    5ab0:	0f 90       	pop	r0
    5ab2:	cf 91       	pop	r28
    5ab4:	df 91       	pop	r29
    5ab6:	08 95       	ret

00005ab8 <I2C_Send_SlaveAddressWriteOperation>:

boolean I2C_Send_SlaveAddressWriteOperation(u8 addr)
{
    5ab8:	df 93       	push	r29
    5aba:	cf 93       	push	r28
    5abc:	00 d0       	rcall	.+0      	; 0x5abe <I2C_Send_SlaveAddressWriteOperation+0x6>
    5abe:	0f 92       	push	r0
    5ac0:	cd b7       	in	r28, 0x3d	; 61
    5ac2:	de b7       	in	r29, 0x3e	; 62
    5ac4:	8a 83       	std	Y+2, r24	; 0x02
	u8 loc_addrWrite=0;
    5ac6:	19 82       	std	Y+1, r1	; 0x01
	loc_addrWrite=(addr<<1);
    5ac8:	8a 81       	ldd	r24, Y+2	; 0x02
    5aca:	88 0f       	add	r24, r24
    5acc:	89 83       	std	Y+1, r24	; 0x01
	I2C_WriteByte(loc_addrWrite);
    5ace:	89 81       	ldd	r24, Y+1	; 0x01
    5ad0:	0e 94 42 2d 	call	0x5a84	; 0x5a84 <I2C_WriteByte>
    if (I2C_ReadStatus() != I2C_SLA_W_ACK)
    5ad4:	0e 94 b0 2d 	call	0x5b60	; 0x5b60 <I2C_ReadStatus>
    5ad8:	88 31       	cpi	r24, 0x18	; 24
    5ada:	11 f0       	breq	.+4      	; 0x5ae0 <I2C_Send_SlaveAddressWriteOperation+0x28>
    {
    	return FALSE;
    5adc:	1b 82       	std	Y+3, r1	; 0x03
    5ade:	02 c0       	rjmp	.+4      	; 0x5ae4 <I2C_Send_SlaveAddressWriteOperation+0x2c>
    }
    else
    {
    	/*	Do Nothing	*/
    }
    return TRUE;
    5ae0:	81 e0       	ldi	r24, 0x01	; 1
    5ae2:	8b 83       	std	Y+3, r24	; 0x03
    5ae4:	8b 81       	ldd	r24, Y+3	; 0x03
}
    5ae6:	0f 90       	pop	r0
    5ae8:	0f 90       	pop	r0
    5aea:	0f 90       	pop	r0
    5aec:	cf 91       	pop	r28
    5aee:	df 91       	pop	r29
    5af0:	08 95       	ret

00005af2 <I2C_Send_SlaveAddressReadOperation>:

boolean I2C_Send_SlaveAddressReadOperation(u8 addr)
{
    5af2:	df 93       	push	r29
    5af4:	cf 93       	push	r28
    5af6:	00 d0       	rcall	.+0      	; 0x5af8 <I2C_Send_SlaveAddressReadOperation+0x6>
    5af8:	0f 92       	push	r0
    5afa:	cd b7       	in	r28, 0x3d	; 61
    5afc:	de b7       	in	r29, 0x3e	; 62
    5afe:	8a 83       	std	Y+2, r24	; 0x02
	u8 loc_addrWrite=0;
    5b00:	19 82       	std	Y+1, r1	; 0x01
	loc_addrWrite=(addr<<1)|(0x01);
    5b02:	8a 81       	ldd	r24, Y+2	; 0x02
    5b04:	88 2f       	mov	r24, r24
    5b06:	90 e0       	ldi	r25, 0x00	; 0
    5b08:	88 0f       	add	r24, r24
    5b0a:	99 1f       	adc	r25, r25
    5b0c:	81 60       	ori	r24, 0x01	; 1
    5b0e:	89 83       	std	Y+1, r24	; 0x01
	I2C_WriteByte(loc_addrWrite);
    5b10:	89 81       	ldd	r24, Y+1	; 0x01
    5b12:	0e 94 42 2d 	call	0x5a84	; 0x5a84 <I2C_WriteByte>
    if (I2C_ReadStatus() != I2C_SLA_R_ACK)
    5b16:	0e 94 b0 2d 	call	0x5b60	; 0x5b60 <I2C_ReadStatus>
    5b1a:	80 34       	cpi	r24, 0x40	; 64
    5b1c:	11 f0       	breq	.+4      	; 0x5b22 <I2C_Send_SlaveAddressReadOperation+0x30>
    {
    	return FALSE;
    5b1e:	1b 82       	std	Y+3, r1	; 0x03
    5b20:	02 c0       	rjmp	.+4      	; 0x5b26 <I2C_Send_SlaveAddressReadOperation+0x34>
    }
    else
    {
    	/*	Do Nothing	*/
    }
    return TRUE;
    5b22:	81 e0       	ldi	r24, 0x01	; 1
    5b24:	8b 83       	std	Y+3, r24	; 0x03
    5b26:	8b 81       	ldd	r24, Y+3	; 0x03
}
    5b28:	0f 90       	pop	r0
    5b2a:	0f 90       	pop	r0
    5b2c:	0f 90       	pop	r0
    5b2e:	cf 91       	pop	r28
    5b30:	df 91       	pop	r29
    5b32:	08 95       	ret

00005b34 <I2C_ReadByte>:

u8 I2C_ReadByte(void)
{
    5b34:	df 93       	push	r29
    5b36:	cf 93       	push	r28
    5b38:	cd b7       	in	r28, 0x3d	; 61
    5b3a:	de b7       	in	r29, 0x3e	; 62
	I2C_TWCR_REG |=  I2C_ENABLE|I2C_INTERRUPT_FLAG;
    5b3c:	a6 e5       	ldi	r26, 0x56	; 86
    5b3e:	b0 e0       	ldi	r27, 0x00	; 0
    5b40:	e6 e5       	ldi	r30, 0x56	; 86
    5b42:	f0 e0       	ldi	r31, 0x00	; 0
    5b44:	80 81       	ld	r24, Z
    5b46:	84 68       	ori	r24, 0x84	; 132
    5b48:	8c 93       	st	X, r24
	/*	Wait until data sent successfully	*/
    while (!(CHECK_BIT(I2C_TWCR_REG,I2C_INTERRUPT_FLAG_BIT_NO)))
    5b4a:	e6 e5       	ldi	r30, 0x56	; 86
    5b4c:	f0 e0       	ldi	r31, 0x00	; 0
    5b4e:	80 81       	ld	r24, Z
    5b50:	88 23       	and	r24, r24
    5b52:	dc f7       	brge	.-10     	; 0x5b4a <I2C_ReadByte+0x16>
    {
    	/*Do Nothing */
    	   ;
    }
    return I2C_TWDR_REG;
    5b54:	e3 e2       	ldi	r30, 0x23	; 35
    5b56:	f0 e0       	ldi	r31, 0x00	; 0
    5b58:	80 81       	ld	r24, Z
}
    5b5a:	cf 91       	pop	r28
    5b5c:	df 91       	pop	r29
    5b5e:	08 95       	ret

00005b60 <I2C_ReadStatus>:

u8 I2C_ReadStatus(void)
{
    5b60:	df 93       	push	r29
    5b62:	cf 93       	push	r28
    5b64:	0f 92       	push	r0
    5b66:	cd b7       	in	r28, 0x3d	; 61
    5b68:	de b7       	in	r29, 0x3e	; 62
    u8 status;
    status = I2C_TWSR_REG & 0xF8;// 1111 1000
    5b6a:	e1 e2       	ldi	r30, 0x21	; 33
    5b6c:	f0 e0       	ldi	r31, 0x00	; 0
    5b6e:	80 81       	ld	r24, Z
    5b70:	88 7f       	andi	r24, 0xF8	; 248
    5b72:	89 83       	std	Y+1, r24	; 0x01
    return status;
    5b74:	89 81       	ldd	r24, Y+1	; 0x01
}
    5b76:	0f 90       	pop	r0
    5b78:	cf 91       	pop	r28
    5b7a:	df 91       	pop	r29
    5b7c:	08 95       	ret

00005b7e <GINT_vidEnableAllInterrupts>:

#include "GINT_Reg.h"
#include "Bit_Math.h"

void GINT_vidEnableAllInterrupts(void)
{
    5b7e:	df 93       	push	r29
    5b80:	cf 93       	push	r28
    5b82:	cd b7       	in	r28, 0x3d	; 61
    5b84:	de b7       	in	r29, 0x3e	; 62
	SET_BIT(GINT_SREG_REG,7);
    5b86:	af e5       	ldi	r26, 0x5F	; 95
    5b88:	b0 e0       	ldi	r27, 0x00	; 0
    5b8a:	ef e5       	ldi	r30, 0x5F	; 95
    5b8c:	f0 e0       	ldi	r31, 0x00	; 0
    5b8e:	80 81       	ld	r24, Z
    5b90:	80 68       	ori	r24, 0x80	; 128
    5b92:	8c 93       	st	X, r24
}
    5b94:	cf 91       	pop	r28
    5b96:	df 91       	pop	r29
    5b98:	08 95       	ret

00005b9a <GINT_vidDisableAllInterrupts>:

void GINT_vidDisableAllInterrupts(void)
{
    5b9a:	df 93       	push	r29
    5b9c:	cf 93       	push	r28
    5b9e:	cd b7       	in	r28, 0x3d	; 61
    5ba0:	de b7       	in	r29, 0x3e	; 62
	CLEAR_BIT(GINT_SREG_REG,7);
    5ba2:	af e5       	ldi	r26, 0x5F	; 95
    5ba4:	b0 e0       	ldi	r27, 0x00	; 0
    5ba6:	ef e5       	ldi	r30, 0x5F	; 95
    5ba8:	f0 e0       	ldi	r31, 0x00	; 0
    5baa:	80 81       	ld	r24, Z
    5bac:	8f 77       	andi	r24, 0x7F	; 127
    5bae:	8c 93       	st	X, r24
}
    5bb0:	cf 91       	pop	r28
    5bb2:	df 91       	pop	r29
    5bb4:	08 95       	ret

00005bb6 <ExtInt_vidConfigExtInt>:
#include "ExtInt_Reg.h"
#include "ExtInt.h"
#include "Std_Types.h"

void ExtInt_vidConfigExtInt(extint_id_t intId, extint_sensectrl_t sensCtrl)
{
    5bb6:	df 93       	push	r29
    5bb8:	cf 93       	push	r28
    5bba:	00 d0       	rcall	.+0      	; 0x5bbc <ExtInt_vidConfigExtInt+0x6>
    5bbc:	00 d0       	rcall	.+0      	; 0x5bbe <ExtInt_vidConfigExtInt+0x8>
    5bbe:	cd b7       	in	r28, 0x3d	; 61
    5bc0:	de b7       	in	r29, 0x3e	; 62
    5bc2:	89 83       	std	Y+1, r24	; 0x01
    5bc4:	6a 83       	std	Y+2, r22	; 0x02
	switch(intId)
    5bc6:	89 81       	ldd	r24, Y+1	; 0x01
    5bc8:	28 2f       	mov	r18, r24
    5bca:	30 e0       	ldi	r19, 0x00	; 0
    5bcc:	3c 83       	std	Y+4, r19	; 0x04
    5bce:	2b 83       	std	Y+3, r18	; 0x03
    5bd0:	8b 81       	ldd	r24, Y+3	; 0x03
    5bd2:	9c 81       	ldd	r25, Y+4	; 0x04
    5bd4:	81 30       	cpi	r24, 0x01	; 1
    5bd6:	91 05       	cpc	r25, r1
    5bd8:	09 f4       	brne	.+2      	; 0x5bdc <ExtInt_vidConfigExtInt+0x26>
    5bda:	5a c0       	rjmp	.+180    	; 0x5c90 <ExtInt_vidConfigExtInt+0xda>
    5bdc:	2b 81       	ldd	r18, Y+3	; 0x03
    5bde:	3c 81       	ldd	r19, Y+4	; 0x04
    5be0:	22 30       	cpi	r18, 0x02	; 2
    5be2:	31 05       	cpc	r19, r1
    5be4:	09 f4       	brne	.+2      	; 0x5be8 <ExtInt_vidConfigExtInt+0x32>
    5be6:	a3 c0       	rjmp	.+326    	; 0x5d2e <ExtInt_vidConfigExtInt+0x178>
    5be8:	8b 81       	ldd	r24, Y+3	; 0x03
    5bea:	9c 81       	ldd	r25, Y+4	; 0x04
    5bec:	00 97       	sbiw	r24, 0x00	; 0
    5bee:	09 f0       	breq	.+2      	; 0x5bf2 <ExtInt_vidConfigExtInt+0x3c>
    5bf0:	ba c0       	rjmp	.+372    	; 0x5d66 <ExtInt_vidConfigExtInt+0x1b0>
	{
	case EXT_INT0:
		/*	configure sense control	*/
		if (sensCtrl == EXT_RISING_EDGE)
    5bf2:	8a 81       	ldd	r24, Y+2	; 0x02
    5bf4:	81 30       	cpi	r24, 0x01	; 1
    5bf6:	79 f4       	brne	.+30     	; 0x5c16 <ExtInt_vidConfigExtInt+0x60>
		{
			SET_BIT(EXTINT_MCUCR_REG,0);
    5bf8:	a5 e5       	ldi	r26, 0x55	; 85
    5bfa:	b0 e0       	ldi	r27, 0x00	; 0
    5bfc:	e5 e5       	ldi	r30, 0x55	; 85
    5bfe:	f0 e0       	ldi	r31, 0x00	; 0
    5c00:	80 81       	ld	r24, Z
    5c02:	81 60       	ori	r24, 0x01	; 1
    5c04:	8c 93       	st	X, r24
			SET_BIT(EXTINT_MCUCR_REG,1);
    5c06:	a5 e5       	ldi	r26, 0x55	; 85
    5c08:	b0 e0       	ldi	r27, 0x00	; 0
    5c0a:	e5 e5       	ldi	r30, 0x55	; 85
    5c0c:	f0 e0       	ldi	r31, 0x00	; 0
    5c0e:	80 81       	ld	r24, Z
    5c10:	82 60       	ori	r24, 0x02	; 2
    5c12:	8c 93       	st	X, r24
    5c14:	35 c0       	rjmp	.+106    	; 0x5c80 <ExtInt_vidConfigExtInt+0xca>
		}
		else if (sensCtrl == EXT_FAILING_EDGE)
    5c16:	8a 81       	ldd	r24, Y+2	; 0x02
    5c18:	88 23       	and	r24, r24
    5c1a:	79 f4       	brne	.+30     	; 0x5c3a <ExtInt_vidConfigExtInt+0x84>
		{
			CLEAR_BIT(EXTINT_MCUCR_REG,0);
    5c1c:	a5 e5       	ldi	r26, 0x55	; 85
    5c1e:	b0 e0       	ldi	r27, 0x00	; 0
    5c20:	e5 e5       	ldi	r30, 0x55	; 85
    5c22:	f0 e0       	ldi	r31, 0x00	; 0
    5c24:	80 81       	ld	r24, Z
    5c26:	8e 7f       	andi	r24, 0xFE	; 254
    5c28:	8c 93       	st	X, r24
			SET_BIT(EXTINT_MCUCR_REG,1);
    5c2a:	a5 e5       	ldi	r26, 0x55	; 85
    5c2c:	b0 e0       	ldi	r27, 0x00	; 0
    5c2e:	e5 e5       	ldi	r30, 0x55	; 85
    5c30:	f0 e0       	ldi	r31, 0x00	; 0
    5c32:	80 81       	ld	r24, Z
    5c34:	82 60       	ori	r24, 0x02	; 2
    5c36:	8c 93       	st	X, r24
    5c38:	23 c0       	rjmp	.+70     	; 0x5c80 <ExtInt_vidConfigExtInt+0xca>
		}
		else if (sensCtrl == EXT_BOTH_EDGE)
    5c3a:	8a 81       	ldd	r24, Y+2	; 0x02
    5c3c:	82 30       	cpi	r24, 0x02	; 2
    5c3e:	79 f4       	brne	.+30     	; 0x5c5e <ExtInt_vidConfigExtInt+0xa8>
		{
			SET_BIT(EXTINT_MCUCR_REG,0);
    5c40:	a5 e5       	ldi	r26, 0x55	; 85
    5c42:	b0 e0       	ldi	r27, 0x00	; 0
    5c44:	e5 e5       	ldi	r30, 0x55	; 85
    5c46:	f0 e0       	ldi	r31, 0x00	; 0
    5c48:	80 81       	ld	r24, Z
    5c4a:	81 60       	ori	r24, 0x01	; 1
    5c4c:	8c 93       	st	X, r24
			CLEAR_BIT(EXTINT_MCUCR_REG,1);
    5c4e:	a5 e5       	ldi	r26, 0x55	; 85
    5c50:	b0 e0       	ldi	r27, 0x00	; 0
    5c52:	e5 e5       	ldi	r30, 0x55	; 85
    5c54:	f0 e0       	ldi	r31, 0x00	; 0
    5c56:	80 81       	ld	r24, Z
    5c58:	8d 7f       	andi	r24, 0xFD	; 253
    5c5a:	8c 93       	st	X, r24
    5c5c:	11 c0       	rjmp	.+34     	; 0x5c80 <ExtInt_vidConfigExtInt+0xca>
		}
		else if (sensCtrl == EXT_LOW_LEVEL)
    5c5e:	8a 81       	ldd	r24, Y+2	; 0x02
    5c60:	83 30       	cpi	r24, 0x03	; 3
    5c62:	71 f4       	brne	.+28     	; 0x5c80 <ExtInt_vidConfigExtInt+0xca>
		{
			CLEAR_BIT(EXTINT_MCUCR_REG,0);
    5c64:	a5 e5       	ldi	r26, 0x55	; 85
    5c66:	b0 e0       	ldi	r27, 0x00	; 0
    5c68:	e5 e5       	ldi	r30, 0x55	; 85
    5c6a:	f0 e0       	ldi	r31, 0x00	; 0
    5c6c:	80 81       	ld	r24, Z
    5c6e:	8e 7f       	andi	r24, 0xFE	; 254
    5c70:	8c 93       	st	X, r24
			CLEAR_BIT(EXTINT_MCUCR_REG,1);
    5c72:	a5 e5       	ldi	r26, 0x55	; 85
    5c74:	b0 e0       	ldi	r27, 0x00	; 0
    5c76:	e5 e5       	ldi	r30, 0x55	; 85
    5c78:	f0 e0       	ldi	r31, 0x00	; 0
    5c7a:	80 81       	ld	r24, Z
    5c7c:	8d 7f       	andi	r24, 0xFD	; 253
    5c7e:	8c 93       	st	X, r24
		else
		{
			/*	Do Nothing	*/
		}
		/*	Enable Int0 Interrupt	*/
		SET_BIT(EXTINT_GICR_REG,INT0_EN_BIT);
    5c80:	ab e5       	ldi	r26, 0x5B	; 91
    5c82:	b0 e0       	ldi	r27, 0x00	; 0
    5c84:	eb e5       	ldi	r30, 0x5B	; 91
    5c86:	f0 e0       	ldi	r31, 0x00	; 0
    5c88:	80 81       	ld	r24, Z
    5c8a:	80 64       	ori	r24, 0x40	; 64
    5c8c:	8c 93       	st	X, r24
    5c8e:	6b c0       	rjmp	.+214    	; 0x5d66 <ExtInt_vidConfigExtInt+0x1b0>
		break;

	case EXT_INT1:

		/*	configure sense control	*/
				if (sensCtrl == EXT_RISING_EDGE)
    5c90:	8a 81       	ldd	r24, Y+2	; 0x02
    5c92:	81 30       	cpi	r24, 0x01	; 1
    5c94:	79 f4       	brne	.+30     	; 0x5cb4 <ExtInt_vidConfigExtInt+0xfe>
				{
					SET_BIT(EXTINT_MCUCR_REG,2);
    5c96:	a5 e5       	ldi	r26, 0x55	; 85
    5c98:	b0 e0       	ldi	r27, 0x00	; 0
    5c9a:	e5 e5       	ldi	r30, 0x55	; 85
    5c9c:	f0 e0       	ldi	r31, 0x00	; 0
    5c9e:	80 81       	ld	r24, Z
    5ca0:	84 60       	ori	r24, 0x04	; 4
    5ca2:	8c 93       	st	X, r24
					SET_BIT(EXTINT_MCUCR_REG,3);
    5ca4:	a5 e5       	ldi	r26, 0x55	; 85
    5ca6:	b0 e0       	ldi	r27, 0x00	; 0
    5ca8:	e5 e5       	ldi	r30, 0x55	; 85
    5caa:	f0 e0       	ldi	r31, 0x00	; 0
    5cac:	80 81       	ld	r24, Z
    5cae:	88 60       	ori	r24, 0x08	; 8
    5cb0:	8c 93       	st	X, r24
    5cb2:	35 c0       	rjmp	.+106    	; 0x5d1e <ExtInt_vidConfigExtInt+0x168>
				}
				else if (sensCtrl == EXT_FAILING_EDGE)
    5cb4:	8a 81       	ldd	r24, Y+2	; 0x02
    5cb6:	88 23       	and	r24, r24
    5cb8:	79 f4       	brne	.+30     	; 0x5cd8 <ExtInt_vidConfigExtInt+0x122>
				{
					CLEAR_BIT(EXTINT_MCUCR_REG,2);
    5cba:	a5 e5       	ldi	r26, 0x55	; 85
    5cbc:	b0 e0       	ldi	r27, 0x00	; 0
    5cbe:	e5 e5       	ldi	r30, 0x55	; 85
    5cc0:	f0 e0       	ldi	r31, 0x00	; 0
    5cc2:	80 81       	ld	r24, Z
    5cc4:	8b 7f       	andi	r24, 0xFB	; 251
    5cc6:	8c 93       	st	X, r24
					SET_BIT(EXTINT_MCUCR_REG,3);
    5cc8:	a5 e5       	ldi	r26, 0x55	; 85
    5cca:	b0 e0       	ldi	r27, 0x00	; 0
    5ccc:	e5 e5       	ldi	r30, 0x55	; 85
    5cce:	f0 e0       	ldi	r31, 0x00	; 0
    5cd0:	80 81       	ld	r24, Z
    5cd2:	88 60       	ori	r24, 0x08	; 8
    5cd4:	8c 93       	st	X, r24
    5cd6:	23 c0       	rjmp	.+70     	; 0x5d1e <ExtInt_vidConfigExtInt+0x168>
				}
				else if (sensCtrl == EXT_BOTH_EDGE)
    5cd8:	8a 81       	ldd	r24, Y+2	; 0x02
    5cda:	82 30       	cpi	r24, 0x02	; 2
    5cdc:	79 f4       	brne	.+30     	; 0x5cfc <ExtInt_vidConfigExtInt+0x146>
				{
					SET_BIT(EXTINT_MCUCR_REG,2);
    5cde:	a5 e5       	ldi	r26, 0x55	; 85
    5ce0:	b0 e0       	ldi	r27, 0x00	; 0
    5ce2:	e5 e5       	ldi	r30, 0x55	; 85
    5ce4:	f0 e0       	ldi	r31, 0x00	; 0
    5ce6:	80 81       	ld	r24, Z
    5ce8:	84 60       	ori	r24, 0x04	; 4
    5cea:	8c 93       	st	X, r24
					CLEAR_BIT(EXTINT_MCUCR_REG,3);
    5cec:	a5 e5       	ldi	r26, 0x55	; 85
    5cee:	b0 e0       	ldi	r27, 0x00	; 0
    5cf0:	e5 e5       	ldi	r30, 0x55	; 85
    5cf2:	f0 e0       	ldi	r31, 0x00	; 0
    5cf4:	80 81       	ld	r24, Z
    5cf6:	87 7f       	andi	r24, 0xF7	; 247
    5cf8:	8c 93       	st	X, r24
    5cfa:	11 c0       	rjmp	.+34     	; 0x5d1e <ExtInt_vidConfigExtInt+0x168>
				}
				else if (sensCtrl == EXT_LOW_LEVEL)
    5cfc:	8a 81       	ldd	r24, Y+2	; 0x02
    5cfe:	83 30       	cpi	r24, 0x03	; 3
    5d00:	71 f4       	brne	.+28     	; 0x5d1e <ExtInt_vidConfigExtInt+0x168>
				{
					CLEAR_BIT(EXTINT_MCUCR_REG,2);
    5d02:	a5 e5       	ldi	r26, 0x55	; 85
    5d04:	b0 e0       	ldi	r27, 0x00	; 0
    5d06:	e5 e5       	ldi	r30, 0x55	; 85
    5d08:	f0 e0       	ldi	r31, 0x00	; 0
    5d0a:	80 81       	ld	r24, Z
    5d0c:	8b 7f       	andi	r24, 0xFB	; 251
    5d0e:	8c 93       	st	X, r24
					CLEAR_BIT(EXTINT_MCUCR_REG,3);
    5d10:	a5 e5       	ldi	r26, 0x55	; 85
    5d12:	b0 e0       	ldi	r27, 0x00	; 0
    5d14:	e5 e5       	ldi	r30, 0x55	; 85
    5d16:	f0 e0       	ldi	r31, 0x00	; 0
    5d18:	80 81       	ld	r24, Z
    5d1a:	87 7f       	andi	r24, 0xF7	; 247
    5d1c:	8c 93       	st	X, r24
				else
				{
					/*	Do Nothing	*/
				}

		SET_BIT(EXTINT_GICR_REG,INT1_EN_BIT);
    5d1e:	ab e5       	ldi	r26, 0x5B	; 91
    5d20:	b0 e0       	ldi	r27, 0x00	; 0
    5d22:	eb e5       	ldi	r30, 0x5B	; 91
    5d24:	f0 e0       	ldi	r31, 0x00	; 0
    5d26:	80 81       	ld	r24, Z
    5d28:	80 68       	ori	r24, 0x80	; 128
    5d2a:	8c 93       	st	X, r24
    5d2c:	1c c0       	rjmp	.+56     	; 0x5d66 <ExtInt_vidConfigExtInt+0x1b0>
		break;

	case EXT_INT2:

		if (sensCtrl == EXT_FAILING_EDGE)
    5d2e:	8a 81       	ldd	r24, Y+2	; 0x02
    5d30:	88 23       	and	r24, r24
    5d32:	41 f4       	brne	.+16     	; 0x5d44 <ExtInt_vidConfigExtInt+0x18e>
		{
			CLEAR_BIT(EXTINT_MCUCSR_REG,6);
    5d34:	a4 e5       	ldi	r26, 0x54	; 84
    5d36:	b0 e0       	ldi	r27, 0x00	; 0
    5d38:	e4 e5       	ldi	r30, 0x54	; 84
    5d3a:	f0 e0       	ldi	r31, 0x00	; 0
    5d3c:	80 81       	ld	r24, Z
    5d3e:	8f 7b       	andi	r24, 0xBF	; 191
    5d40:	8c 93       	st	X, r24
    5d42:	0a c0       	rjmp	.+20     	; 0x5d58 <ExtInt_vidConfigExtInt+0x1a2>
		}
		else if (sensCtrl == EXT_RISING_EDGE)
    5d44:	8a 81       	ldd	r24, Y+2	; 0x02
    5d46:	81 30       	cpi	r24, 0x01	; 1
    5d48:	39 f4       	brne	.+14     	; 0x5d58 <ExtInt_vidConfigExtInt+0x1a2>
		{
			SET_BIT(EXTINT_MCUCSR_REG,6);
    5d4a:	a4 e5       	ldi	r26, 0x54	; 84
    5d4c:	b0 e0       	ldi	r27, 0x00	; 0
    5d4e:	e4 e5       	ldi	r30, 0x54	; 84
    5d50:	f0 e0       	ldi	r31, 0x00	; 0
    5d52:	80 81       	ld	r24, Z
    5d54:	80 64       	ori	r24, 0x40	; 64
    5d56:	8c 93       	st	X, r24
		}
		else
		{
			/*	Do Nothing	*/
		}
		SET_BIT(EXTINT_GICR_REG,INT2_EN_BIT);
    5d58:	ab e5       	ldi	r26, 0x5B	; 91
    5d5a:	b0 e0       	ldi	r27, 0x00	; 0
    5d5c:	eb e5       	ldi	r30, 0x5B	; 91
    5d5e:	f0 e0       	ldi	r31, 0x00	; 0
    5d60:	80 81       	ld	r24, Z
    5d62:	80 62       	ori	r24, 0x20	; 32
    5d64:	8c 93       	st	X, r24
		break;
	}
}
    5d66:	0f 90       	pop	r0
    5d68:	0f 90       	pop	r0
    5d6a:	0f 90       	pop	r0
    5d6c:	0f 90       	pop	r0
    5d6e:	cf 91       	pop	r28
    5d70:	df 91       	pop	r29
    5d72:	08 95       	ret

00005d74 <ExtInt_vidDisableExtInt>:

void ExtInt_vidDisableExtInt(extint_id_t intId)
{
    5d74:	df 93       	push	r29
    5d76:	cf 93       	push	r28
    5d78:	00 d0       	rcall	.+0      	; 0x5d7a <ExtInt_vidDisableExtInt+0x6>
    5d7a:	0f 92       	push	r0
    5d7c:	cd b7       	in	r28, 0x3d	; 61
    5d7e:	de b7       	in	r29, 0x3e	; 62
    5d80:	89 83       	std	Y+1, r24	; 0x01
	switch (intId)
    5d82:	89 81       	ldd	r24, Y+1	; 0x01
    5d84:	28 2f       	mov	r18, r24
    5d86:	30 e0       	ldi	r19, 0x00	; 0
    5d88:	3b 83       	std	Y+3, r19	; 0x03
    5d8a:	2a 83       	std	Y+2, r18	; 0x02
    5d8c:	8a 81       	ldd	r24, Y+2	; 0x02
    5d8e:	9b 81       	ldd	r25, Y+3	; 0x03
    5d90:	81 30       	cpi	r24, 0x01	; 1
    5d92:	91 05       	cpc	r25, r1
    5d94:	89 f0       	breq	.+34     	; 0x5db8 <ExtInt_vidDisableExtInt+0x44>
    5d96:	2a 81       	ldd	r18, Y+2	; 0x02
    5d98:	3b 81       	ldd	r19, Y+3	; 0x03
    5d9a:	22 30       	cpi	r18, 0x02	; 2
    5d9c:	31 05       	cpc	r19, r1
    5d9e:	a1 f0       	breq	.+40     	; 0x5dc8 <ExtInt_vidDisableExtInt+0x54>
    5da0:	8a 81       	ldd	r24, Y+2	; 0x02
    5da2:	9b 81       	ldd	r25, Y+3	; 0x03
    5da4:	00 97       	sbiw	r24, 0x00	; 0
    5da6:	b9 f4       	brne	.+46     	; 0x5dd6 <ExtInt_vidDisableExtInt+0x62>
	{
	case EXT_INT0:
		SET_BIT(EXTINT_GICR_REG,INT0_EN_BIT);
    5da8:	ab e5       	ldi	r26, 0x5B	; 91
    5daa:	b0 e0       	ldi	r27, 0x00	; 0
    5dac:	eb e5       	ldi	r30, 0x5B	; 91
    5dae:	f0 e0       	ldi	r31, 0x00	; 0
    5db0:	80 81       	ld	r24, Z
    5db2:	80 64       	ori	r24, 0x40	; 64
    5db4:	8c 93       	st	X, r24
    5db6:	0f c0       	rjmp	.+30     	; 0x5dd6 <ExtInt_vidDisableExtInt+0x62>
		break;

	case EXT_INT1:
		SET_BIT(EXTINT_GICR_REG,INT1_EN_BIT);
    5db8:	ab e5       	ldi	r26, 0x5B	; 91
    5dba:	b0 e0       	ldi	r27, 0x00	; 0
    5dbc:	eb e5       	ldi	r30, 0x5B	; 91
    5dbe:	f0 e0       	ldi	r31, 0x00	; 0
    5dc0:	80 81       	ld	r24, Z
    5dc2:	80 68       	ori	r24, 0x80	; 128
    5dc4:	8c 93       	st	X, r24
    5dc6:	07 c0       	rjmp	.+14     	; 0x5dd6 <ExtInt_vidDisableExtInt+0x62>
		break;

	case EXT_INT2:
		SET_BIT(EXTINT_GICR_REG,INT2_EN_BIT);
    5dc8:	ab e5       	ldi	r26, 0x5B	; 91
    5dca:	b0 e0       	ldi	r27, 0x00	; 0
    5dcc:	eb e5       	ldi	r30, 0x5B	; 91
    5dce:	f0 e0       	ldi	r31, 0x00	; 0
    5dd0:	80 81       	ld	r24, Z
    5dd2:	80 62       	ori	r24, 0x20	; 32
    5dd4:	8c 93       	st	X, r24
		break;
	}
}
    5dd6:	0f 90       	pop	r0
    5dd8:	0f 90       	pop	r0
    5dda:	0f 90       	pop	r0
    5ddc:	cf 91       	pop	r28
    5dde:	df 91       	pop	r29
    5de0:	08 95       	ret

00005de2 <EEPROM_Write>:
 *  Author: Malek Elsaka
 */
#include <Eeprom.h>

void EEPROM_Write(u16 address,u8 data)
{
    5de2:	df 93       	push	r29
    5de4:	cf 93       	push	r28
    5de6:	00 d0       	rcall	.+0      	; 0x5de8 <EEPROM_Write+0x6>
    5de8:	0f 92       	push	r0
    5dea:	cd b7       	in	r28, 0x3d	; 61
    5dec:	de b7       	in	r29, 0x3e	; 62
    5dee:	9a 83       	std	Y+2, r25	; 0x02
    5df0:	89 83       	std	Y+1, r24	; 0x01
    5df2:	6b 83       	std	Y+3, r22	; 0x03
	/* Wait for completion of previous write */
    while(EEPROM_CR_REG & (1<<EEWE));
    5df4:	ec e3       	ldi	r30, 0x3C	; 60
    5df6:	f0 e0       	ldi	r31, 0x00	; 0
    5df8:	80 81       	ld	r24, Z
    5dfa:	88 2f       	mov	r24, r24
    5dfc:	90 e0       	ldi	r25, 0x00	; 0
    5dfe:	82 70       	andi	r24, 0x02	; 2
    5e00:	90 70       	andi	r25, 0x00	; 0
    5e02:	00 97       	sbiw	r24, 0x00	; 0
    5e04:	b9 f7       	brne	.-18     	; 0x5df4 <EEPROM_Write+0x12>
		/*	Do Nothing	*/
	/* Set up address and data registers */
	EEPROM_ARL_REG=address;
    5e06:	ee e3       	ldi	r30, 0x3E	; 62
    5e08:	f0 e0       	ldi	r31, 0x00	; 0
    5e0a:	89 81       	ldd	r24, Y+1	; 0x01
    5e0c:	80 83       	st	Z, r24
	EEPROM_ARH_REG = address>>8;
    5e0e:	ef e3       	ldi	r30, 0x3F	; 63
    5e10:	f0 e0       	ldi	r31, 0x00	; 0
    5e12:	89 81       	ldd	r24, Y+1	; 0x01
    5e14:	9a 81       	ldd	r25, Y+2	; 0x02
    5e16:	89 2f       	mov	r24, r25
    5e18:	99 27       	eor	r25, r25
    5e1a:	80 83       	st	Z, r24
	EEPROM_DR_REG = data;
    5e1c:	ed e3       	ldi	r30, 0x3D	; 61
    5e1e:	f0 e0       	ldi	r31, 0x00	; 0
    5e20:	8b 81       	ldd	r24, Y+3	; 0x03
    5e22:	80 83       	st	Z, r24
	/* Write logical one to EEMWE */
	EEPROM_CR_REG |= (1<<EEMWE);
    5e24:	ac e3       	ldi	r26, 0x3C	; 60
    5e26:	b0 e0       	ldi	r27, 0x00	; 0
    5e28:	ec e3       	ldi	r30, 0x3C	; 60
    5e2a:	f0 e0       	ldi	r31, 0x00	; 0
    5e2c:	80 81       	ld	r24, Z
    5e2e:	84 60       	ori	r24, 0x04	; 4
    5e30:	8c 93       	st	X, r24
	/* Start eeprom write by setting EEWE */
	EEPROM_CR_REG |= (1<<EEWE);
    5e32:	ac e3       	ldi	r26, 0x3C	; 60
    5e34:	b0 e0       	ldi	r27, 0x00	; 0
    5e36:	ec e3       	ldi	r30, 0x3C	; 60
    5e38:	f0 e0       	ldi	r31, 0x00	; 0
    5e3a:	80 81       	ld	r24, Z
    5e3c:	82 60       	ori	r24, 0x02	; 2
    5e3e:	8c 93       	st	X, r24
}
    5e40:	0f 90       	pop	r0
    5e42:	0f 90       	pop	r0
    5e44:	0f 90       	pop	r0
    5e46:	cf 91       	pop	r28
    5e48:	df 91       	pop	r29
    5e4a:	08 95       	ret

00005e4c <EEPROM_Read>:

u8 EEPROM_Read(u16 address)
{
    5e4c:	df 93       	push	r29
    5e4e:	cf 93       	push	r28
    5e50:	00 d0       	rcall	.+0      	; 0x5e52 <EEPROM_Read+0x6>
    5e52:	cd b7       	in	r28, 0x3d	; 61
    5e54:	de b7       	in	r29, 0x3e	; 62
    5e56:	9a 83       	std	Y+2, r25	; 0x02
    5e58:	89 83       	std	Y+1, r24	; 0x01
	/* Wait for completion of previous write */
    while(EEPROM_CR_REG & (1<<EEWE));
    5e5a:	ec e3       	ldi	r30, 0x3C	; 60
    5e5c:	f0 e0       	ldi	r31, 0x00	; 0
    5e5e:	80 81       	ld	r24, Z
    5e60:	88 2f       	mov	r24, r24
    5e62:	90 e0       	ldi	r25, 0x00	; 0
    5e64:	82 70       	andi	r24, 0x02	; 2
    5e66:	90 70       	andi	r25, 0x00	; 0
    5e68:	00 97       	sbiw	r24, 0x00	; 0
    5e6a:	b9 f7       	brne	.-18     	; 0x5e5a <EEPROM_Read+0xe>
			
	/* Set up address register */
	EEPROM_ARL_REG	=address;
    5e6c:	ee e3       	ldi	r30, 0x3E	; 62
    5e6e:	f0 e0       	ldi	r31, 0x00	; 0
    5e70:	89 81       	ldd	r24, Y+1	; 0x01
    5e72:	80 83       	st	Z, r24
	EEPROM_ARH_REG = address>>8;
    5e74:	ef e3       	ldi	r30, 0x3F	; 63
    5e76:	f0 e0       	ldi	r31, 0x00	; 0
    5e78:	89 81       	ldd	r24, Y+1	; 0x01
    5e7a:	9a 81       	ldd	r25, Y+2	; 0x02
    5e7c:	89 2f       	mov	r24, r25
    5e7e:	99 27       	eor	r25, r25
    5e80:	80 83       	st	Z, r24
	/* Start eeprom read by writing EERE */
	EEPROM_CR_REG |= (1<<EERE);
    5e82:	ac e3       	ldi	r26, 0x3C	; 60
    5e84:	b0 e0       	ldi	r27, 0x00	; 0
    5e86:	ec e3       	ldi	r30, 0x3C	; 60
    5e88:	f0 e0       	ldi	r31, 0x00	; 0
    5e8a:	80 81       	ld	r24, Z
    5e8c:	81 60       	ori	r24, 0x01	; 1
    5e8e:	8c 93       	st	X, r24
	/* Return data from data register */
	return EEPROM_DR_REG;
    5e90:	ed e3       	ldi	r30, 0x3D	; 61
    5e92:	f0 e0       	ldi	r31, 0x00	; 0
    5e94:	80 81       	ld	r24, Z
}
    5e96:	0f 90       	pop	r0
    5e98:	0f 90       	pop	r0
    5e9a:	cf 91       	pop	r28
    5e9c:	df 91       	pop	r29
    5e9e:	08 95       	ret

00005ea0 <Dio_vidconfigChanel>:
#include "Dio.h"
#include "Bit_Math.h"
#include "Std_Types.h"

void Dio_vidconfigChanel(dio_port_t port, dio_pin_t pin,dio_dir_t dir)
{
    5ea0:	df 93       	push	r29
    5ea2:	cf 93       	push	r28
    5ea4:	00 d0       	rcall	.+0      	; 0x5ea6 <Dio_vidconfigChanel+0x6>
    5ea6:	00 d0       	rcall	.+0      	; 0x5ea8 <Dio_vidconfigChanel+0x8>
    5ea8:	0f 92       	push	r0
    5eaa:	cd b7       	in	r28, 0x3d	; 61
    5eac:	de b7       	in	r29, 0x3e	; 62
    5eae:	89 83       	std	Y+1, r24	; 0x01
    5eb0:	6a 83       	std	Y+2, r22	; 0x02
    5eb2:	4b 83       	std	Y+3, r20	; 0x03
	switch(port)
    5eb4:	89 81       	ldd	r24, Y+1	; 0x01
    5eb6:	28 2f       	mov	r18, r24
    5eb8:	30 e0       	ldi	r19, 0x00	; 0
    5eba:	3d 83       	std	Y+5, r19	; 0x05
    5ebc:	2c 83       	std	Y+4, r18	; 0x04
    5ebe:	8c 81       	ldd	r24, Y+4	; 0x04
    5ec0:	9d 81       	ldd	r25, Y+5	; 0x05
    5ec2:	81 30       	cpi	r24, 0x01	; 1
    5ec4:	91 05       	cpc	r25, r1
    5ec6:	09 f4       	brne	.+2      	; 0x5eca <Dio_vidconfigChanel+0x2a>
    5ec8:	43 c0       	rjmp	.+134    	; 0x5f50 <Dio_vidconfigChanel+0xb0>
    5eca:	2c 81       	ldd	r18, Y+4	; 0x04
    5ecc:	3d 81       	ldd	r19, Y+5	; 0x05
    5ece:	22 30       	cpi	r18, 0x02	; 2
    5ed0:	31 05       	cpc	r19, r1
    5ed2:	2c f4       	brge	.+10     	; 0x5ede <Dio_vidconfigChanel+0x3e>
    5ed4:	8c 81       	ldd	r24, Y+4	; 0x04
    5ed6:	9d 81       	ldd	r25, Y+5	; 0x05
    5ed8:	00 97       	sbiw	r24, 0x00	; 0
    5eda:	71 f0       	breq	.+28     	; 0x5ef8 <Dio_vidconfigChanel+0x58>
    5edc:	bc c0       	rjmp	.+376    	; 0x6056 <Dio_vidconfigChanel+0x1b6>
    5ede:	2c 81       	ldd	r18, Y+4	; 0x04
    5ee0:	3d 81       	ldd	r19, Y+5	; 0x05
    5ee2:	22 30       	cpi	r18, 0x02	; 2
    5ee4:	31 05       	cpc	r19, r1
    5ee6:	09 f4       	brne	.+2      	; 0x5eea <Dio_vidconfigChanel+0x4a>
    5ee8:	5f c0       	rjmp	.+190    	; 0x5fa8 <Dio_vidconfigChanel+0x108>
    5eea:	8c 81       	ldd	r24, Y+4	; 0x04
    5eec:	9d 81       	ldd	r25, Y+5	; 0x05
    5eee:	83 30       	cpi	r24, 0x03	; 3
    5ef0:	91 05       	cpc	r25, r1
    5ef2:	09 f4       	brne	.+2      	; 0x5ef6 <Dio_vidconfigChanel+0x56>
    5ef4:	85 c0       	rjmp	.+266    	; 0x6000 <Dio_vidconfigChanel+0x160>
    5ef6:	af c0       	rjmp	.+350    	; 0x6056 <Dio_vidconfigChanel+0x1b6>
	{
	case DIO_PORTA:
		if (dir == DIO_INPUT)
    5ef8:	8b 81       	ldd	r24, Y+3	; 0x03
    5efa:	88 23       	and	r24, r24
    5efc:	a9 f4       	brne	.+42     	; 0x5f28 <Dio_vidconfigChanel+0x88>
		{
			CLEAR_BIT(DIO_DDRA_REG,pin);
    5efe:	aa e3       	ldi	r26, 0x3A	; 58
    5f00:	b0 e0       	ldi	r27, 0x00	; 0
    5f02:	ea e3       	ldi	r30, 0x3A	; 58
    5f04:	f0 e0       	ldi	r31, 0x00	; 0
    5f06:	80 81       	ld	r24, Z
    5f08:	48 2f       	mov	r20, r24
    5f0a:	8a 81       	ldd	r24, Y+2	; 0x02
    5f0c:	28 2f       	mov	r18, r24
    5f0e:	30 e0       	ldi	r19, 0x00	; 0
    5f10:	81 e0       	ldi	r24, 0x01	; 1
    5f12:	90 e0       	ldi	r25, 0x00	; 0
    5f14:	02 2e       	mov	r0, r18
    5f16:	02 c0       	rjmp	.+4      	; 0x5f1c <Dio_vidconfigChanel+0x7c>
    5f18:	88 0f       	add	r24, r24
    5f1a:	99 1f       	adc	r25, r25
    5f1c:	0a 94       	dec	r0
    5f1e:	e2 f7       	brpl	.-8      	; 0x5f18 <Dio_vidconfigChanel+0x78>
    5f20:	80 95       	com	r24
    5f22:	84 23       	and	r24, r20
    5f24:	8c 93       	st	X, r24
    5f26:	97 c0       	rjmp	.+302    	; 0x6056 <Dio_vidconfigChanel+0x1b6>
		}
		else
		{
			SET_BIT(DIO_DDRA_REG,pin);
    5f28:	aa e3       	ldi	r26, 0x3A	; 58
    5f2a:	b0 e0       	ldi	r27, 0x00	; 0
    5f2c:	ea e3       	ldi	r30, 0x3A	; 58
    5f2e:	f0 e0       	ldi	r31, 0x00	; 0
    5f30:	80 81       	ld	r24, Z
    5f32:	48 2f       	mov	r20, r24
    5f34:	8a 81       	ldd	r24, Y+2	; 0x02
    5f36:	28 2f       	mov	r18, r24
    5f38:	30 e0       	ldi	r19, 0x00	; 0
    5f3a:	81 e0       	ldi	r24, 0x01	; 1
    5f3c:	90 e0       	ldi	r25, 0x00	; 0
    5f3e:	02 2e       	mov	r0, r18
    5f40:	02 c0       	rjmp	.+4      	; 0x5f46 <Dio_vidconfigChanel+0xa6>
    5f42:	88 0f       	add	r24, r24
    5f44:	99 1f       	adc	r25, r25
    5f46:	0a 94       	dec	r0
    5f48:	e2 f7       	brpl	.-8      	; 0x5f42 <Dio_vidconfigChanel+0xa2>
    5f4a:	84 2b       	or	r24, r20
    5f4c:	8c 93       	st	X, r24
    5f4e:	83 c0       	rjmp	.+262    	; 0x6056 <Dio_vidconfigChanel+0x1b6>
		}
		break;

	case DIO_PORTB:
		if (dir == DIO_INPUT)
    5f50:	8b 81       	ldd	r24, Y+3	; 0x03
    5f52:	88 23       	and	r24, r24
    5f54:	a9 f4       	brne	.+42     	; 0x5f80 <Dio_vidconfigChanel+0xe0>
		{
			CLEAR_BIT(DIO_DDRB_REG,pin);
    5f56:	a7 e3       	ldi	r26, 0x37	; 55
    5f58:	b0 e0       	ldi	r27, 0x00	; 0
    5f5a:	e7 e3       	ldi	r30, 0x37	; 55
    5f5c:	f0 e0       	ldi	r31, 0x00	; 0
    5f5e:	80 81       	ld	r24, Z
    5f60:	48 2f       	mov	r20, r24
    5f62:	8a 81       	ldd	r24, Y+2	; 0x02
    5f64:	28 2f       	mov	r18, r24
    5f66:	30 e0       	ldi	r19, 0x00	; 0
    5f68:	81 e0       	ldi	r24, 0x01	; 1
    5f6a:	90 e0       	ldi	r25, 0x00	; 0
    5f6c:	02 2e       	mov	r0, r18
    5f6e:	02 c0       	rjmp	.+4      	; 0x5f74 <Dio_vidconfigChanel+0xd4>
    5f70:	88 0f       	add	r24, r24
    5f72:	99 1f       	adc	r25, r25
    5f74:	0a 94       	dec	r0
    5f76:	e2 f7       	brpl	.-8      	; 0x5f70 <Dio_vidconfigChanel+0xd0>
    5f78:	80 95       	com	r24
    5f7a:	84 23       	and	r24, r20
    5f7c:	8c 93       	st	X, r24
    5f7e:	6b c0       	rjmp	.+214    	; 0x6056 <Dio_vidconfigChanel+0x1b6>
		}
		else
		{
			SET_BIT(DIO_DDRB_REG,pin);
    5f80:	a7 e3       	ldi	r26, 0x37	; 55
    5f82:	b0 e0       	ldi	r27, 0x00	; 0
    5f84:	e7 e3       	ldi	r30, 0x37	; 55
    5f86:	f0 e0       	ldi	r31, 0x00	; 0
    5f88:	80 81       	ld	r24, Z
    5f8a:	48 2f       	mov	r20, r24
    5f8c:	8a 81       	ldd	r24, Y+2	; 0x02
    5f8e:	28 2f       	mov	r18, r24
    5f90:	30 e0       	ldi	r19, 0x00	; 0
    5f92:	81 e0       	ldi	r24, 0x01	; 1
    5f94:	90 e0       	ldi	r25, 0x00	; 0
    5f96:	02 2e       	mov	r0, r18
    5f98:	02 c0       	rjmp	.+4      	; 0x5f9e <Dio_vidconfigChanel+0xfe>
    5f9a:	88 0f       	add	r24, r24
    5f9c:	99 1f       	adc	r25, r25
    5f9e:	0a 94       	dec	r0
    5fa0:	e2 f7       	brpl	.-8      	; 0x5f9a <Dio_vidconfigChanel+0xfa>
    5fa2:	84 2b       	or	r24, r20
    5fa4:	8c 93       	st	X, r24
    5fa6:	57 c0       	rjmp	.+174    	; 0x6056 <Dio_vidconfigChanel+0x1b6>
		}
		break;

	case DIO_PORTC:
		if (dir == DIO_INPUT)
    5fa8:	8b 81       	ldd	r24, Y+3	; 0x03
    5faa:	88 23       	and	r24, r24
    5fac:	a9 f4       	brne	.+42     	; 0x5fd8 <Dio_vidconfigChanel+0x138>
		{
			CLEAR_BIT(DIO_DDRC_REG,pin);
    5fae:	a4 e3       	ldi	r26, 0x34	; 52
    5fb0:	b0 e0       	ldi	r27, 0x00	; 0
    5fb2:	e4 e3       	ldi	r30, 0x34	; 52
    5fb4:	f0 e0       	ldi	r31, 0x00	; 0
    5fb6:	80 81       	ld	r24, Z
    5fb8:	48 2f       	mov	r20, r24
    5fba:	8a 81       	ldd	r24, Y+2	; 0x02
    5fbc:	28 2f       	mov	r18, r24
    5fbe:	30 e0       	ldi	r19, 0x00	; 0
    5fc0:	81 e0       	ldi	r24, 0x01	; 1
    5fc2:	90 e0       	ldi	r25, 0x00	; 0
    5fc4:	02 2e       	mov	r0, r18
    5fc6:	02 c0       	rjmp	.+4      	; 0x5fcc <Dio_vidconfigChanel+0x12c>
    5fc8:	88 0f       	add	r24, r24
    5fca:	99 1f       	adc	r25, r25
    5fcc:	0a 94       	dec	r0
    5fce:	e2 f7       	brpl	.-8      	; 0x5fc8 <Dio_vidconfigChanel+0x128>
    5fd0:	80 95       	com	r24
    5fd2:	84 23       	and	r24, r20
    5fd4:	8c 93       	st	X, r24
    5fd6:	3f c0       	rjmp	.+126    	; 0x6056 <Dio_vidconfigChanel+0x1b6>
		}
		else
		{
			SET_BIT(DIO_DDRC_REG,pin);
    5fd8:	a4 e3       	ldi	r26, 0x34	; 52
    5fda:	b0 e0       	ldi	r27, 0x00	; 0
    5fdc:	e4 e3       	ldi	r30, 0x34	; 52
    5fde:	f0 e0       	ldi	r31, 0x00	; 0
    5fe0:	80 81       	ld	r24, Z
    5fe2:	48 2f       	mov	r20, r24
    5fe4:	8a 81       	ldd	r24, Y+2	; 0x02
    5fe6:	28 2f       	mov	r18, r24
    5fe8:	30 e0       	ldi	r19, 0x00	; 0
    5fea:	81 e0       	ldi	r24, 0x01	; 1
    5fec:	90 e0       	ldi	r25, 0x00	; 0
    5fee:	02 2e       	mov	r0, r18
    5ff0:	02 c0       	rjmp	.+4      	; 0x5ff6 <Dio_vidconfigChanel+0x156>
    5ff2:	88 0f       	add	r24, r24
    5ff4:	99 1f       	adc	r25, r25
    5ff6:	0a 94       	dec	r0
    5ff8:	e2 f7       	brpl	.-8      	; 0x5ff2 <Dio_vidconfigChanel+0x152>
    5ffa:	84 2b       	or	r24, r20
    5ffc:	8c 93       	st	X, r24
    5ffe:	2b c0       	rjmp	.+86     	; 0x6056 <Dio_vidconfigChanel+0x1b6>
		}
		break;

	case DIO_PORTD:
		if (dir == DIO_INPUT)
    6000:	8b 81       	ldd	r24, Y+3	; 0x03
    6002:	88 23       	and	r24, r24
    6004:	a9 f4       	brne	.+42     	; 0x6030 <Dio_vidconfigChanel+0x190>
		{
			CLEAR_BIT(DIO_DDRD_REG,pin);
    6006:	a1 e3       	ldi	r26, 0x31	; 49
    6008:	b0 e0       	ldi	r27, 0x00	; 0
    600a:	e1 e3       	ldi	r30, 0x31	; 49
    600c:	f0 e0       	ldi	r31, 0x00	; 0
    600e:	80 81       	ld	r24, Z
    6010:	48 2f       	mov	r20, r24
    6012:	8a 81       	ldd	r24, Y+2	; 0x02
    6014:	28 2f       	mov	r18, r24
    6016:	30 e0       	ldi	r19, 0x00	; 0
    6018:	81 e0       	ldi	r24, 0x01	; 1
    601a:	90 e0       	ldi	r25, 0x00	; 0
    601c:	02 2e       	mov	r0, r18
    601e:	02 c0       	rjmp	.+4      	; 0x6024 <Dio_vidconfigChanel+0x184>
    6020:	88 0f       	add	r24, r24
    6022:	99 1f       	adc	r25, r25
    6024:	0a 94       	dec	r0
    6026:	e2 f7       	brpl	.-8      	; 0x6020 <Dio_vidconfigChanel+0x180>
    6028:	80 95       	com	r24
    602a:	84 23       	and	r24, r20
    602c:	8c 93       	st	X, r24
    602e:	13 c0       	rjmp	.+38     	; 0x6056 <Dio_vidconfigChanel+0x1b6>
		}
		else
		{
			SET_BIT(DIO_DDRD_REG,pin);
    6030:	a1 e3       	ldi	r26, 0x31	; 49
    6032:	b0 e0       	ldi	r27, 0x00	; 0
    6034:	e1 e3       	ldi	r30, 0x31	; 49
    6036:	f0 e0       	ldi	r31, 0x00	; 0
    6038:	80 81       	ld	r24, Z
    603a:	48 2f       	mov	r20, r24
    603c:	8a 81       	ldd	r24, Y+2	; 0x02
    603e:	28 2f       	mov	r18, r24
    6040:	30 e0       	ldi	r19, 0x00	; 0
    6042:	81 e0       	ldi	r24, 0x01	; 1
    6044:	90 e0       	ldi	r25, 0x00	; 0
    6046:	02 2e       	mov	r0, r18
    6048:	02 c0       	rjmp	.+4      	; 0x604e <Dio_vidconfigChanel+0x1ae>
    604a:	88 0f       	add	r24, r24
    604c:	99 1f       	adc	r25, r25
    604e:	0a 94       	dec	r0
    6050:	e2 f7       	brpl	.-8      	; 0x604a <Dio_vidconfigChanel+0x1aa>
    6052:	84 2b       	or	r24, r20
    6054:	8c 93       	st	X, r24
		}
		break;
	}
}
    6056:	0f 90       	pop	r0
    6058:	0f 90       	pop	r0
    605a:	0f 90       	pop	r0
    605c:	0f 90       	pop	r0
    605e:	0f 90       	pop	r0
    6060:	cf 91       	pop	r28
    6062:	df 91       	pop	r29
    6064:	08 95       	ret

00006066 <Dio_vidwriteChanel>:

void Dio_vidwriteChanel(dio_port_t port, dio_pin_t pin,dio_level_t level)
{
    6066:	df 93       	push	r29
    6068:	cf 93       	push	r28
    606a:	00 d0       	rcall	.+0      	; 0x606c <Dio_vidwriteChanel+0x6>
    606c:	00 d0       	rcall	.+0      	; 0x606e <Dio_vidwriteChanel+0x8>
    606e:	0f 92       	push	r0
    6070:	cd b7       	in	r28, 0x3d	; 61
    6072:	de b7       	in	r29, 0x3e	; 62
    6074:	89 83       	std	Y+1, r24	; 0x01
    6076:	6a 83       	std	Y+2, r22	; 0x02
    6078:	4b 83       	std	Y+3, r20	; 0x03
	switch (port)
    607a:	89 81       	ldd	r24, Y+1	; 0x01
    607c:	28 2f       	mov	r18, r24
    607e:	30 e0       	ldi	r19, 0x00	; 0
    6080:	3d 83       	std	Y+5, r19	; 0x05
    6082:	2c 83       	std	Y+4, r18	; 0x04
    6084:	8c 81       	ldd	r24, Y+4	; 0x04
    6086:	9d 81       	ldd	r25, Y+5	; 0x05
    6088:	81 30       	cpi	r24, 0x01	; 1
    608a:	91 05       	cpc	r25, r1
    608c:	09 f4       	brne	.+2      	; 0x6090 <Dio_vidwriteChanel+0x2a>
    608e:	43 c0       	rjmp	.+134    	; 0x6116 <Dio_vidwriteChanel+0xb0>
    6090:	2c 81       	ldd	r18, Y+4	; 0x04
    6092:	3d 81       	ldd	r19, Y+5	; 0x05
    6094:	22 30       	cpi	r18, 0x02	; 2
    6096:	31 05       	cpc	r19, r1
    6098:	2c f4       	brge	.+10     	; 0x60a4 <Dio_vidwriteChanel+0x3e>
    609a:	8c 81       	ldd	r24, Y+4	; 0x04
    609c:	9d 81       	ldd	r25, Y+5	; 0x05
    609e:	00 97       	sbiw	r24, 0x00	; 0
    60a0:	71 f0       	breq	.+28     	; 0x60be <Dio_vidwriteChanel+0x58>
    60a2:	bc c0       	rjmp	.+376    	; 0x621c <Dio_vidwriteChanel+0x1b6>
    60a4:	2c 81       	ldd	r18, Y+4	; 0x04
    60a6:	3d 81       	ldd	r19, Y+5	; 0x05
    60a8:	22 30       	cpi	r18, 0x02	; 2
    60aa:	31 05       	cpc	r19, r1
    60ac:	09 f4       	brne	.+2      	; 0x60b0 <Dio_vidwriteChanel+0x4a>
    60ae:	5f c0       	rjmp	.+190    	; 0x616e <Dio_vidwriteChanel+0x108>
    60b0:	8c 81       	ldd	r24, Y+4	; 0x04
    60b2:	9d 81       	ldd	r25, Y+5	; 0x05
    60b4:	83 30       	cpi	r24, 0x03	; 3
    60b6:	91 05       	cpc	r25, r1
    60b8:	09 f4       	brne	.+2      	; 0x60bc <Dio_vidwriteChanel+0x56>
    60ba:	85 c0       	rjmp	.+266    	; 0x61c6 <Dio_vidwriteChanel+0x160>
    60bc:	af c0       	rjmp	.+350    	; 0x621c <Dio_vidwriteChanel+0x1b6>
	{
	case DIO_PORTA:
		if (level == DIO_HIGH)
    60be:	8b 81       	ldd	r24, Y+3	; 0x03
    60c0:	81 30       	cpi	r24, 0x01	; 1
    60c2:	a1 f4       	brne	.+40     	; 0x60ec <Dio_vidwriteChanel+0x86>
		{
			SET_BIT(DIO_PORTA_REG,pin);
    60c4:	ab e3       	ldi	r26, 0x3B	; 59
    60c6:	b0 e0       	ldi	r27, 0x00	; 0
    60c8:	eb e3       	ldi	r30, 0x3B	; 59
    60ca:	f0 e0       	ldi	r31, 0x00	; 0
    60cc:	80 81       	ld	r24, Z
    60ce:	48 2f       	mov	r20, r24
    60d0:	8a 81       	ldd	r24, Y+2	; 0x02
    60d2:	28 2f       	mov	r18, r24
    60d4:	30 e0       	ldi	r19, 0x00	; 0
    60d6:	81 e0       	ldi	r24, 0x01	; 1
    60d8:	90 e0       	ldi	r25, 0x00	; 0
    60da:	02 2e       	mov	r0, r18
    60dc:	02 c0       	rjmp	.+4      	; 0x60e2 <Dio_vidwriteChanel+0x7c>
    60de:	88 0f       	add	r24, r24
    60e0:	99 1f       	adc	r25, r25
    60e2:	0a 94       	dec	r0
    60e4:	e2 f7       	brpl	.-8      	; 0x60de <Dio_vidwriteChanel+0x78>
    60e6:	84 2b       	or	r24, r20
    60e8:	8c 93       	st	X, r24
    60ea:	98 c0       	rjmp	.+304    	; 0x621c <Dio_vidwriteChanel+0x1b6>
		}
		else
		{
			CLEAR_BIT(DIO_PORTA_REG,pin);
    60ec:	ab e3       	ldi	r26, 0x3B	; 59
    60ee:	b0 e0       	ldi	r27, 0x00	; 0
    60f0:	eb e3       	ldi	r30, 0x3B	; 59
    60f2:	f0 e0       	ldi	r31, 0x00	; 0
    60f4:	80 81       	ld	r24, Z
    60f6:	48 2f       	mov	r20, r24
    60f8:	8a 81       	ldd	r24, Y+2	; 0x02
    60fa:	28 2f       	mov	r18, r24
    60fc:	30 e0       	ldi	r19, 0x00	; 0
    60fe:	81 e0       	ldi	r24, 0x01	; 1
    6100:	90 e0       	ldi	r25, 0x00	; 0
    6102:	02 2e       	mov	r0, r18
    6104:	02 c0       	rjmp	.+4      	; 0x610a <Dio_vidwriteChanel+0xa4>
    6106:	88 0f       	add	r24, r24
    6108:	99 1f       	adc	r25, r25
    610a:	0a 94       	dec	r0
    610c:	e2 f7       	brpl	.-8      	; 0x6106 <Dio_vidwriteChanel+0xa0>
    610e:	80 95       	com	r24
    6110:	84 23       	and	r24, r20
    6112:	8c 93       	st	X, r24
    6114:	83 c0       	rjmp	.+262    	; 0x621c <Dio_vidwriteChanel+0x1b6>
		}
		break;

	case DIO_PORTB:
		if (level == DIO_HIGH)
    6116:	8b 81       	ldd	r24, Y+3	; 0x03
    6118:	81 30       	cpi	r24, 0x01	; 1
    611a:	a1 f4       	brne	.+40     	; 0x6144 <Dio_vidwriteChanel+0xde>
		{
			SET_BIT(DIO_PORTB_REG,pin);
    611c:	a8 e3       	ldi	r26, 0x38	; 56
    611e:	b0 e0       	ldi	r27, 0x00	; 0
    6120:	e8 e3       	ldi	r30, 0x38	; 56
    6122:	f0 e0       	ldi	r31, 0x00	; 0
    6124:	80 81       	ld	r24, Z
    6126:	48 2f       	mov	r20, r24
    6128:	8a 81       	ldd	r24, Y+2	; 0x02
    612a:	28 2f       	mov	r18, r24
    612c:	30 e0       	ldi	r19, 0x00	; 0
    612e:	81 e0       	ldi	r24, 0x01	; 1
    6130:	90 e0       	ldi	r25, 0x00	; 0
    6132:	02 2e       	mov	r0, r18
    6134:	02 c0       	rjmp	.+4      	; 0x613a <Dio_vidwriteChanel+0xd4>
    6136:	88 0f       	add	r24, r24
    6138:	99 1f       	adc	r25, r25
    613a:	0a 94       	dec	r0
    613c:	e2 f7       	brpl	.-8      	; 0x6136 <Dio_vidwriteChanel+0xd0>
    613e:	84 2b       	or	r24, r20
    6140:	8c 93       	st	X, r24
    6142:	6c c0       	rjmp	.+216    	; 0x621c <Dio_vidwriteChanel+0x1b6>
		}
		else
		{
			CLEAR_BIT(DIO_PORTB_REG,pin);
    6144:	a8 e3       	ldi	r26, 0x38	; 56
    6146:	b0 e0       	ldi	r27, 0x00	; 0
    6148:	e8 e3       	ldi	r30, 0x38	; 56
    614a:	f0 e0       	ldi	r31, 0x00	; 0
    614c:	80 81       	ld	r24, Z
    614e:	48 2f       	mov	r20, r24
    6150:	8a 81       	ldd	r24, Y+2	; 0x02
    6152:	28 2f       	mov	r18, r24
    6154:	30 e0       	ldi	r19, 0x00	; 0
    6156:	81 e0       	ldi	r24, 0x01	; 1
    6158:	90 e0       	ldi	r25, 0x00	; 0
    615a:	02 2e       	mov	r0, r18
    615c:	02 c0       	rjmp	.+4      	; 0x6162 <Dio_vidwriteChanel+0xfc>
    615e:	88 0f       	add	r24, r24
    6160:	99 1f       	adc	r25, r25
    6162:	0a 94       	dec	r0
    6164:	e2 f7       	brpl	.-8      	; 0x615e <Dio_vidwriteChanel+0xf8>
    6166:	80 95       	com	r24
    6168:	84 23       	and	r24, r20
    616a:	8c 93       	st	X, r24
    616c:	57 c0       	rjmp	.+174    	; 0x621c <Dio_vidwriteChanel+0x1b6>
		}
		break;

	case DIO_PORTC:
		if (level == DIO_HIGH)
    616e:	8b 81       	ldd	r24, Y+3	; 0x03
    6170:	81 30       	cpi	r24, 0x01	; 1
    6172:	a1 f4       	brne	.+40     	; 0x619c <Dio_vidwriteChanel+0x136>
		{
			SET_BIT(DIO_PORTC_REG,pin);
    6174:	a5 e3       	ldi	r26, 0x35	; 53
    6176:	b0 e0       	ldi	r27, 0x00	; 0
    6178:	e5 e3       	ldi	r30, 0x35	; 53
    617a:	f0 e0       	ldi	r31, 0x00	; 0
    617c:	80 81       	ld	r24, Z
    617e:	48 2f       	mov	r20, r24
    6180:	8a 81       	ldd	r24, Y+2	; 0x02
    6182:	28 2f       	mov	r18, r24
    6184:	30 e0       	ldi	r19, 0x00	; 0
    6186:	81 e0       	ldi	r24, 0x01	; 1
    6188:	90 e0       	ldi	r25, 0x00	; 0
    618a:	02 2e       	mov	r0, r18
    618c:	02 c0       	rjmp	.+4      	; 0x6192 <Dio_vidwriteChanel+0x12c>
    618e:	88 0f       	add	r24, r24
    6190:	99 1f       	adc	r25, r25
    6192:	0a 94       	dec	r0
    6194:	e2 f7       	brpl	.-8      	; 0x618e <Dio_vidwriteChanel+0x128>
    6196:	84 2b       	or	r24, r20
    6198:	8c 93       	st	X, r24
    619a:	40 c0       	rjmp	.+128    	; 0x621c <Dio_vidwriteChanel+0x1b6>
		}
		else
		{
			CLEAR_BIT(DIO_PORTC_REG,pin);
    619c:	a5 e3       	ldi	r26, 0x35	; 53
    619e:	b0 e0       	ldi	r27, 0x00	; 0
    61a0:	e5 e3       	ldi	r30, 0x35	; 53
    61a2:	f0 e0       	ldi	r31, 0x00	; 0
    61a4:	80 81       	ld	r24, Z
    61a6:	48 2f       	mov	r20, r24
    61a8:	8a 81       	ldd	r24, Y+2	; 0x02
    61aa:	28 2f       	mov	r18, r24
    61ac:	30 e0       	ldi	r19, 0x00	; 0
    61ae:	81 e0       	ldi	r24, 0x01	; 1
    61b0:	90 e0       	ldi	r25, 0x00	; 0
    61b2:	02 2e       	mov	r0, r18
    61b4:	02 c0       	rjmp	.+4      	; 0x61ba <Dio_vidwriteChanel+0x154>
    61b6:	88 0f       	add	r24, r24
    61b8:	99 1f       	adc	r25, r25
    61ba:	0a 94       	dec	r0
    61bc:	e2 f7       	brpl	.-8      	; 0x61b6 <Dio_vidwriteChanel+0x150>
    61be:	80 95       	com	r24
    61c0:	84 23       	and	r24, r20
    61c2:	8c 93       	st	X, r24
    61c4:	2b c0       	rjmp	.+86     	; 0x621c <Dio_vidwriteChanel+0x1b6>
		}
		break;

	case DIO_PORTD:
		if (level == DIO_HIGH)
    61c6:	8b 81       	ldd	r24, Y+3	; 0x03
    61c8:	81 30       	cpi	r24, 0x01	; 1
    61ca:	a1 f4       	brne	.+40     	; 0x61f4 <Dio_vidwriteChanel+0x18e>
		{
			SET_BIT(DIO_PORTD_REG,pin);
    61cc:	a2 e3       	ldi	r26, 0x32	; 50
    61ce:	b0 e0       	ldi	r27, 0x00	; 0
    61d0:	e2 e3       	ldi	r30, 0x32	; 50
    61d2:	f0 e0       	ldi	r31, 0x00	; 0
    61d4:	80 81       	ld	r24, Z
    61d6:	48 2f       	mov	r20, r24
    61d8:	8a 81       	ldd	r24, Y+2	; 0x02
    61da:	28 2f       	mov	r18, r24
    61dc:	30 e0       	ldi	r19, 0x00	; 0
    61de:	81 e0       	ldi	r24, 0x01	; 1
    61e0:	90 e0       	ldi	r25, 0x00	; 0
    61e2:	02 2e       	mov	r0, r18
    61e4:	02 c0       	rjmp	.+4      	; 0x61ea <Dio_vidwriteChanel+0x184>
    61e6:	88 0f       	add	r24, r24
    61e8:	99 1f       	adc	r25, r25
    61ea:	0a 94       	dec	r0
    61ec:	e2 f7       	brpl	.-8      	; 0x61e6 <Dio_vidwriteChanel+0x180>
    61ee:	84 2b       	or	r24, r20
    61f0:	8c 93       	st	X, r24
    61f2:	14 c0       	rjmp	.+40     	; 0x621c <Dio_vidwriteChanel+0x1b6>
		}
		else
		{
			CLEAR_BIT(DIO_PORTD_REG,pin);
    61f4:	a2 e3       	ldi	r26, 0x32	; 50
    61f6:	b0 e0       	ldi	r27, 0x00	; 0
    61f8:	e2 e3       	ldi	r30, 0x32	; 50
    61fa:	f0 e0       	ldi	r31, 0x00	; 0
    61fc:	80 81       	ld	r24, Z
    61fe:	48 2f       	mov	r20, r24
    6200:	8a 81       	ldd	r24, Y+2	; 0x02
    6202:	28 2f       	mov	r18, r24
    6204:	30 e0       	ldi	r19, 0x00	; 0
    6206:	81 e0       	ldi	r24, 0x01	; 1
    6208:	90 e0       	ldi	r25, 0x00	; 0
    620a:	02 2e       	mov	r0, r18
    620c:	02 c0       	rjmp	.+4      	; 0x6212 <Dio_vidwriteChanel+0x1ac>
    620e:	88 0f       	add	r24, r24
    6210:	99 1f       	adc	r25, r25
    6212:	0a 94       	dec	r0
    6214:	e2 f7       	brpl	.-8      	; 0x620e <Dio_vidwriteChanel+0x1a8>
    6216:	80 95       	com	r24
    6218:	84 23       	and	r24, r20
    621a:	8c 93       	st	X, r24
		}
		break;
	}
}
    621c:	0f 90       	pop	r0
    621e:	0f 90       	pop	r0
    6220:	0f 90       	pop	r0
    6222:	0f 90       	pop	r0
    6224:	0f 90       	pop	r0
    6226:	cf 91       	pop	r28
    6228:	df 91       	pop	r29
    622a:	08 95       	ret

0000622c <Dio_vidwritechanelgroup>:

void Dio_vidwritechanelgroup(dio_port_t port, u8 data,u8 mask)
{
    622c:	df 93       	push	r29
    622e:	cf 93       	push	r28
    6230:	00 d0       	rcall	.+0      	; 0x6232 <Dio_vidwritechanelgroup+0x6>
    6232:	00 d0       	rcall	.+0      	; 0x6234 <Dio_vidwritechanelgroup+0x8>
    6234:	0f 92       	push	r0
    6236:	cd b7       	in	r28, 0x3d	; 61
    6238:	de b7       	in	r29, 0x3e	; 62
    623a:	89 83       	std	Y+1, r24	; 0x01
    623c:	6a 83       	std	Y+2, r22	; 0x02
    623e:	4b 83       	std	Y+3, r20	; 0x03
	switch(port)
    6240:	89 81       	ldd	r24, Y+1	; 0x01
    6242:	28 2f       	mov	r18, r24
    6244:	30 e0       	ldi	r19, 0x00	; 0
    6246:	3d 83       	std	Y+5, r19	; 0x05
    6248:	2c 83       	std	Y+4, r18	; 0x04
    624a:	8c 81       	ldd	r24, Y+4	; 0x04
    624c:	9d 81       	ldd	r25, Y+5	; 0x05
    624e:	81 30       	cpi	r24, 0x01	; 1
    6250:	91 05       	cpc	r25, r1
    6252:	01 f1       	breq	.+64     	; 0x6294 <Dio_vidwritechanelgroup+0x68>
    6254:	2c 81       	ldd	r18, Y+4	; 0x04
    6256:	3d 81       	ldd	r19, Y+5	; 0x05
    6258:	22 30       	cpi	r18, 0x02	; 2
    625a:	31 05       	cpc	r19, r1
    625c:	2c f4       	brge	.+10     	; 0x6268 <Dio_vidwritechanelgroup+0x3c>
    625e:	8c 81       	ldd	r24, Y+4	; 0x04
    6260:	9d 81       	ldd	r25, Y+5	; 0x05
    6262:	00 97       	sbiw	r24, 0x00	; 0
    6264:	61 f0       	breq	.+24     	; 0x627e <Dio_vidwritechanelgroup+0x52>
    6266:	36 c0       	rjmp	.+108    	; 0x62d4 <Dio_vidwritechanelgroup+0xa8>
    6268:	2c 81       	ldd	r18, Y+4	; 0x04
    626a:	3d 81       	ldd	r19, Y+5	; 0x05
    626c:	22 30       	cpi	r18, 0x02	; 2
    626e:	31 05       	cpc	r19, r1
    6270:	e1 f0       	breq	.+56     	; 0x62aa <Dio_vidwritechanelgroup+0x7e>
    6272:	8c 81       	ldd	r24, Y+4	; 0x04
    6274:	9d 81       	ldd	r25, Y+5	; 0x05
    6276:	83 30       	cpi	r24, 0x03	; 3
    6278:	91 05       	cpc	r25, r1
    627a:	11 f1       	breq	.+68     	; 0x62c0 <Dio_vidwritechanelgroup+0x94>
    627c:	2b c0       	rjmp	.+86     	; 0x62d4 <Dio_vidwritechanelgroup+0xa8>
	{
	case DIO_PORTA:
		DIO_PORTA_REG = (DIO_PORTB_REG & mask)| (data);
    627e:	ab e3       	ldi	r26, 0x3B	; 59
    6280:	b0 e0       	ldi	r27, 0x00	; 0
    6282:	e8 e3       	ldi	r30, 0x38	; 56
    6284:	f0 e0       	ldi	r31, 0x00	; 0
    6286:	90 81       	ld	r25, Z
    6288:	8b 81       	ldd	r24, Y+3	; 0x03
    628a:	98 23       	and	r25, r24
    628c:	8a 81       	ldd	r24, Y+2	; 0x02
    628e:	89 2b       	or	r24, r25
    6290:	8c 93       	st	X, r24
    6292:	20 c0       	rjmp	.+64     	; 0x62d4 <Dio_vidwritechanelgroup+0xa8>
		break;

	case DIO_PORTB:
		DIO_PORTB_REG =	(DIO_PORTB_REG & mask) |( data);
    6294:	a8 e3       	ldi	r26, 0x38	; 56
    6296:	b0 e0       	ldi	r27, 0x00	; 0
    6298:	e8 e3       	ldi	r30, 0x38	; 56
    629a:	f0 e0       	ldi	r31, 0x00	; 0
    629c:	90 81       	ld	r25, Z
    629e:	8b 81       	ldd	r24, Y+3	; 0x03
    62a0:	98 23       	and	r25, r24
    62a2:	8a 81       	ldd	r24, Y+2	; 0x02
    62a4:	89 2b       	or	r24, r25
    62a6:	8c 93       	st	X, r24
    62a8:	15 c0       	rjmp	.+42     	; 0x62d4 <Dio_vidwritechanelgroup+0xa8>
		break;

	case DIO_PORTC:
		DIO_PORTC_REG =	(DIO_PORTC_REG & mask) |( data);
    62aa:	a5 e3       	ldi	r26, 0x35	; 53
    62ac:	b0 e0       	ldi	r27, 0x00	; 0
    62ae:	e5 e3       	ldi	r30, 0x35	; 53
    62b0:	f0 e0       	ldi	r31, 0x00	; 0
    62b2:	90 81       	ld	r25, Z
    62b4:	8b 81       	ldd	r24, Y+3	; 0x03
    62b6:	98 23       	and	r25, r24
    62b8:	8a 81       	ldd	r24, Y+2	; 0x02
    62ba:	89 2b       	or	r24, r25
    62bc:	8c 93       	st	X, r24
    62be:	0a c0       	rjmp	.+20     	; 0x62d4 <Dio_vidwritechanelgroup+0xa8>
		break;

	case DIO_PORTD:
		DIO_PORTD_REG =	(DIO_PORTD_REG & mask) |( data);
    62c0:	a2 e3       	ldi	r26, 0x32	; 50
    62c2:	b0 e0       	ldi	r27, 0x00	; 0
    62c4:	e2 e3       	ldi	r30, 0x32	; 50
    62c6:	f0 e0       	ldi	r31, 0x00	; 0
    62c8:	90 81       	ld	r25, Z
    62ca:	8b 81       	ldd	r24, Y+3	; 0x03
    62cc:	98 23       	and	r25, r24
    62ce:	8a 81       	ldd	r24, Y+2	; 0x02
    62d0:	89 2b       	or	r24, r25
    62d2:	8c 93       	st	X, r24
		break;
	}
}
    62d4:	0f 90       	pop	r0
    62d6:	0f 90       	pop	r0
    62d8:	0f 90       	pop	r0
    62da:	0f 90       	pop	r0
    62dc:	0f 90       	pop	r0
    62de:	cf 91       	pop	r28
    62e0:	df 91       	pop	r29
    62e2:	08 95       	ret

000062e4 <Dio_udtreadChanel>:

dio_level_t Dio_udtreadChanel(dio_port_t port, dio_pin_t pin)
{
    62e4:	df 93       	push	r29
    62e6:	cf 93       	push	r28
    62e8:	00 d0       	rcall	.+0      	; 0x62ea <Dio_udtreadChanel+0x6>
    62ea:	00 d0       	rcall	.+0      	; 0x62ec <Dio_udtreadChanel+0x8>
    62ec:	0f 92       	push	r0
    62ee:	cd b7       	in	r28, 0x3d	; 61
    62f0:	de b7       	in	r29, 0x3e	; 62
    62f2:	8a 83       	std	Y+2, r24	; 0x02
    62f4:	6b 83       	std	Y+3, r22	; 0x03
	dio_level_t loc_result = DIO_LOW;
    62f6:	19 82       	std	Y+1, r1	; 0x01

	switch (port)
    62f8:	8a 81       	ldd	r24, Y+2	; 0x02
    62fa:	28 2f       	mov	r18, r24
    62fc:	30 e0       	ldi	r19, 0x00	; 0
    62fe:	3d 83       	std	Y+5, r19	; 0x05
    6300:	2c 83       	std	Y+4, r18	; 0x04
    6302:	4c 81       	ldd	r20, Y+4	; 0x04
    6304:	5d 81       	ldd	r21, Y+5	; 0x05
    6306:	41 30       	cpi	r20, 0x01	; 1
    6308:	51 05       	cpc	r21, r1
    630a:	79 f1       	breq	.+94     	; 0x636a <Dio_udtreadChanel+0x86>
    630c:	8c 81       	ldd	r24, Y+4	; 0x04
    630e:	9d 81       	ldd	r25, Y+5	; 0x05
    6310:	82 30       	cpi	r24, 0x02	; 2
    6312:	91 05       	cpc	r25, r1
    6314:	34 f4       	brge	.+12     	; 0x6322 <Dio_udtreadChanel+0x3e>
    6316:	2c 81       	ldd	r18, Y+4	; 0x04
    6318:	3d 81       	ldd	r19, Y+5	; 0x05
    631a:	21 15       	cp	r18, r1
    631c:	31 05       	cpc	r19, r1
    631e:	69 f0       	breq	.+26     	; 0x633a <Dio_udtreadChanel+0x56>
    6320:	6b c0       	rjmp	.+214    	; 0x63f8 <Dio_udtreadChanel+0x114>
    6322:	4c 81       	ldd	r20, Y+4	; 0x04
    6324:	5d 81       	ldd	r21, Y+5	; 0x05
    6326:	42 30       	cpi	r20, 0x02	; 2
    6328:	51 05       	cpc	r21, r1
    632a:	b9 f1       	breq	.+110    	; 0x639a <Dio_udtreadChanel+0xb6>
    632c:	8c 81       	ldd	r24, Y+4	; 0x04
    632e:	9d 81       	ldd	r25, Y+5	; 0x05
    6330:	83 30       	cpi	r24, 0x03	; 3
    6332:	91 05       	cpc	r25, r1
    6334:	09 f4       	brne	.+2      	; 0x6338 <Dio_udtreadChanel+0x54>
    6336:	49 c0       	rjmp	.+146    	; 0x63ca <Dio_udtreadChanel+0xe6>
    6338:	5f c0       	rjmp	.+190    	; 0x63f8 <Dio_udtreadChanel+0x114>
	{
	case DIO_PORTA:
		if (CHECK_BIT(DIO_PINA_REG,pin) == 1)
    633a:	e9 e3       	ldi	r30, 0x39	; 57
    633c:	f0 e0       	ldi	r31, 0x00	; 0
    633e:	80 81       	ld	r24, Z
    6340:	28 2f       	mov	r18, r24
    6342:	30 e0       	ldi	r19, 0x00	; 0
    6344:	8b 81       	ldd	r24, Y+3	; 0x03
    6346:	88 2f       	mov	r24, r24
    6348:	90 e0       	ldi	r25, 0x00	; 0
    634a:	a9 01       	movw	r20, r18
    634c:	02 c0       	rjmp	.+4      	; 0x6352 <Dio_udtreadChanel+0x6e>
    634e:	55 95       	asr	r21
    6350:	47 95       	ror	r20
    6352:	8a 95       	dec	r24
    6354:	e2 f7       	brpl	.-8      	; 0x634e <Dio_udtreadChanel+0x6a>
    6356:	ca 01       	movw	r24, r20
    6358:	81 70       	andi	r24, 0x01	; 1
    635a:	90 70       	andi	r25, 0x00	; 0
    635c:	88 23       	and	r24, r24
    635e:	19 f0       	breq	.+6      	; 0x6366 <Dio_udtreadChanel+0x82>
		{
			loc_result = DIO_HIGH;
    6360:	81 e0       	ldi	r24, 0x01	; 1
    6362:	89 83       	std	Y+1, r24	; 0x01
    6364:	49 c0       	rjmp	.+146    	; 0x63f8 <Dio_udtreadChanel+0x114>
		}
		else
		{
			loc_result = DIO_LOW;
    6366:	19 82       	std	Y+1, r1	; 0x01
    6368:	47 c0       	rjmp	.+142    	; 0x63f8 <Dio_udtreadChanel+0x114>
		}
		break;

	case DIO_PORTB:
		if (CHECK_BIT(DIO_PINB_REG,pin) == 1)
    636a:	e6 e3       	ldi	r30, 0x36	; 54
    636c:	f0 e0       	ldi	r31, 0x00	; 0
    636e:	80 81       	ld	r24, Z
    6370:	28 2f       	mov	r18, r24
    6372:	30 e0       	ldi	r19, 0x00	; 0
    6374:	8b 81       	ldd	r24, Y+3	; 0x03
    6376:	88 2f       	mov	r24, r24
    6378:	90 e0       	ldi	r25, 0x00	; 0
    637a:	a9 01       	movw	r20, r18
    637c:	02 c0       	rjmp	.+4      	; 0x6382 <Dio_udtreadChanel+0x9e>
    637e:	55 95       	asr	r21
    6380:	47 95       	ror	r20
    6382:	8a 95       	dec	r24
    6384:	e2 f7       	brpl	.-8      	; 0x637e <Dio_udtreadChanel+0x9a>
    6386:	ca 01       	movw	r24, r20
    6388:	81 70       	andi	r24, 0x01	; 1
    638a:	90 70       	andi	r25, 0x00	; 0
    638c:	88 23       	and	r24, r24
    638e:	19 f0       	breq	.+6      	; 0x6396 <Dio_udtreadChanel+0xb2>
		{
			loc_result = DIO_HIGH;
    6390:	81 e0       	ldi	r24, 0x01	; 1
    6392:	89 83       	std	Y+1, r24	; 0x01
    6394:	31 c0       	rjmp	.+98     	; 0x63f8 <Dio_udtreadChanel+0x114>
		}
		else
		{
			loc_result = DIO_LOW;
    6396:	19 82       	std	Y+1, r1	; 0x01
    6398:	2f c0       	rjmp	.+94     	; 0x63f8 <Dio_udtreadChanel+0x114>
		}
		break;

	case DIO_PORTC:
		if (CHECK_BIT(DIO_PINC_REG,pin) == 1)
    639a:	e3 e3       	ldi	r30, 0x33	; 51
    639c:	f0 e0       	ldi	r31, 0x00	; 0
    639e:	80 81       	ld	r24, Z
    63a0:	28 2f       	mov	r18, r24
    63a2:	30 e0       	ldi	r19, 0x00	; 0
    63a4:	8b 81       	ldd	r24, Y+3	; 0x03
    63a6:	88 2f       	mov	r24, r24
    63a8:	90 e0       	ldi	r25, 0x00	; 0
    63aa:	a9 01       	movw	r20, r18
    63ac:	02 c0       	rjmp	.+4      	; 0x63b2 <Dio_udtreadChanel+0xce>
    63ae:	55 95       	asr	r21
    63b0:	47 95       	ror	r20
    63b2:	8a 95       	dec	r24
    63b4:	e2 f7       	brpl	.-8      	; 0x63ae <Dio_udtreadChanel+0xca>
    63b6:	ca 01       	movw	r24, r20
    63b8:	81 70       	andi	r24, 0x01	; 1
    63ba:	90 70       	andi	r25, 0x00	; 0
    63bc:	88 23       	and	r24, r24
    63be:	19 f0       	breq	.+6      	; 0x63c6 <Dio_udtreadChanel+0xe2>
		{
			loc_result = DIO_HIGH;
    63c0:	81 e0       	ldi	r24, 0x01	; 1
    63c2:	89 83       	std	Y+1, r24	; 0x01
    63c4:	19 c0       	rjmp	.+50     	; 0x63f8 <Dio_udtreadChanel+0x114>
		}
		else
		{
			loc_result = DIO_LOW;
    63c6:	19 82       	std	Y+1, r1	; 0x01
    63c8:	17 c0       	rjmp	.+46     	; 0x63f8 <Dio_udtreadChanel+0x114>
		}
		break;

	case DIO_PORTD:
		if (CHECK_BIT(DIO_PIND_REG,pin) == 1)
    63ca:	e0 e3       	ldi	r30, 0x30	; 48
    63cc:	f0 e0       	ldi	r31, 0x00	; 0
    63ce:	80 81       	ld	r24, Z
    63d0:	28 2f       	mov	r18, r24
    63d2:	30 e0       	ldi	r19, 0x00	; 0
    63d4:	8b 81       	ldd	r24, Y+3	; 0x03
    63d6:	88 2f       	mov	r24, r24
    63d8:	90 e0       	ldi	r25, 0x00	; 0
    63da:	a9 01       	movw	r20, r18
    63dc:	02 c0       	rjmp	.+4      	; 0x63e2 <Dio_udtreadChanel+0xfe>
    63de:	55 95       	asr	r21
    63e0:	47 95       	ror	r20
    63e2:	8a 95       	dec	r24
    63e4:	e2 f7       	brpl	.-8      	; 0x63de <Dio_udtreadChanel+0xfa>
    63e6:	ca 01       	movw	r24, r20
    63e8:	81 70       	andi	r24, 0x01	; 1
    63ea:	90 70       	andi	r25, 0x00	; 0
    63ec:	88 23       	and	r24, r24
    63ee:	19 f0       	breq	.+6      	; 0x63f6 <Dio_udtreadChanel+0x112>
		{
			loc_result = DIO_HIGH;
    63f0:	81 e0       	ldi	r24, 0x01	; 1
    63f2:	89 83       	std	Y+1, r24	; 0x01
    63f4:	01 c0       	rjmp	.+2      	; 0x63f8 <Dio_udtreadChanel+0x114>
		}
		else
		{
			loc_result = DIO_LOW;
    63f6:	19 82       	std	Y+1, r1	; 0x01
		}
		break;
	}
	return loc_result;
    63f8:	89 81       	ldd	r24, Y+1	; 0x01
}
    63fa:	0f 90       	pop	r0
    63fc:	0f 90       	pop	r0
    63fe:	0f 90       	pop	r0
    6400:	0f 90       	pop	r0
    6402:	0f 90       	pop	r0
    6404:	cf 91       	pop	r28
    6406:	df 91       	pop	r29
    6408:	08 95       	ret

0000640a <Dio_vidflipChanel>:

void Dio_vidflipChanel(dio_port_t port, dio_pin_t pin)
{
    640a:	df 93       	push	r29
    640c:	cf 93       	push	r28
    640e:	00 d0       	rcall	.+0      	; 0x6410 <Dio_vidflipChanel+0x6>
    6410:	00 d0       	rcall	.+0      	; 0x6412 <Dio_vidflipChanel+0x8>
    6412:	cd b7       	in	r28, 0x3d	; 61
    6414:	de b7       	in	r29, 0x3e	; 62
    6416:	89 83       	std	Y+1, r24	; 0x01
    6418:	6a 83       	std	Y+2, r22	; 0x02
	switch (port)
    641a:	89 81       	ldd	r24, Y+1	; 0x01
    641c:	28 2f       	mov	r18, r24
    641e:	30 e0       	ldi	r19, 0x00	; 0
    6420:	3c 83       	std	Y+4, r19	; 0x04
    6422:	2b 83       	std	Y+3, r18	; 0x03
    6424:	8b 81       	ldd	r24, Y+3	; 0x03
    6426:	9c 81       	ldd	r25, Y+4	; 0x04
    6428:	81 30       	cpi	r24, 0x01	; 1
    642a:	91 05       	cpc	r25, r1
    642c:	49 f1       	breq	.+82     	; 0x6480 <Dio_vidflipChanel+0x76>
    642e:	2b 81       	ldd	r18, Y+3	; 0x03
    6430:	3c 81       	ldd	r19, Y+4	; 0x04
    6432:	22 30       	cpi	r18, 0x02	; 2
    6434:	31 05       	cpc	r19, r1
    6436:	2c f4       	brge	.+10     	; 0x6442 <Dio_vidflipChanel+0x38>
    6438:	8b 81       	ldd	r24, Y+3	; 0x03
    643a:	9c 81       	ldd	r25, Y+4	; 0x04
    643c:	00 97       	sbiw	r24, 0x00	; 0
    643e:	61 f0       	breq	.+24     	; 0x6458 <Dio_vidflipChanel+0x4e>
    6440:	5a c0       	rjmp	.+180    	; 0x64f6 <Dio_vidflipChanel+0xec>
    6442:	2b 81       	ldd	r18, Y+3	; 0x03
    6444:	3c 81       	ldd	r19, Y+4	; 0x04
    6446:	22 30       	cpi	r18, 0x02	; 2
    6448:	31 05       	cpc	r19, r1
    644a:	71 f1       	breq	.+92     	; 0x64a8 <Dio_vidflipChanel+0x9e>
    644c:	8b 81       	ldd	r24, Y+3	; 0x03
    644e:	9c 81       	ldd	r25, Y+4	; 0x04
    6450:	83 30       	cpi	r24, 0x03	; 3
    6452:	91 05       	cpc	r25, r1
    6454:	e9 f1       	breq	.+122    	; 0x64d0 <Dio_vidflipChanel+0xc6>
    6456:	4f c0       	rjmp	.+158    	; 0x64f6 <Dio_vidflipChanel+0xec>
	{
	case DIO_PORTA:
		FLIP_BIT(DIO_PORTA_REG,pin);
    6458:	ab e3       	ldi	r26, 0x3B	; 59
    645a:	b0 e0       	ldi	r27, 0x00	; 0
    645c:	eb e3       	ldi	r30, 0x3B	; 59
    645e:	f0 e0       	ldi	r31, 0x00	; 0
    6460:	80 81       	ld	r24, Z
    6462:	48 2f       	mov	r20, r24
    6464:	8a 81       	ldd	r24, Y+2	; 0x02
    6466:	28 2f       	mov	r18, r24
    6468:	30 e0       	ldi	r19, 0x00	; 0
    646a:	81 e0       	ldi	r24, 0x01	; 1
    646c:	90 e0       	ldi	r25, 0x00	; 0
    646e:	02 2e       	mov	r0, r18
    6470:	02 c0       	rjmp	.+4      	; 0x6476 <Dio_vidflipChanel+0x6c>
    6472:	88 0f       	add	r24, r24
    6474:	99 1f       	adc	r25, r25
    6476:	0a 94       	dec	r0
    6478:	e2 f7       	brpl	.-8      	; 0x6472 <Dio_vidflipChanel+0x68>
    647a:	84 27       	eor	r24, r20
    647c:	8c 93       	st	X, r24
    647e:	3b c0       	rjmp	.+118    	; 0x64f6 <Dio_vidflipChanel+0xec>
		break;

	case DIO_PORTB:
		FLIP_BIT(DIO_PORTB_REG,pin);
    6480:	a8 e3       	ldi	r26, 0x38	; 56
    6482:	b0 e0       	ldi	r27, 0x00	; 0
    6484:	e8 e3       	ldi	r30, 0x38	; 56
    6486:	f0 e0       	ldi	r31, 0x00	; 0
    6488:	80 81       	ld	r24, Z
    648a:	48 2f       	mov	r20, r24
    648c:	8a 81       	ldd	r24, Y+2	; 0x02
    648e:	28 2f       	mov	r18, r24
    6490:	30 e0       	ldi	r19, 0x00	; 0
    6492:	81 e0       	ldi	r24, 0x01	; 1
    6494:	90 e0       	ldi	r25, 0x00	; 0
    6496:	02 2e       	mov	r0, r18
    6498:	02 c0       	rjmp	.+4      	; 0x649e <Dio_vidflipChanel+0x94>
    649a:	88 0f       	add	r24, r24
    649c:	99 1f       	adc	r25, r25
    649e:	0a 94       	dec	r0
    64a0:	e2 f7       	brpl	.-8      	; 0x649a <Dio_vidflipChanel+0x90>
    64a2:	84 27       	eor	r24, r20
    64a4:	8c 93       	st	X, r24
    64a6:	27 c0       	rjmp	.+78     	; 0x64f6 <Dio_vidflipChanel+0xec>
		break;

	case DIO_PORTC:
		FLIP_BIT(DIO_PORTC_REG,pin);
    64a8:	a5 e3       	ldi	r26, 0x35	; 53
    64aa:	b0 e0       	ldi	r27, 0x00	; 0
    64ac:	e5 e3       	ldi	r30, 0x35	; 53
    64ae:	f0 e0       	ldi	r31, 0x00	; 0
    64b0:	80 81       	ld	r24, Z
    64b2:	48 2f       	mov	r20, r24
    64b4:	8a 81       	ldd	r24, Y+2	; 0x02
    64b6:	28 2f       	mov	r18, r24
    64b8:	30 e0       	ldi	r19, 0x00	; 0
    64ba:	81 e0       	ldi	r24, 0x01	; 1
    64bc:	90 e0       	ldi	r25, 0x00	; 0
    64be:	02 2e       	mov	r0, r18
    64c0:	02 c0       	rjmp	.+4      	; 0x64c6 <Dio_vidflipChanel+0xbc>
    64c2:	88 0f       	add	r24, r24
    64c4:	99 1f       	adc	r25, r25
    64c6:	0a 94       	dec	r0
    64c8:	e2 f7       	brpl	.-8      	; 0x64c2 <Dio_vidflipChanel+0xb8>
    64ca:	84 27       	eor	r24, r20
    64cc:	8c 93       	st	X, r24
    64ce:	13 c0       	rjmp	.+38     	; 0x64f6 <Dio_vidflipChanel+0xec>
		break;

	case DIO_PORTD:
		FLIP_BIT(DIO_PORTD_REG,pin);
    64d0:	a2 e3       	ldi	r26, 0x32	; 50
    64d2:	b0 e0       	ldi	r27, 0x00	; 0
    64d4:	e2 e3       	ldi	r30, 0x32	; 50
    64d6:	f0 e0       	ldi	r31, 0x00	; 0
    64d8:	80 81       	ld	r24, Z
    64da:	48 2f       	mov	r20, r24
    64dc:	8a 81       	ldd	r24, Y+2	; 0x02
    64de:	28 2f       	mov	r18, r24
    64e0:	30 e0       	ldi	r19, 0x00	; 0
    64e2:	81 e0       	ldi	r24, 0x01	; 1
    64e4:	90 e0       	ldi	r25, 0x00	; 0
    64e6:	02 2e       	mov	r0, r18
    64e8:	02 c0       	rjmp	.+4      	; 0x64ee <Dio_vidflipChanel+0xe4>
    64ea:	88 0f       	add	r24, r24
    64ec:	99 1f       	adc	r25, r25
    64ee:	0a 94       	dec	r0
    64f0:	e2 f7       	brpl	.-8      	; 0x64ea <Dio_vidflipChanel+0xe0>
    64f2:	84 27       	eor	r24, r20
    64f4:	8c 93       	st	X, r24
		break;
	}
}
    64f6:	0f 90       	pop	r0
    64f8:	0f 90       	pop	r0
    64fa:	0f 90       	pop	r0
    64fc:	0f 90       	pop	r0
    64fe:	cf 91       	pop	r28
    6500:	df 91       	pop	r29
    6502:	08 95       	ret

00006504 <Dio_vidPullUpEn>:


void Dio_vidPullUpEn(dio_port_t port, dio_pin_t pin)
{
    6504:	df 93       	push	r29
    6506:	cf 93       	push	r28
    6508:	00 d0       	rcall	.+0      	; 0x650a <Dio_vidPullUpEn+0x6>
    650a:	00 d0       	rcall	.+0      	; 0x650c <Dio_vidPullUpEn+0x8>
    650c:	cd b7       	in	r28, 0x3d	; 61
    650e:	de b7       	in	r29, 0x3e	; 62
    6510:	89 83       	std	Y+1, r24	; 0x01
    6512:	6a 83       	std	Y+2, r22	; 0x02
	switch (port)
    6514:	89 81       	ldd	r24, Y+1	; 0x01
    6516:	28 2f       	mov	r18, r24
    6518:	30 e0       	ldi	r19, 0x00	; 0
    651a:	3c 83       	std	Y+4, r19	; 0x04
    651c:	2b 83       	std	Y+3, r18	; 0x03
    651e:	8b 81       	ldd	r24, Y+3	; 0x03
    6520:	9c 81       	ldd	r25, Y+4	; 0x04
    6522:	81 30       	cpi	r24, 0x01	; 1
    6524:	91 05       	cpc	r25, r1
    6526:	49 f1       	breq	.+82     	; 0x657a <Dio_vidPullUpEn+0x76>
    6528:	2b 81       	ldd	r18, Y+3	; 0x03
    652a:	3c 81       	ldd	r19, Y+4	; 0x04
    652c:	22 30       	cpi	r18, 0x02	; 2
    652e:	31 05       	cpc	r19, r1
    6530:	2c f4       	brge	.+10     	; 0x653c <Dio_vidPullUpEn+0x38>
    6532:	8b 81       	ldd	r24, Y+3	; 0x03
    6534:	9c 81       	ldd	r25, Y+4	; 0x04
    6536:	00 97       	sbiw	r24, 0x00	; 0
    6538:	61 f0       	breq	.+24     	; 0x6552 <Dio_vidPullUpEn+0x4e>
    653a:	5a c0       	rjmp	.+180    	; 0x65f0 <Dio_vidPullUpEn+0xec>
    653c:	2b 81       	ldd	r18, Y+3	; 0x03
    653e:	3c 81       	ldd	r19, Y+4	; 0x04
    6540:	22 30       	cpi	r18, 0x02	; 2
    6542:	31 05       	cpc	r19, r1
    6544:	71 f1       	breq	.+92     	; 0x65a2 <Dio_vidPullUpEn+0x9e>
    6546:	8b 81       	ldd	r24, Y+3	; 0x03
    6548:	9c 81       	ldd	r25, Y+4	; 0x04
    654a:	83 30       	cpi	r24, 0x03	; 3
    654c:	91 05       	cpc	r25, r1
    654e:	e9 f1       	breq	.+122    	; 0x65ca <Dio_vidPullUpEn+0xc6>
    6550:	4f c0       	rjmp	.+158    	; 0x65f0 <Dio_vidPullUpEn+0xec>
	{
	case DIO_PORTA:
		SET_BIT(DIO_PORTA_REG,pin);
    6552:	ab e3       	ldi	r26, 0x3B	; 59
    6554:	b0 e0       	ldi	r27, 0x00	; 0
    6556:	eb e3       	ldi	r30, 0x3B	; 59
    6558:	f0 e0       	ldi	r31, 0x00	; 0
    655a:	80 81       	ld	r24, Z
    655c:	48 2f       	mov	r20, r24
    655e:	8a 81       	ldd	r24, Y+2	; 0x02
    6560:	28 2f       	mov	r18, r24
    6562:	30 e0       	ldi	r19, 0x00	; 0
    6564:	81 e0       	ldi	r24, 0x01	; 1
    6566:	90 e0       	ldi	r25, 0x00	; 0
    6568:	02 2e       	mov	r0, r18
    656a:	02 c0       	rjmp	.+4      	; 0x6570 <Dio_vidPullUpEn+0x6c>
    656c:	88 0f       	add	r24, r24
    656e:	99 1f       	adc	r25, r25
    6570:	0a 94       	dec	r0
    6572:	e2 f7       	brpl	.-8      	; 0x656c <Dio_vidPullUpEn+0x68>
    6574:	84 2b       	or	r24, r20
    6576:	8c 93       	st	X, r24
    6578:	3b c0       	rjmp	.+118    	; 0x65f0 <Dio_vidPullUpEn+0xec>
		break;

	case DIO_PORTB:
		SET_BIT(DIO_PORTB_REG,pin);
    657a:	a8 e3       	ldi	r26, 0x38	; 56
    657c:	b0 e0       	ldi	r27, 0x00	; 0
    657e:	e8 e3       	ldi	r30, 0x38	; 56
    6580:	f0 e0       	ldi	r31, 0x00	; 0
    6582:	80 81       	ld	r24, Z
    6584:	48 2f       	mov	r20, r24
    6586:	8a 81       	ldd	r24, Y+2	; 0x02
    6588:	28 2f       	mov	r18, r24
    658a:	30 e0       	ldi	r19, 0x00	; 0
    658c:	81 e0       	ldi	r24, 0x01	; 1
    658e:	90 e0       	ldi	r25, 0x00	; 0
    6590:	02 2e       	mov	r0, r18
    6592:	02 c0       	rjmp	.+4      	; 0x6598 <Dio_vidPullUpEn+0x94>
    6594:	88 0f       	add	r24, r24
    6596:	99 1f       	adc	r25, r25
    6598:	0a 94       	dec	r0
    659a:	e2 f7       	brpl	.-8      	; 0x6594 <Dio_vidPullUpEn+0x90>
    659c:	84 2b       	or	r24, r20
    659e:	8c 93       	st	X, r24
    65a0:	27 c0       	rjmp	.+78     	; 0x65f0 <Dio_vidPullUpEn+0xec>
		break;

	case DIO_PORTC:
		SET_BIT(DIO_PORTC_REG,pin);
    65a2:	a5 e3       	ldi	r26, 0x35	; 53
    65a4:	b0 e0       	ldi	r27, 0x00	; 0
    65a6:	e5 e3       	ldi	r30, 0x35	; 53
    65a8:	f0 e0       	ldi	r31, 0x00	; 0
    65aa:	80 81       	ld	r24, Z
    65ac:	48 2f       	mov	r20, r24
    65ae:	8a 81       	ldd	r24, Y+2	; 0x02
    65b0:	28 2f       	mov	r18, r24
    65b2:	30 e0       	ldi	r19, 0x00	; 0
    65b4:	81 e0       	ldi	r24, 0x01	; 1
    65b6:	90 e0       	ldi	r25, 0x00	; 0
    65b8:	02 2e       	mov	r0, r18
    65ba:	02 c0       	rjmp	.+4      	; 0x65c0 <Dio_vidPullUpEn+0xbc>
    65bc:	88 0f       	add	r24, r24
    65be:	99 1f       	adc	r25, r25
    65c0:	0a 94       	dec	r0
    65c2:	e2 f7       	brpl	.-8      	; 0x65bc <Dio_vidPullUpEn+0xb8>
    65c4:	84 2b       	or	r24, r20
    65c6:	8c 93       	st	X, r24
    65c8:	13 c0       	rjmp	.+38     	; 0x65f0 <Dio_vidPullUpEn+0xec>
		break;

	case DIO_PORTD:
		SET_BIT(DIO_PORTD_REG,pin);
    65ca:	a2 e3       	ldi	r26, 0x32	; 50
    65cc:	b0 e0       	ldi	r27, 0x00	; 0
    65ce:	e2 e3       	ldi	r30, 0x32	; 50
    65d0:	f0 e0       	ldi	r31, 0x00	; 0
    65d2:	80 81       	ld	r24, Z
    65d4:	48 2f       	mov	r20, r24
    65d6:	8a 81       	ldd	r24, Y+2	; 0x02
    65d8:	28 2f       	mov	r18, r24
    65da:	30 e0       	ldi	r19, 0x00	; 0
    65dc:	81 e0       	ldi	r24, 0x01	; 1
    65de:	90 e0       	ldi	r25, 0x00	; 0
    65e0:	02 2e       	mov	r0, r18
    65e2:	02 c0       	rjmp	.+4      	; 0x65e8 <Dio_vidPullUpEn+0xe4>
    65e4:	88 0f       	add	r24, r24
    65e6:	99 1f       	adc	r25, r25
    65e8:	0a 94       	dec	r0
    65ea:	e2 f7       	brpl	.-8      	; 0x65e4 <Dio_vidPullUpEn+0xe0>
    65ec:	84 2b       	or	r24, r20
    65ee:	8c 93       	st	X, r24
		break;
	}
}
    65f0:	0f 90       	pop	r0
    65f2:	0f 90       	pop	r0
    65f4:	0f 90       	pop	r0
    65f6:	0f 90       	pop	r0
    65f8:	cf 91       	pop	r28
    65fa:	df 91       	pop	r29
    65fc:	08 95       	ret

000065fe <Dio_GetPinValue>:



u8   Dio_GetPinValue(u8 Copy_U8_Num)
{
    65fe:	df 93       	push	r29
    6600:	cf 93       	push	r28
    6602:	00 d0       	rcall	.+0      	; 0x6604 <Dio_GetPinValue+0x6>
    6604:	00 d0       	rcall	.+0      	; 0x6606 <Dio_GetPinValue+0x8>
    6606:	00 d0       	rcall	.+0      	; 0x6608 <Dio_GetPinValue+0xa>
    6608:	cd b7       	in	r28, 0x3d	; 61
    660a:	de b7       	in	r29, 0x3e	; 62
    660c:	8c 83       	std	Y+4, r24	; 0x04
	u8 Local_U8_Pin  = Copy_U8_Num % 10;
    660e:	8c 81       	ldd	r24, Y+4	; 0x04
    6610:	9a e0       	ldi	r25, 0x0A	; 10
    6612:	69 2f       	mov	r22, r25
    6614:	0e 94 54 37 	call	0x6ea8	; 0x6ea8 <__udivmodqi4>
    6618:	89 2f       	mov	r24, r25
    661a:	8b 83       	std	Y+3, r24	; 0x03
	u8 Local_U8_Port = Copy_U8_Num / 10;
    661c:	8c 81       	ldd	r24, Y+4	; 0x04
    661e:	9a e0       	ldi	r25, 0x0A	; 10
    6620:	69 2f       	mov	r22, r25
    6622:	0e 94 54 37 	call	0x6ea8	; 0x6ea8 <__udivmodqi4>
    6626:	8a 83       	std	Y+2, r24	; 0x02
	u8 Local_U8_Reading = 0;
    6628:	19 82       	std	Y+1, r1	; 0x01
	switch(Local_U8_Port)
    662a:	8a 81       	ldd	r24, Y+2	; 0x02
    662c:	28 2f       	mov	r18, r24
    662e:	30 e0       	ldi	r19, 0x00	; 0
    6630:	3e 83       	std	Y+6, r19	; 0x06
    6632:	2d 83       	std	Y+5, r18	; 0x05
    6634:	4d 81       	ldd	r20, Y+5	; 0x05
    6636:	5e 81       	ldd	r21, Y+6	; 0x06
    6638:	42 30       	cpi	r20, 0x02	; 2
    663a:	51 05       	cpc	r21, r1
    663c:	41 f1       	breq	.+80     	; 0x668e <Dio_GetPinValue+0x90>
    663e:	8d 81       	ldd	r24, Y+5	; 0x05
    6640:	9e 81       	ldd	r25, Y+6	; 0x06
    6642:	83 30       	cpi	r24, 0x03	; 3
    6644:	91 05       	cpc	r25, r1
    6646:	34 f4       	brge	.+12     	; 0x6654 <Dio_GetPinValue+0x56>
    6648:	2d 81       	ldd	r18, Y+5	; 0x05
    664a:	3e 81       	ldd	r19, Y+6	; 0x06
    664c:	21 30       	cpi	r18, 0x01	; 1
    664e:	31 05       	cpc	r19, r1
    6650:	61 f0       	breq	.+24     	; 0x666a <Dio_GetPinValue+0x6c>
    6652:	52 c0       	rjmp	.+164    	; 0x66f8 <Dio_GetPinValue+0xfa>
    6654:	4d 81       	ldd	r20, Y+5	; 0x05
    6656:	5e 81       	ldd	r21, Y+6	; 0x06
    6658:	43 30       	cpi	r20, 0x03	; 3
    665a:	51 05       	cpc	r21, r1
    665c:	51 f1       	breq	.+84     	; 0x66b2 <Dio_GetPinValue+0xb4>
    665e:	8d 81       	ldd	r24, Y+5	; 0x05
    6660:	9e 81       	ldd	r25, Y+6	; 0x06
    6662:	84 30       	cpi	r24, 0x04	; 4
    6664:	91 05       	cpc	r25, r1
    6666:	b9 f1       	breq	.+110    	; 0x66d6 <Dio_GetPinValue+0xd8>
    6668:	47 c0       	rjmp	.+142    	; 0x66f8 <Dio_GetPinValue+0xfa>
	{
	case 1: Local_U8_Reading = CHECK_BIT(DIO_PINA_REG,Local_U8_Pin); break;
    666a:	e9 e3       	ldi	r30, 0x39	; 57
    666c:	f0 e0       	ldi	r31, 0x00	; 0
    666e:	80 81       	ld	r24, Z
    6670:	28 2f       	mov	r18, r24
    6672:	30 e0       	ldi	r19, 0x00	; 0
    6674:	8b 81       	ldd	r24, Y+3	; 0x03
    6676:	88 2f       	mov	r24, r24
    6678:	90 e0       	ldi	r25, 0x00	; 0
    667a:	a9 01       	movw	r20, r18
    667c:	02 c0       	rjmp	.+4      	; 0x6682 <Dio_GetPinValue+0x84>
    667e:	55 95       	asr	r21
    6680:	47 95       	ror	r20
    6682:	8a 95       	dec	r24
    6684:	e2 f7       	brpl	.-8      	; 0x667e <Dio_GetPinValue+0x80>
    6686:	ca 01       	movw	r24, r20
    6688:	81 70       	andi	r24, 0x01	; 1
    668a:	89 83       	std	Y+1, r24	; 0x01
    668c:	35 c0       	rjmp	.+106    	; 0x66f8 <Dio_GetPinValue+0xfa>
	case 2: Local_U8_Reading = CHECK_BIT(DIO_PINB_REG,Local_U8_Pin); break;
    668e:	e6 e3       	ldi	r30, 0x36	; 54
    6690:	f0 e0       	ldi	r31, 0x00	; 0
    6692:	80 81       	ld	r24, Z
    6694:	28 2f       	mov	r18, r24
    6696:	30 e0       	ldi	r19, 0x00	; 0
    6698:	8b 81       	ldd	r24, Y+3	; 0x03
    669a:	88 2f       	mov	r24, r24
    669c:	90 e0       	ldi	r25, 0x00	; 0
    669e:	a9 01       	movw	r20, r18
    66a0:	02 c0       	rjmp	.+4      	; 0x66a6 <Dio_GetPinValue+0xa8>
    66a2:	55 95       	asr	r21
    66a4:	47 95       	ror	r20
    66a6:	8a 95       	dec	r24
    66a8:	e2 f7       	brpl	.-8      	; 0x66a2 <Dio_GetPinValue+0xa4>
    66aa:	ca 01       	movw	r24, r20
    66ac:	81 70       	andi	r24, 0x01	; 1
    66ae:	89 83       	std	Y+1, r24	; 0x01
    66b0:	23 c0       	rjmp	.+70     	; 0x66f8 <Dio_GetPinValue+0xfa>
	case 3: Local_U8_Reading = CHECK_BIT(DIO_PINC_REG,Local_U8_Pin); break;
    66b2:	e3 e3       	ldi	r30, 0x33	; 51
    66b4:	f0 e0       	ldi	r31, 0x00	; 0
    66b6:	80 81       	ld	r24, Z
    66b8:	28 2f       	mov	r18, r24
    66ba:	30 e0       	ldi	r19, 0x00	; 0
    66bc:	8b 81       	ldd	r24, Y+3	; 0x03
    66be:	88 2f       	mov	r24, r24
    66c0:	90 e0       	ldi	r25, 0x00	; 0
    66c2:	a9 01       	movw	r20, r18
    66c4:	02 c0       	rjmp	.+4      	; 0x66ca <Dio_GetPinValue+0xcc>
    66c6:	55 95       	asr	r21
    66c8:	47 95       	ror	r20
    66ca:	8a 95       	dec	r24
    66cc:	e2 f7       	brpl	.-8      	; 0x66c6 <Dio_GetPinValue+0xc8>
    66ce:	ca 01       	movw	r24, r20
    66d0:	81 70       	andi	r24, 0x01	; 1
    66d2:	89 83       	std	Y+1, r24	; 0x01
    66d4:	11 c0       	rjmp	.+34     	; 0x66f8 <Dio_GetPinValue+0xfa>
	case 4: Local_U8_Reading = CHECK_BIT(DIO_PIND_REG,Local_U8_Pin); break;
    66d6:	e0 e3       	ldi	r30, 0x30	; 48
    66d8:	f0 e0       	ldi	r31, 0x00	; 0
    66da:	80 81       	ld	r24, Z
    66dc:	28 2f       	mov	r18, r24
    66de:	30 e0       	ldi	r19, 0x00	; 0
    66e0:	8b 81       	ldd	r24, Y+3	; 0x03
    66e2:	88 2f       	mov	r24, r24
    66e4:	90 e0       	ldi	r25, 0x00	; 0
    66e6:	a9 01       	movw	r20, r18
    66e8:	02 c0       	rjmp	.+4      	; 0x66ee <Dio_GetPinValue+0xf0>
    66ea:	55 95       	asr	r21
    66ec:	47 95       	ror	r20
    66ee:	8a 95       	dec	r24
    66f0:	e2 f7       	brpl	.-8      	; 0x66ea <Dio_GetPinValue+0xec>
    66f2:	ca 01       	movw	r24, r20
    66f4:	81 70       	andi	r24, 0x01	; 1
    66f6:	89 83       	std	Y+1, r24	; 0x01
	default:                                                   break;
	}
	return Local_U8_Reading;
    66f8:	89 81       	ldd	r24, Y+1	; 0x01
}
    66fa:	26 96       	adiw	r28, 0x06	; 6
    66fc:	0f b6       	in	r0, 0x3f	; 63
    66fe:	f8 94       	cli
    6700:	de bf       	out	0x3e, r29	; 62
    6702:	0f be       	out	0x3f, r0	; 63
    6704:	cd bf       	out	0x3d, r28	; 61
    6706:	cf 91       	pop	r28
    6708:	df 91       	pop	r29
    670a:	08 95       	ret

0000670c <Dio_vidSetPinDirection>:

void Dio_vidSetPinDirection(u8 Copy_U8_Num ,u8 Copy_U8_State)
{
    670c:	df 93       	push	r29
    670e:	cf 93       	push	r28
    6710:	cd b7       	in	r28, 0x3d	; 61
    6712:	de b7       	in	r29, 0x3e	; 62
    6714:	2a 97       	sbiw	r28, 0x0a	; 10
    6716:	0f b6       	in	r0, 0x3f	; 63
    6718:	f8 94       	cli
    671a:	de bf       	out	0x3e, r29	; 62
    671c:	0f be       	out	0x3f, r0	; 63
    671e:	cd bf       	out	0x3d, r28	; 61
    6720:	8b 83       	std	Y+3, r24	; 0x03
    6722:	6c 83       	std	Y+4, r22	; 0x04
	u8 Local_U8_Pin  = Copy_U8_Num % 10;
    6724:	8b 81       	ldd	r24, Y+3	; 0x03
    6726:	9a e0       	ldi	r25, 0x0A	; 10
    6728:	69 2f       	mov	r22, r25
    672a:	0e 94 54 37 	call	0x6ea8	; 0x6ea8 <__udivmodqi4>
    672e:	89 2f       	mov	r24, r25
    6730:	8a 83       	std	Y+2, r24	; 0x02
	u8 Local_U8_Port = Copy_U8_Num / 10;
    6732:	8b 81       	ldd	r24, Y+3	; 0x03
    6734:	9a e0       	ldi	r25, 0x0A	; 10
    6736:	69 2f       	mov	r22, r25
    6738:	0e 94 54 37 	call	0x6ea8	; 0x6ea8 <__udivmodqi4>
    673c:	89 83       	std	Y+1, r24	; 0x01
			switch(Copy_U8_State)
    673e:	8c 81       	ldd	r24, Y+4	; 0x04
    6740:	28 2f       	mov	r18, r24
    6742:	30 e0       	ldi	r19, 0x00	; 0
    6744:	3a 87       	std	Y+10, r19	; 0x0a
    6746:	29 87       	std	Y+9, r18	; 0x09
    6748:	89 85       	ldd	r24, Y+9	; 0x09
    674a:	9a 85       	ldd	r25, Y+10	; 0x0a
    674c:	00 97       	sbiw	r24, 0x00	; 0
    674e:	39 f0       	breq	.+14     	; 0x675e <Dio_vidSetPinDirection+0x52>
    6750:	29 85       	ldd	r18, Y+9	; 0x09
    6752:	3a 85       	ldd	r19, Y+10	; 0x0a
    6754:	21 30       	cpi	r18, 0x01	; 1
    6756:	31 05       	cpc	r19, r1
    6758:	09 f4       	brne	.+2      	; 0x675c <Dio_vidSetPinDirection+0x50>
    675a:	76 c0       	rjmp	.+236    	; 0x6848 <Dio_vidSetPinDirection+0x13c>
    675c:	e4 c0       	rjmp	.+456    	; 0x6926 <Dio_vidSetPinDirection+0x21a>
			{
			case INPUT :
				switch(Local_U8_Port)
    675e:	89 81       	ldd	r24, Y+1	; 0x01
    6760:	28 2f       	mov	r18, r24
    6762:	30 e0       	ldi	r19, 0x00	; 0
    6764:	38 87       	std	Y+8, r19	; 0x08
    6766:	2f 83       	std	Y+7, r18	; 0x07
    6768:	8f 81       	ldd	r24, Y+7	; 0x07
    676a:	98 85       	ldd	r25, Y+8	; 0x08
    676c:	82 30       	cpi	r24, 0x02	; 2
    676e:	91 05       	cpc	r25, r1
    6770:	61 f1       	breq	.+88     	; 0x67ca <Dio_vidSetPinDirection+0xbe>
    6772:	2f 81       	ldd	r18, Y+7	; 0x07
    6774:	38 85       	ldd	r19, Y+8	; 0x08
    6776:	23 30       	cpi	r18, 0x03	; 3
    6778:	31 05       	cpc	r19, r1
    677a:	34 f4       	brge	.+12     	; 0x6788 <Dio_vidSetPinDirection+0x7c>
    677c:	8f 81       	ldd	r24, Y+7	; 0x07
    677e:	98 85       	ldd	r25, Y+8	; 0x08
    6780:	81 30       	cpi	r24, 0x01	; 1
    6782:	91 05       	cpc	r25, r1
    6784:	69 f0       	breq	.+26     	; 0x67a0 <Dio_vidSetPinDirection+0x94>
    6786:	cf c0       	rjmp	.+414    	; 0x6926 <Dio_vidSetPinDirection+0x21a>
    6788:	2f 81       	ldd	r18, Y+7	; 0x07
    678a:	38 85       	ldd	r19, Y+8	; 0x08
    678c:	23 30       	cpi	r18, 0x03	; 3
    678e:	31 05       	cpc	r19, r1
    6790:	89 f1       	breq	.+98     	; 0x67f4 <Dio_vidSetPinDirection+0xe8>
    6792:	8f 81       	ldd	r24, Y+7	; 0x07
    6794:	98 85       	ldd	r25, Y+8	; 0x08
    6796:	84 30       	cpi	r24, 0x04	; 4
    6798:	91 05       	cpc	r25, r1
    679a:	09 f4       	brne	.+2      	; 0x679e <Dio_vidSetPinDirection+0x92>
    679c:	40 c0       	rjmp	.+128    	; 0x681e <Dio_vidSetPinDirection+0x112>
    679e:	c3 c0       	rjmp	.+390    	; 0x6926 <Dio_vidSetPinDirection+0x21a>
				{
				case 1: CLEAR_BIT(DIO_DDRA_REG,Local_U8_Pin); break;
    67a0:	aa e3       	ldi	r26, 0x3A	; 58
    67a2:	b0 e0       	ldi	r27, 0x00	; 0
    67a4:	ea e3       	ldi	r30, 0x3A	; 58
    67a6:	f0 e0       	ldi	r31, 0x00	; 0
    67a8:	80 81       	ld	r24, Z
    67aa:	48 2f       	mov	r20, r24
    67ac:	8a 81       	ldd	r24, Y+2	; 0x02
    67ae:	28 2f       	mov	r18, r24
    67b0:	30 e0       	ldi	r19, 0x00	; 0
    67b2:	81 e0       	ldi	r24, 0x01	; 1
    67b4:	90 e0       	ldi	r25, 0x00	; 0
    67b6:	02 2e       	mov	r0, r18
    67b8:	02 c0       	rjmp	.+4      	; 0x67be <Dio_vidSetPinDirection+0xb2>
    67ba:	88 0f       	add	r24, r24
    67bc:	99 1f       	adc	r25, r25
    67be:	0a 94       	dec	r0
    67c0:	e2 f7       	brpl	.-8      	; 0x67ba <Dio_vidSetPinDirection+0xae>
    67c2:	80 95       	com	r24
    67c4:	84 23       	and	r24, r20
    67c6:	8c 93       	st	X, r24
    67c8:	ae c0       	rjmp	.+348    	; 0x6926 <Dio_vidSetPinDirection+0x21a>
				case 2: CLEAR_BIT(DIO_DDRB_REG,Local_U8_Pin); break;
    67ca:	a7 e3       	ldi	r26, 0x37	; 55
    67cc:	b0 e0       	ldi	r27, 0x00	; 0
    67ce:	e7 e3       	ldi	r30, 0x37	; 55
    67d0:	f0 e0       	ldi	r31, 0x00	; 0
    67d2:	80 81       	ld	r24, Z
    67d4:	48 2f       	mov	r20, r24
    67d6:	8a 81       	ldd	r24, Y+2	; 0x02
    67d8:	28 2f       	mov	r18, r24
    67da:	30 e0       	ldi	r19, 0x00	; 0
    67dc:	81 e0       	ldi	r24, 0x01	; 1
    67de:	90 e0       	ldi	r25, 0x00	; 0
    67e0:	02 2e       	mov	r0, r18
    67e2:	02 c0       	rjmp	.+4      	; 0x67e8 <Dio_vidSetPinDirection+0xdc>
    67e4:	88 0f       	add	r24, r24
    67e6:	99 1f       	adc	r25, r25
    67e8:	0a 94       	dec	r0
    67ea:	e2 f7       	brpl	.-8      	; 0x67e4 <Dio_vidSetPinDirection+0xd8>
    67ec:	80 95       	com	r24
    67ee:	84 23       	and	r24, r20
    67f0:	8c 93       	st	X, r24
    67f2:	99 c0       	rjmp	.+306    	; 0x6926 <Dio_vidSetPinDirection+0x21a>
				case 3: CLEAR_BIT(DIO_DDRC_REG,Local_U8_Pin); break;
    67f4:	a4 e3       	ldi	r26, 0x34	; 52
    67f6:	b0 e0       	ldi	r27, 0x00	; 0
    67f8:	e4 e3       	ldi	r30, 0x34	; 52
    67fa:	f0 e0       	ldi	r31, 0x00	; 0
    67fc:	80 81       	ld	r24, Z
    67fe:	48 2f       	mov	r20, r24
    6800:	8a 81       	ldd	r24, Y+2	; 0x02
    6802:	28 2f       	mov	r18, r24
    6804:	30 e0       	ldi	r19, 0x00	; 0
    6806:	81 e0       	ldi	r24, 0x01	; 1
    6808:	90 e0       	ldi	r25, 0x00	; 0
    680a:	02 2e       	mov	r0, r18
    680c:	02 c0       	rjmp	.+4      	; 0x6812 <Dio_vidSetPinDirection+0x106>
    680e:	88 0f       	add	r24, r24
    6810:	99 1f       	adc	r25, r25
    6812:	0a 94       	dec	r0
    6814:	e2 f7       	brpl	.-8      	; 0x680e <Dio_vidSetPinDirection+0x102>
    6816:	80 95       	com	r24
    6818:	84 23       	and	r24, r20
    681a:	8c 93       	st	X, r24
    681c:	84 c0       	rjmp	.+264    	; 0x6926 <Dio_vidSetPinDirection+0x21a>
				case 4: CLEAR_BIT(DIO_DDRD_REG,Local_U8_Pin); break;
    681e:	a1 e3       	ldi	r26, 0x31	; 49
    6820:	b0 e0       	ldi	r27, 0x00	; 0
    6822:	e1 e3       	ldi	r30, 0x31	; 49
    6824:	f0 e0       	ldi	r31, 0x00	; 0
    6826:	80 81       	ld	r24, Z
    6828:	48 2f       	mov	r20, r24
    682a:	8a 81       	ldd	r24, Y+2	; 0x02
    682c:	28 2f       	mov	r18, r24
    682e:	30 e0       	ldi	r19, 0x00	; 0
    6830:	81 e0       	ldi	r24, 0x01	; 1
    6832:	90 e0       	ldi	r25, 0x00	; 0
    6834:	02 2e       	mov	r0, r18
    6836:	02 c0       	rjmp	.+4      	; 0x683c <Dio_vidSetPinDirection+0x130>
    6838:	88 0f       	add	r24, r24
    683a:	99 1f       	adc	r25, r25
    683c:	0a 94       	dec	r0
    683e:	e2 f7       	brpl	.-8      	; 0x6838 <Dio_vidSetPinDirection+0x12c>
    6840:	80 95       	com	r24
    6842:	84 23       	and	r24, r20
    6844:	8c 93       	st	X, r24
    6846:	6f c0       	rjmp	.+222    	; 0x6926 <Dio_vidSetPinDirection+0x21a>
				default:                                break;
				}
				break;
			case OUTPUT:
				switch(Local_U8_Port)
    6848:	89 81       	ldd	r24, Y+1	; 0x01
    684a:	28 2f       	mov	r18, r24
    684c:	30 e0       	ldi	r19, 0x00	; 0
    684e:	3e 83       	std	Y+6, r19	; 0x06
    6850:	2d 83       	std	Y+5, r18	; 0x05
    6852:	8d 81       	ldd	r24, Y+5	; 0x05
    6854:	9e 81       	ldd	r25, Y+6	; 0x06
    6856:	82 30       	cpi	r24, 0x02	; 2
    6858:	91 05       	cpc	r25, r1
    685a:	51 f1       	breq	.+84     	; 0x68b0 <Dio_vidSetPinDirection+0x1a4>
    685c:	2d 81       	ldd	r18, Y+5	; 0x05
    685e:	3e 81       	ldd	r19, Y+6	; 0x06
    6860:	23 30       	cpi	r18, 0x03	; 3
    6862:	31 05       	cpc	r19, r1
    6864:	34 f4       	brge	.+12     	; 0x6872 <Dio_vidSetPinDirection+0x166>
    6866:	8d 81       	ldd	r24, Y+5	; 0x05
    6868:	9e 81       	ldd	r25, Y+6	; 0x06
    686a:	81 30       	cpi	r24, 0x01	; 1
    686c:	91 05       	cpc	r25, r1
    686e:	61 f0       	breq	.+24     	; 0x6888 <Dio_vidSetPinDirection+0x17c>
    6870:	5a c0       	rjmp	.+180    	; 0x6926 <Dio_vidSetPinDirection+0x21a>
    6872:	2d 81       	ldd	r18, Y+5	; 0x05
    6874:	3e 81       	ldd	r19, Y+6	; 0x06
    6876:	23 30       	cpi	r18, 0x03	; 3
    6878:	31 05       	cpc	r19, r1
    687a:	71 f1       	breq	.+92     	; 0x68d8 <Dio_vidSetPinDirection+0x1cc>
    687c:	8d 81       	ldd	r24, Y+5	; 0x05
    687e:	9e 81       	ldd	r25, Y+6	; 0x06
    6880:	84 30       	cpi	r24, 0x04	; 4
    6882:	91 05       	cpc	r25, r1
    6884:	e9 f1       	breq	.+122    	; 0x6900 <Dio_vidSetPinDirection+0x1f4>
    6886:	4f c0       	rjmp	.+158    	; 0x6926 <Dio_vidSetPinDirection+0x21a>
				{
				case 1: SET_BIT(DIO_DDRA_REG,Local_U8_Pin); break;
    6888:	aa e3       	ldi	r26, 0x3A	; 58
    688a:	b0 e0       	ldi	r27, 0x00	; 0
    688c:	ea e3       	ldi	r30, 0x3A	; 58
    688e:	f0 e0       	ldi	r31, 0x00	; 0
    6890:	80 81       	ld	r24, Z
    6892:	48 2f       	mov	r20, r24
    6894:	8a 81       	ldd	r24, Y+2	; 0x02
    6896:	28 2f       	mov	r18, r24
    6898:	30 e0       	ldi	r19, 0x00	; 0
    689a:	81 e0       	ldi	r24, 0x01	; 1
    689c:	90 e0       	ldi	r25, 0x00	; 0
    689e:	02 2e       	mov	r0, r18
    68a0:	02 c0       	rjmp	.+4      	; 0x68a6 <Dio_vidSetPinDirection+0x19a>
    68a2:	88 0f       	add	r24, r24
    68a4:	99 1f       	adc	r25, r25
    68a6:	0a 94       	dec	r0
    68a8:	e2 f7       	brpl	.-8      	; 0x68a2 <Dio_vidSetPinDirection+0x196>
    68aa:	84 2b       	or	r24, r20
    68ac:	8c 93       	st	X, r24
    68ae:	3b c0       	rjmp	.+118    	; 0x6926 <Dio_vidSetPinDirection+0x21a>
				case 2: SET_BIT(DIO_DDRB_REG,Local_U8_Pin); break;
    68b0:	a7 e3       	ldi	r26, 0x37	; 55
    68b2:	b0 e0       	ldi	r27, 0x00	; 0
    68b4:	e7 e3       	ldi	r30, 0x37	; 55
    68b6:	f0 e0       	ldi	r31, 0x00	; 0
    68b8:	80 81       	ld	r24, Z
    68ba:	48 2f       	mov	r20, r24
    68bc:	8a 81       	ldd	r24, Y+2	; 0x02
    68be:	28 2f       	mov	r18, r24
    68c0:	30 e0       	ldi	r19, 0x00	; 0
    68c2:	81 e0       	ldi	r24, 0x01	; 1
    68c4:	90 e0       	ldi	r25, 0x00	; 0
    68c6:	02 2e       	mov	r0, r18
    68c8:	02 c0       	rjmp	.+4      	; 0x68ce <Dio_vidSetPinDirection+0x1c2>
    68ca:	88 0f       	add	r24, r24
    68cc:	99 1f       	adc	r25, r25
    68ce:	0a 94       	dec	r0
    68d0:	e2 f7       	brpl	.-8      	; 0x68ca <Dio_vidSetPinDirection+0x1be>
    68d2:	84 2b       	or	r24, r20
    68d4:	8c 93       	st	X, r24
    68d6:	27 c0       	rjmp	.+78     	; 0x6926 <Dio_vidSetPinDirection+0x21a>
				case 3: SET_BIT(DIO_DDRC_REG,Local_U8_Pin); break;
    68d8:	a4 e3       	ldi	r26, 0x34	; 52
    68da:	b0 e0       	ldi	r27, 0x00	; 0
    68dc:	e4 e3       	ldi	r30, 0x34	; 52
    68de:	f0 e0       	ldi	r31, 0x00	; 0
    68e0:	80 81       	ld	r24, Z
    68e2:	48 2f       	mov	r20, r24
    68e4:	8a 81       	ldd	r24, Y+2	; 0x02
    68e6:	28 2f       	mov	r18, r24
    68e8:	30 e0       	ldi	r19, 0x00	; 0
    68ea:	81 e0       	ldi	r24, 0x01	; 1
    68ec:	90 e0       	ldi	r25, 0x00	; 0
    68ee:	02 2e       	mov	r0, r18
    68f0:	02 c0       	rjmp	.+4      	; 0x68f6 <Dio_vidSetPinDirection+0x1ea>
    68f2:	88 0f       	add	r24, r24
    68f4:	99 1f       	adc	r25, r25
    68f6:	0a 94       	dec	r0
    68f8:	e2 f7       	brpl	.-8      	; 0x68f2 <Dio_vidSetPinDirection+0x1e6>
    68fa:	84 2b       	or	r24, r20
    68fc:	8c 93       	st	X, r24
    68fe:	13 c0       	rjmp	.+38     	; 0x6926 <Dio_vidSetPinDirection+0x21a>
				case 4: SET_BIT(DIO_DDRD_REG,Local_U8_Pin); break;
    6900:	a1 e3       	ldi	r26, 0x31	; 49
    6902:	b0 e0       	ldi	r27, 0x00	; 0
    6904:	e1 e3       	ldi	r30, 0x31	; 49
    6906:	f0 e0       	ldi	r31, 0x00	; 0
    6908:	80 81       	ld	r24, Z
    690a:	48 2f       	mov	r20, r24
    690c:	8a 81       	ldd	r24, Y+2	; 0x02
    690e:	28 2f       	mov	r18, r24
    6910:	30 e0       	ldi	r19, 0x00	; 0
    6912:	81 e0       	ldi	r24, 0x01	; 1
    6914:	90 e0       	ldi	r25, 0x00	; 0
    6916:	02 2e       	mov	r0, r18
    6918:	02 c0       	rjmp	.+4      	; 0x691e <Dio_vidSetPinDirection+0x212>
    691a:	88 0f       	add	r24, r24
    691c:	99 1f       	adc	r25, r25
    691e:	0a 94       	dec	r0
    6920:	e2 f7       	brpl	.-8      	; 0x691a <Dio_vidSetPinDirection+0x20e>
    6922:	84 2b       	or	r24, r20
    6924:	8c 93       	st	X, r24
				default:                                break;
				}
				break;
				default:                                break;
			}
}
    6926:	2a 96       	adiw	r28, 0x0a	; 10
    6928:	0f b6       	in	r0, 0x3f	; 63
    692a:	f8 94       	cli
    692c:	de bf       	out	0x3e, r29	; 62
    692e:	0f be       	out	0x3f, r0	; 63
    6930:	cd bf       	out	0x3d, r28	; 61
    6932:	cf 91       	pop	r28
    6934:	df 91       	pop	r29
    6936:	08 95       	ret

00006938 <Dio_vidSetPinValue>:

void Dio_vidSetPinValue(u8 Copy_U8_Num ,u8 Copy_U8_State)
{
    6938:	df 93       	push	r29
    693a:	cf 93       	push	r28
    693c:	cd b7       	in	r28, 0x3d	; 61
    693e:	de b7       	in	r29, 0x3e	; 62
    6940:	2a 97       	sbiw	r28, 0x0a	; 10
    6942:	0f b6       	in	r0, 0x3f	; 63
    6944:	f8 94       	cli
    6946:	de bf       	out	0x3e, r29	; 62
    6948:	0f be       	out	0x3f, r0	; 63
    694a:	cd bf       	out	0x3d, r28	; 61
    694c:	8b 83       	std	Y+3, r24	; 0x03
    694e:	6c 83       	std	Y+4, r22	; 0x04
	u8 Local_U8_Pin  = Copy_U8_Num % 10;
    6950:	8b 81       	ldd	r24, Y+3	; 0x03
    6952:	9a e0       	ldi	r25, 0x0A	; 10
    6954:	69 2f       	mov	r22, r25
    6956:	0e 94 54 37 	call	0x6ea8	; 0x6ea8 <__udivmodqi4>
    695a:	89 2f       	mov	r24, r25
    695c:	8a 83       	std	Y+2, r24	; 0x02
	u8 Local_U8_Port = Copy_U8_Num / 10;
    695e:	8b 81       	ldd	r24, Y+3	; 0x03
    6960:	9a e0       	ldi	r25, 0x0A	; 10
    6962:	69 2f       	mov	r22, r25
    6964:	0e 94 54 37 	call	0x6ea8	; 0x6ea8 <__udivmodqi4>
    6968:	89 83       	std	Y+1, r24	; 0x01
			switch(Copy_U8_State)
    696a:	8c 81       	ldd	r24, Y+4	; 0x04
    696c:	28 2f       	mov	r18, r24
    696e:	30 e0       	ldi	r19, 0x00	; 0
    6970:	3a 87       	std	Y+10, r19	; 0x0a
    6972:	29 87       	std	Y+9, r18	; 0x09
    6974:	89 85       	ldd	r24, Y+9	; 0x09
    6976:	9a 85       	ldd	r25, Y+10	; 0x0a
    6978:	00 97       	sbiw	r24, 0x00	; 0
    697a:	39 f0       	breq	.+14     	; 0x698a <Dio_vidSetPinValue+0x52>
    697c:	29 85       	ldd	r18, Y+9	; 0x09
    697e:	3a 85       	ldd	r19, Y+10	; 0x0a
    6980:	21 30       	cpi	r18, 0x01	; 1
    6982:	31 05       	cpc	r19, r1
    6984:	09 f4       	brne	.+2      	; 0x6988 <Dio_vidSetPinValue+0x50>
    6986:	76 c0       	rjmp	.+236    	; 0x6a74 <Dio_vidSetPinValue+0x13c>
    6988:	e4 c0       	rjmp	.+456    	; 0x6b52 <Dio_vidSetPinValue+0x21a>
			{
			case LOW :
				switch(Local_U8_Port)
    698a:	89 81       	ldd	r24, Y+1	; 0x01
    698c:	28 2f       	mov	r18, r24
    698e:	30 e0       	ldi	r19, 0x00	; 0
    6990:	38 87       	std	Y+8, r19	; 0x08
    6992:	2f 83       	std	Y+7, r18	; 0x07
    6994:	8f 81       	ldd	r24, Y+7	; 0x07
    6996:	98 85       	ldd	r25, Y+8	; 0x08
    6998:	82 30       	cpi	r24, 0x02	; 2
    699a:	91 05       	cpc	r25, r1
    699c:	61 f1       	breq	.+88     	; 0x69f6 <Dio_vidSetPinValue+0xbe>
    699e:	2f 81       	ldd	r18, Y+7	; 0x07
    69a0:	38 85       	ldd	r19, Y+8	; 0x08
    69a2:	23 30       	cpi	r18, 0x03	; 3
    69a4:	31 05       	cpc	r19, r1
    69a6:	34 f4       	brge	.+12     	; 0x69b4 <Dio_vidSetPinValue+0x7c>
    69a8:	8f 81       	ldd	r24, Y+7	; 0x07
    69aa:	98 85       	ldd	r25, Y+8	; 0x08
    69ac:	81 30       	cpi	r24, 0x01	; 1
    69ae:	91 05       	cpc	r25, r1
    69b0:	69 f0       	breq	.+26     	; 0x69cc <Dio_vidSetPinValue+0x94>
    69b2:	cf c0       	rjmp	.+414    	; 0x6b52 <Dio_vidSetPinValue+0x21a>
    69b4:	2f 81       	ldd	r18, Y+7	; 0x07
    69b6:	38 85       	ldd	r19, Y+8	; 0x08
    69b8:	23 30       	cpi	r18, 0x03	; 3
    69ba:	31 05       	cpc	r19, r1
    69bc:	89 f1       	breq	.+98     	; 0x6a20 <Dio_vidSetPinValue+0xe8>
    69be:	8f 81       	ldd	r24, Y+7	; 0x07
    69c0:	98 85       	ldd	r25, Y+8	; 0x08
    69c2:	84 30       	cpi	r24, 0x04	; 4
    69c4:	91 05       	cpc	r25, r1
    69c6:	09 f4       	brne	.+2      	; 0x69ca <Dio_vidSetPinValue+0x92>
    69c8:	40 c0       	rjmp	.+128    	; 0x6a4a <Dio_vidSetPinValue+0x112>
    69ca:	c3 c0       	rjmp	.+390    	; 0x6b52 <Dio_vidSetPinValue+0x21a>
				{
				case 1: CLEAR_BIT(DIO_PORTA_REG,Local_U8_Pin); break;
    69cc:	ab e3       	ldi	r26, 0x3B	; 59
    69ce:	b0 e0       	ldi	r27, 0x00	; 0
    69d0:	eb e3       	ldi	r30, 0x3B	; 59
    69d2:	f0 e0       	ldi	r31, 0x00	; 0
    69d4:	80 81       	ld	r24, Z
    69d6:	48 2f       	mov	r20, r24
    69d8:	8a 81       	ldd	r24, Y+2	; 0x02
    69da:	28 2f       	mov	r18, r24
    69dc:	30 e0       	ldi	r19, 0x00	; 0
    69de:	81 e0       	ldi	r24, 0x01	; 1
    69e0:	90 e0       	ldi	r25, 0x00	; 0
    69e2:	02 2e       	mov	r0, r18
    69e4:	02 c0       	rjmp	.+4      	; 0x69ea <Dio_vidSetPinValue+0xb2>
    69e6:	88 0f       	add	r24, r24
    69e8:	99 1f       	adc	r25, r25
    69ea:	0a 94       	dec	r0
    69ec:	e2 f7       	brpl	.-8      	; 0x69e6 <Dio_vidSetPinValue+0xae>
    69ee:	80 95       	com	r24
    69f0:	84 23       	and	r24, r20
    69f2:	8c 93       	st	X, r24
    69f4:	ae c0       	rjmp	.+348    	; 0x6b52 <Dio_vidSetPinValue+0x21a>
				case 2: CLEAR_BIT(DIO_PORTB_REG,Local_U8_Pin); break;
    69f6:	a8 e3       	ldi	r26, 0x38	; 56
    69f8:	b0 e0       	ldi	r27, 0x00	; 0
    69fa:	e8 e3       	ldi	r30, 0x38	; 56
    69fc:	f0 e0       	ldi	r31, 0x00	; 0
    69fe:	80 81       	ld	r24, Z
    6a00:	48 2f       	mov	r20, r24
    6a02:	8a 81       	ldd	r24, Y+2	; 0x02
    6a04:	28 2f       	mov	r18, r24
    6a06:	30 e0       	ldi	r19, 0x00	; 0
    6a08:	81 e0       	ldi	r24, 0x01	; 1
    6a0a:	90 e0       	ldi	r25, 0x00	; 0
    6a0c:	02 2e       	mov	r0, r18
    6a0e:	02 c0       	rjmp	.+4      	; 0x6a14 <Dio_vidSetPinValue+0xdc>
    6a10:	88 0f       	add	r24, r24
    6a12:	99 1f       	adc	r25, r25
    6a14:	0a 94       	dec	r0
    6a16:	e2 f7       	brpl	.-8      	; 0x6a10 <Dio_vidSetPinValue+0xd8>
    6a18:	80 95       	com	r24
    6a1a:	84 23       	and	r24, r20
    6a1c:	8c 93       	st	X, r24
    6a1e:	99 c0       	rjmp	.+306    	; 0x6b52 <Dio_vidSetPinValue+0x21a>
				case 3: CLEAR_BIT(DIO_PORTC_REG,Local_U8_Pin); break;
    6a20:	a5 e3       	ldi	r26, 0x35	; 53
    6a22:	b0 e0       	ldi	r27, 0x00	; 0
    6a24:	e5 e3       	ldi	r30, 0x35	; 53
    6a26:	f0 e0       	ldi	r31, 0x00	; 0
    6a28:	80 81       	ld	r24, Z
    6a2a:	48 2f       	mov	r20, r24
    6a2c:	8a 81       	ldd	r24, Y+2	; 0x02
    6a2e:	28 2f       	mov	r18, r24
    6a30:	30 e0       	ldi	r19, 0x00	; 0
    6a32:	81 e0       	ldi	r24, 0x01	; 1
    6a34:	90 e0       	ldi	r25, 0x00	; 0
    6a36:	02 2e       	mov	r0, r18
    6a38:	02 c0       	rjmp	.+4      	; 0x6a3e <Dio_vidSetPinValue+0x106>
    6a3a:	88 0f       	add	r24, r24
    6a3c:	99 1f       	adc	r25, r25
    6a3e:	0a 94       	dec	r0
    6a40:	e2 f7       	brpl	.-8      	; 0x6a3a <Dio_vidSetPinValue+0x102>
    6a42:	80 95       	com	r24
    6a44:	84 23       	and	r24, r20
    6a46:	8c 93       	st	X, r24
    6a48:	84 c0       	rjmp	.+264    	; 0x6b52 <Dio_vidSetPinValue+0x21a>
				case 4: CLEAR_BIT(DIO_PORTD_REG,Local_U8_Pin); break;
    6a4a:	a2 e3       	ldi	r26, 0x32	; 50
    6a4c:	b0 e0       	ldi	r27, 0x00	; 0
    6a4e:	e2 e3       	ldi	r30, 0x32	; 50
    6a50:	f0 e0       	ldi	r31, 0x00	; 0
    6a52:	80 81       	ld	r24, Z
    6a54:	48 2f       	mov	r20, r24
    6a56:	8a 81       	ldd	r24, Y+2	; 0x02
    6a58:	28 2f       	mov	r18, r24
    6a5a:	30 e0       	ldi	r19, 0x00	; 0
    6a5c:	81 e0       	ldi	r24, 0x01	; 1
    6a5e:	90 e0       	ldi	r25, 0x00	; 0
    6a60:	02 2e       	mov	r0, r18
    6a62:	02 c0       	rjmp	.+4      	; 0x6a68 <Dio_vidSetPinValue+0x130>
    6a64:	88 0f       	add	r24, r24
    6a66:	99 1f       	adc	r25, r25
    6a68:	0a 94       	dec	r0
    6a6a:	e2 f7       	brpl	.-8      	; 0x6a64 <Dio_vidSetPinValue+0x12c>
    6a6c:	80 95       	com	r24
    6a6e:	84 23       	and	r24, r20
    6a70:	8c 93       	st	X, r24
    6a72:	6f c0       	rjmp	.+222    	; 0x6b52 <Dio_vidSetPinValue+0x21a>
				default:                                 break;
				}
				break;
			case HIGH:
				switch(Local_U8_Port)
    6a74:	89 81       	ldd	r24, Y+1	; 0x01
    6a76:	28 2f       	mov	r18, r24
    6a78:	30 e0       	ldi	r19, 0x00	; 0
    6a7a:	3e 83       	std	Y+6, r19	; 0x06
    6a7c:	2d 83       	std	Y+5, r18	; 0x05
    6a7e:	8d 81       	ldd	r24, Y+5	; 0x05
    6a80:	9e 81       	ldd	r25, Y+6	; 0x06
    6a82:	82 30       	cpi	r24, 0x02	; 2
    6a84:	91 05       	cpc	r25, r1
    6a86:	51 f1       	breq	.+84     	; 0x6adc <Dio_vidSetPinValue+0x1a4>
    6a88:	2d 81       	ldd	r18, Y+5	; 0x05
    6a8a:	3e 81       	ldd	r19, Y+6	; 0x06
    6a8c:	23 30       	cpi	r18, 0x03	; 3
    6a8e:	31 05       	cpc	r19, r1
    6a90:	34 f4       	brge	.+12     	; 0x6a9e <Dio_vidSetPinValue+0x166>
    6a92:	8d 81       	ldd	r24, Y+5	; 0x05
    6a94:	9e 81       	ldd	r25, Y+6	; 0x06
    6a96:	81 30       	cpi	r24, 0x01	; 1
    6a98:	91 05       	cpc	r25, r1
    6a9a:	61 f0       	breq	.+24     	; 0x6ab4 <Dio_vidSetPinValue+0x17c>
    6a9c:	5a c0       	rjmp	.+180    	; 0x6b52 <Dio_vidSetPinValue+0x21a>
    6a9e:	2d 81       	ldd	r18, Y+5	; 0x05
    6aa0:	3e 81       	ldd	r19, Y+6	; 0x06
    6aa2:	23 30       	cpi	r18, 0x03	; 3
    6aa4:	31 05       	cpc	r19, r1
    6aa6:	71 f1       	breq	.+92     	; 0x6b04 <Dio_vidSetPinValue+0x1cc>
    6aa8:	8d 81       	ldd	r24, Y+5	; 0x05
    6aaa:	9e 81       	ldd	r25, Y+6	; 0x06
    6aac:	84 30       	cpi	r24, 0x04	; 4
    6aae:	91 05       	cpc	r25, r1
    6ab0:	e9 f1       	breq	.+122    	; 0x6b2c <Dio_vidSetPinValue+0x1f4>
    6ab2:	4f c0       	rjmp	.+158    	; 0x6b52 <Dio_vidSetPinValue+0x21a>
				{
				case 1: SET_BIT(DIO_PORTA_REG,Local_U8_Pin); break;
    6ab4:	ab e3       	ldi	r26, 0x3B	; 59
    6ab6:	b0 e0       	ldi	r27, 0x00	; 0
    6ab8:	eb e3       	ldi	r30, 0x3B	; 59
    6aba:	f0 e0       	ldi	r31, 0x00	; 0
    6abc:	80 81       	ld	r24, Z
    6abe:	48 2f       	mov	r20, r24
    6ac0:	8a 81       	ldd	r24, Y+2	; 0x02
    6ac2:	28 2f       	mov	r18, r24
    6ac4:	30 e0       	ldi	r19, 0x00	; 0
    6ac6:	81 e0       	ldi	r24, 0x01	; 1
    6ac8:	90 e0       	ldi	r25, 0x00	; 0
    6aca:	02 2e       	mov	r0, r18
    6acc:	02 c0       	rjmp	.+4      	; 0x6ad2 <Dio_vidSetPinValue+0x19a>
    6ace:	88 0f       	add	r24, r24
    6ad0:	99 1f       	adc	r25, r25
    6ad2:	0a 94       	dec	r0
    6ad4:	e2 f7       	brpl	.-8      	; 0x6ace <Dio_vidSetPinValue+0x196>
    6ad6:	84 2b       	or	r24, r20
    6ad8:	8c 93       	st	X, r24
    6ada:	3b c0       	rjmp	.+118    	; 0x6b52 <Dio_vidSetPinValue+0x21a>
				case 2: SET_BIT(DIO_PORTB_REG,Local_U8_Pin); break;
    6adc:	a8 e3       	ldi	r26, 0x38	; 56
    6ade:	b0 e0       	ldi	r27, 0x00	; 0
    6ae0:	e8 e3       	ldi	r30, 0x38	; 56
    6ae2:	f0 e0       	ldi	r31, 0x00	; 0
    6ae4:	80 81       	ld	r24, Z
    6ae6:	48 2f       	mov	r20, r24
    6ae8:	8a 81       	ldd	r24, Y+2	; 0x02
    6aea:	28 2f       	mov	r18, r24
    6aec:	30 e0       	ldi	r19, 0x00	; 0
    6aee:	81 e0       	ldi	r24, 0x01	; 1
    6af0:	90 e0       	ldi	r25, 0x00	; 0
    6af2:	02 2e       	mov	r0, r18
    6af4:	02 c0       	rjmp	.+4      	; 0x6afa <Dio_vidSetPinValue+0x1c2>
    6af6:	88 0f       	add	r24, r24
    6af8:	99 1f       	adc	r25, r25
    6afa:	0a 94       	dec	r0
    6afc:	e2 f7       	brpl	.-8      	; 0x6af6 <Dio_vidSetPinValue+0x1be>
    6afe:	84 2b       	or	r24, r20
    6b00:	8c 93       	st	X, r24
    6b02:	27 c0       	rjmp	.+78     	; 0x6b52 <Dio_vidSetPinValue+0x21a>
				case 3: SET_BIT(DIO_PORTC_REG,Local_U8_Pin); break;
    6b04:	a5 e3       	ldi	r26, 0x35	; 53
    6b06:	b0 e0       	ldi	r27, 0x00	; 0
    6b08:	e5 e3       	ldi	r30, 0x35	; 53
    6b0a:	f0 e0       	ldi	r31, 0x00	; 0
    6b0c:	80 81       	ld	r24, Z
    6b0e:	48 2f       	mov	r20, r24
    6b10:	8a 81       	ldd	r24, Y+2	; 0x02
    6b12:	28 2f       	mov	r18, r24
    6b14:	30 e0       	ldi	r19, 0x00	; 0
    6b16:	81 e0       	ldi	r24, 0x01	; 1
    6b18:	90 e0       	ldi	r25, 0x00	; 0
    6b1a:	02 2e       	mov	r0, r18
    6b1c:	02 c0       	rjmp	.+4      	; 0x6b22 <Dio_vidSetPinValue+0x1ea>
    6b1e:	88 0f       	add	r24, r24
    6b20:	99 1f       	adc	r25, r25
    6b22:	0a 94       	dec	r0
    6b24:	e2 f7       	brpl	.-8      	; 0x6b1e <Dio_vidSetPinValue+0x1e6>
    6b26:	84 2b       	or	r24, r20
    6b28:	8c 93       	st	X, r24
    6b2a:	13 c0       	rjmp	.+38     	; 0x6b52 <Dio_vidSetPinValue+0x21a>
				case 4: SET_BIT(DIO_PORTD_REG,Local_U8_Pin); break;
    6b2c:	a2 e3       	ldi	r26, 0x32	; 50
    6b2e:	b0 e0       	ldi	r27, 0x00	; 0
    6b30:	e2 e3       	ldi	r30, 0x32	; 50
    6b32:	f0 e0       	ldi	r31, 0x00	; 0
    6b34:	80 81       	ld	r24, Z
    6b36:	48 2f       	mov	r20, r24
    6b38:	8a 81       	ldd	r24, Y+2	; 0x02
    6b3a:	28 2f       	mov	r18, r24
    6b3c:	30 e0       	ldi	r19, 0x00	; 0
    6b3e:	81 e0       	ldi	r24, 0x01	; 1
    6b40:	90 e0       	ldi	r25, 0x00	; 0
    6b42:	02 2e       	mov	r0, r18
    6b44:	02 c0       	rjmp	.+4      	; 0x6b4a <Dio_vidSetPinValue+0x212>
    6b46:	88 0f       	add	r24, r24
    6b48:	99 1f       	adc	r25, r25
    6b4a:	0a 94       	dec	r0
    6b4c:	e2 f7       	brpl	.-8      	; 0x6b46 <Dio_vidSetPinValue+0x20e>
    6b4e:	84 2b       	or	r24, r20
    6b50:	8c 93       	st	X, r24
				default:                                 break;
				}
				break;
				default:                                 break;
			}
}
    6b52:	2a 96       	adiw	r28, 0x0a	; 10
    6b54:	0f b6       	in	r0, 0x3f	; 63
    6b56:	f8 94       	cli
    6b58:	de bf       	out	0x3e, r29	; 62
    6b5a:	0f be       	out	0x3f, r0	; 63
    6b5c:	cd bf       	out	0x3d, r28	; 61
    6b5e:	cf 91       	pop	r28
    6b60:	df 91       	pop	r29
    6b62:	08 95       	ret

00006b64 <Dio_vidSetPinPullUpRes>:

void Dio_vidSetPinPullUpRes(u8 Copy_U8_Num,u8 Copy_U8_State)
{
    6b64:	df 93       	push	r29
    6b66:	cf 93       	push	r28
    6b68:	cd b7       	in	r28, 0x3d	; 61
    6b6a:	de b7       	in	r29, 0x3e	; 62
    6b6c:	2a 97       	sbiw	r28, 0x0a	; 10
    6b6e:	0f b6       	in	r0, 0x3f	; 63
    6b70:	f8 94       	cli
    6b72:	de bf       	out	0x3e, r29	; 62
    6b74:	0f be       	out	0x3f, r0	; 63
    6b76:	cd bf       	out	0x3d, r28	; 61
    6b78:	8b 83       	std	Y+3, r24	; 0x03
    6b7a:	6c 83       	std	Y+4, r22	; 0x04
	u8 Local_U8_Pin  = Copy_U8_Num % 10;
    6b7c:	8b 81       	ldd	r24, Y+3	; 0x03
    6b7e:	9a e0       	ldi	r25, 0x0A	; 10
    6b80:	69 2f       	mov	r22, r25
    6b82:	0e 94 54 37 	call	0x6ea8	; 0x6ea8 <__udivmodqi4>
    6b86:	89 2f       	mov	r24, r25
    6b88:	8a 83       	std	Y+2, r24	; 0x02
	u8 Local_U8_Port = Copy_U8_Num / 10;
    6b8a:	8b 81       	ldd	r24, Y+3	; 0x03
    6b8c:	9a e0       	ldi	r25, 0x0A	; 10
    6b8e:	69 2f       	mov	r22, r25
    6b90:	0e 94 54 37 	call	0x6ea8	; 0x6ea8 <__udivmodqi4>
    6b94:	89 83       	std	Y+1, r24	; 0x01
			switch(Copy_U8_State)
    6b96:	8c 81       	ldd	r24, Y+4	; 0x04
    6b98:	28 2f       	mov	r18, r24
    6b9a:	30 e0       	ldi	r19, 0x00	; 0
    6b9c:	3a 87       	std	Y+10, r19	; 0x0a
    6b9e:	29 87       	std	Y+9, r18	; 0x09
    6ba0:	89 85       	ldd	r24, Y+9	; 0x09
    6ba2:	9a 85       	ldd	r25, Y+10	; 0x0a
    6ba4:	00 97       	sbiw	r24, 0x00	; 0
    6ba6:	39 f0       	breq	.+14     	; 0x6bb6 <Dio_vidSetPinPullUpRes+0x52>
    6ba8:	29 85       	ldd	r18, Y+9	; 0x09
    6baa:	3a 85       	ldd	r19, Y+10	; 0x0a
    6bac:	21 30       	cpi	r18, 0x01	; 1
    6bae:	31 05       	cpc	r19, r1
    6bb0:	09 f4       	brne	.+2      	; 0x6bb4 <Dio_vidSetPinPullUpRes+0x50>
    6bb2:	76 c0       	rjmp	.+236    	; 0x6ca0 <Dio_vidSetPinPullUpRes+0x13c>
    6bb4:	e4 c0       	rjmp	.+456    	; 0x6d7e <Dio_vidSetPinPullUpRes+0x21a>
			{
			case DISABLE :
				switch(Local_U8_Port)
    6bb6:	89 81       	ldd	r24, Y+1	; 0x01
    6bb8:	28 2f       	mov	r18, r24
    6bba:	30 e0       	ldi	r19, 0x00	; 0
    6bbc:	38 87       	std	Y+8, r19	; 0x08
    6bbe:	2f 83       	std	Y+7, r18	; 0x07
    6bc0:	8f 81       	ldd	r24, Y+7	; 0x07
    6bc2:	98 85       	ldd	r25, Y+8	; 0x08
    6bc4:	82 30       	cpi	r24, 0x02	; 2
    6bc6:	91 05       	cpc	r25, r1
    6bc8:	61 f1       	breq	.+88     	; 0x6c22 <Dio_vidSetPinPullUpRes+0xbe>
    6bca:	2f 81       	ldd	r18, Y+7	; 0x07
    6bcc:	38 85       	ldd	r19, Y+8	; 0x08
    6bce:	23 30       	cpi	r18, 0x03	; 3
    6bd0:	31 05       	cpc	r19, r1
    6bd2:	34 f4       	brge	.+12     	; 0x6be0 <Dio_vidSetPinPullUpRes+0x7c>
    6bd4:	8f 81       	ldd	r24, Y+7	; 0x07
    6bd6:	98 85       	ldd	r25, Y+8	; 0x08
    6bd8:	81 30       	cpi	r24, 0x01	; 1
    6bda:	91 05       	cpc	r25, r1
    6bdc:	69 f0       	breq	.+26     	; 0x6bf8 <Dio_vidSetPinPullUpRes+0x94>
    6bde:	cf c0       	rjmp	.+414    	; 0x6d7e <Dio_vidSetPinPullUpRes+0x21a>
    6be0:	2f 81       	ldd	r18, Y+7	; 0x07
    6be2:	38 85       	ldd	r19, Y+8	; 0x08
    6be4:	23 30       	cpi	r18, 0x03	; 3
    6be6:	31 05       	cpc	r19, r1
    6be8:	89 f1       	breq	.+98     	; 0x6c4c <Dio_vidSetPinPullUpRes+0xe8>
    6bea:	8f 81       	ldd	r24, Y+7	; 0x07
    6bec:	98 85       	ldd	r25, Y+8	; 0x08
    6bee:	84 30       	cpi	r24, 0x04	; 4
    6bf0:	91 05       	cpc	r25, r1
    6bf2:	09 f4       	brne	.+2      	; 0x6bf6 <Dio_vidSetPinPullUpRes+0x92>
    6bf4:	40 c0       	rjmp	.+128    	; 0x6c76 <Dio_vidSetPinPullUpRes+0x112>
    6bf6:	c3 c0       	rjmp	.+390    	; 0x6d7e <Dio_vidSetPinPullUpRes+0x21a>
				{
				case 1: CLEAR_BIT(DIO_PORTA_REG,Local_U8_Pin); break;
    6bf8:	ab e3       	ldi	r26, 0x3B	; 59
    6bfa:	b0 e0       	ldi	r27, 0x00	; 0
    6bfc:	eb e3       	ldi	r30, 0x3B	; 59
    6bfe:	f0 e0       	ldi	r31, 0x00	; 0
    6c00:	80 81       	ld	r24, Z
    6c02:	48 2f       	mov	r20, r24
    6c04:	8a 81       	ldd	r24, Y+2	; 0x02
    6c06:	28 2f       	mov	r18, r24
    6c08:	30 e0       	ldi	r19, 0x00	; 0
    6c0a:	81 e0       	ldi	r24, 0x01	; 1
    6c0c:	90 e0       	ldi	r25, 0x00	; 0
    6c0e:	02 2e       	mov	r0, r18
    6c10:	02 c0       	rjmp	.+4      	; 0x6c16 <Dio_vidSetPinPullUpRes+0xb2>
    6c12:	88 0f       	add	r24, r24
    6c14:	99 1f       	adc	r25, r25
    6c16:	0a 94       	dec	r0
    6c18:	e2 f7       	brpl	.-8      	; 0x6c12 <Dio_vidSetPinPullUpRes+0xae>
    6c1a:	80 95       	com	r24
    6c1c:	84 23       	and	r24, r20
    6c1e:	8c 93       	st	X, r24
    6c20:	ae c0       	rjmp	.+348    	; 0x6d7e <Dio_vidSetPinPullUpRes+0x21a>
				case 2: CLEAR_BIT(DIO_PORTB_REG,Local_U8_Pin); break;
    6c22:	a8 e3       	ldi	r26, 0x38	; 56
    6c24:	b0 e0       	ldi	r27, 0x00	; 0
    6c26:	e8 e3       	ldi	r30, 0x38	; 56
    6c28:	f0 e0       	ldi	r31, 0x00	; 0
    6c2a:	80 81       	ld	r24, Z
    6c2c:	48 2f       	mov	r20, r24
    6c2e:	8a 81       	ldd	r24, Y+2	; 0x02
    6c30:	28 2f       	mov	r18, r24
    6c32:	30 e0       	ldi	r19, 0x00	; 0
    6c34:	81 e0       	ldi	r24, 0x01	; 1
    6c36:	90 e0       	ldi	r25, 0x00	; 0
    6c38:	02 2e       	mov	r0, r18
    6c3a:	02 c0       	rjmp	.+4      	; 0x6c40 <Dio_vidSetPinPullUpRes+0xdc>
    6c3c:	88 0f       	add	r24, r24
    6c3e:	99 1f       	adc	r25, r25
    6c40:	0a 94       	dec	r0
    6c42:	e2 f7       	brpl	.-8      	; 0x6c3c <Dio_vidSetPinPullUpRes+0xd8>
    6c44:	80 95       	com	r24
    6c46:	84 23       	and	r24, r20
    6c48:	8c 93       	st	X, r24
    6c4a:	99 c0       	rjmp	.+306    	; 0x6d7e <Dio_vidSetPinPullUpRes+0x21a>
				case 3: CLEAR_BIT(DIO_PORTC_REG,Local_U8_Pin); break;
    6c4c:	a5 e3       	ldi	r26, 0x35	; 53
    6c4e:	b0 e0       	ldi	r27, 0x00	; 0
    6c50:	e5 e3       	ldi	r30, 0x35	; 53
    6c52:	f0 e0       	ldi	r31, 0x00	; 0
    6c54:	80 81       	ld	r24, Z
    6c56:	48 2f       	mov	r20, r24
    6c58:	8a 81       	ldd	r24, Y+2	; 0x02
    6c5a:	28 2f       	mov	r18, r24
    6c5c:	30 e0       	ldi	r19, 0x00	; 0
    6c5e:	81 e0       	ldi	r24, 0x01	; 1
    6c60:	90 e0       	ldi	r25, 0x00	; 0
    6c62:	02 2e       	mov	r0, r18
    6c64:	02 c0       	rjmp	.+4      	; 0x6c6a <Dio_vidSetPinPullUpRes+0x106>
    6c66:	88 0f       	add	r24, r24
    6c68:	99 1f       	adc	r25, r25
    6c6a:	0a 94       	dec	r0
    6c6c:	e2 f7       	brpl	.-8      	; 0x6c66 <Dio_vidSetPinPullUpRes+0x102>
    6c6e:	80 95       	com	r24
    6c70:	84 23       	and	r24, r20
    6c72:	8c 93       	st	X, r24
    6c74:	84 c0       	rjmp	.+264    	; 0x6d7e <Dio_vidSetPinPullUpRes+0x21a>
				case 4: CLEAR_BIT(DIO_PORTD_REG,Local_U8_Pin); break;
    6c76:	a2 e3       	ldi	r26, 0x32	; 50
    6c78:	b0 e0       	ldi	r27, 0x00	; 0
    6c7a:	e2 e3       	ldi	r30, 0x32	; 50
    6c7c:	f0 e0       	ldi	r31, 0x00	; 0
    6c7e:	80 81       	ld	r24, Z
    6c80:	48 2f       	mov	r20, r24
    6c82:	8a 81       	ldd	r24, Y+2	; 0x02
    6c84:	28 2f       	mov	r18, r24
    6c86:	30 e0       	ldi	r19, 0x00	; 0
    6c88:	81 e0       	ldi	r24, 0x01	; 1
    6c8a:	90 e0       	ldi	r25, 0x00	; 0
    6c8c:	02 2e       	mov	r0, r18
    6c8e:	02 c0       	rjmp	.+4      	; 0x6c94 <Dio_vidSetPinPullUpRes+0x130>
    6c90:	88 0f       	add	r24, r24
    6c92:	99 1f       	adc	r25, r25
    6c94:	0a 94       	dec	r0
    6c96:	e2 f7       	brpl	.-8      	; 0x6c90 <Dio_vidSetPinPullUpRes+0x12c>
    6c98:	80 95       	com	r24
    6c9a:	84 23       	and	r24, r20
    6c9c:	8c 93       	st	X, r24
    6c9e:	6f c0       	rjmp	.+222    	; 0x6d7e <Dio_vidSetPinPullUpRes+0x21a>
				default:                                 break;
				}
				break;
			case ENABLE:
				switch(Local_U8_Port)
    6ca0:	89 81       	ldd	r24, Y+1	; 0x01
    6ca2:	28 2f       	mov	r18, r24
    6ca4:	30 e0       	ldi	r19, 0x00	; 0
    6ca6:	3e 83       	std	Y+6, r19	; 0x06
    6ca8:	2d 83       	std	Y+5, r18	; 0x05
    6caa:	8d 81       	ldd	r24, Y+5	; 0x05
    6cac:	9e 81       	ldd	r25, Y+6	; 0x06
    6cae:	82 30       	cpi	r24, 0x02	; 2
    6cb0:	91 05       	cpc	r25, r1
    6cb2:	51 f1       	breq	.+84     	; 0x6d08 <Dio_vidSetPinPullUpRes+0x1a4>
    6cb4:	2d 81       	ldd	r18, Y+5	; 0x05
    6cb6:	3e 81       	ldd	r19, Y+6	; 0x06
    6cb8:	23 30       	cpi	r18, 0x03	; 3
    6cba:	31 05       	cpc	r19, r1
    6cbc:	34 f4       	brge	.+12     	; 0x6cca <Dio_vidSetPinPullUpRes+0x166>
    6cbe:	8d 81       	ldd	r24, Y+5	; 0x05
    6cc0:	9e 81       	ldd	r25, Y+6	; 0x06
    6cc2:	81 30       	cpi	r24, 0x01	; 1
    6cc4:	91 05       	cpc	r25, r1
    6cc6:	61 f0       	breq	.+24     	; 0x6ce0 <Dio_vidSetPinPullUpRes+0x17c>
    6cc8:	5a c0       	rjmp	.+180    	; 0x6d7e <Dio_vidSetPinPullUpRes+0x21a>
    6cca:	2d 81       	ldd	r18, Y+5	; 0x05
    6ccc:	3e 81       	ldd	r19, Y+6	; 0x06
    6cce:	23 30       	cpi	r18, 0x03	; 3
    6cd0:	31 05       	cpc	r19, r1
    6cd2:	71 f1       	breq	.+92     	; 0x6d30 <Dio_vidSetPinPullUpRes+0x1cc>
    6cd4:	8d 81       	ldd	r24, Y+5	; 0x05
    6cd6:	9e 81       	ldd	r25, Y+6	; 0x06
    6cd8:	84 30       	cpi	r24, 0x04	; 4
    6cda:	91 05       	cpc	r25, r1
    6cdc:	e9 f1       	breq	.+122    	; 0x6d58 <Dio_vidSetPinPullUpRes+0x1f4>
    6cde:	4f c0       	rjmp	.+158    	; 0x6d7e <Dio_vidSetPinPullUpRes+0x21a>
				{
				case 1: SET_BIT(DIO_PORTA_REG,Local_U8_Pin); break;
    6ce0:	ab e3       	ldi	r26, 0x3B	; 59
    6ce2:	b0 e0       	ldi	r27, 0x00	; 0
    6ce4:	eb e3       	ldi	r30, 0x3B	; 59
    6ce6:	f0 e0       	ldi	r31, 0x00	; 0
    6ce8:	80 81       	ld	r24, Z
    6cea:	48 2f       	mov	r20, r24
    6cec:	8a 81       	ldd	r24, Y+2	; 0x02
    6cee:	28 2f       	mov	r18, r24
    6cf0:	30 e0       	ldi	r19, 0x00	; 0
    6cf2:	81 e0       	ldi	r24, 0x01	; 1
    6cf4:	90 e0       	ldi	r25, 0x00	; 0
    6cf6:	02 2e       	mov	r0, r18
    6cf8:	02 c0       	rjmp	.+4      	; 0x6cfe <Dio_vidSetPinPullUpRes+0x19a>
    6cfa:	88 0f       	add	r24, r24
    6cfc:	99 1f       	adc	r25, r25
    6cfe:	0a 94       	dec	r0
    6d00:	e2 f7       	brpl	.-8      	; 0x6cfa <Dio_vidSetPinPullUpRes+0x196>
    6d02:	84 2b       	or	r24, r20
    6d04:	8c 93       	st	X, r24
    6d06:	3b c0       	rjmp	.+118    	; 0x6d7e <Dio_vidSetPinPullUpRes+0x21a>
				case 2: SET_BIT(DIO_PORTB_REG,Local_U8_Pin); break;
    6d08:	a8 e3       	ldi	r26, 0x38	; 56
    6d0a:	b0 e0       	ldi	r27, 0x00	; 0
    6d0c:	e8 e3       	ldi	r30, 0x38	; 56
    6d0e:	f0 e0       	ldi	r31, 0x00	; 0
    6d10:	80 81       	ld	r24, Z
    6d12:	48 2f       	mov	r20, r24
    6d14:	8a 81       	ldd	r24, Y+2	; 0x02
    6d16:	28 2f       	mov	r18, r24
    6d18:	30 e0       	ldi	r19, 0x00	; 0
    6d1a:	81 e0       	ldi	r24, 0x01	; 1
    6d1c:	90 e0       	ldi	r25, 0x00	; 0
    6d1e:	02 2e       	mov	r0, r18
    6d20:	02 c0       	rjmp	.+4      	; 0x6d26 <Dio_vidSetPinPullUpRes+0x1c2>
    6d22:	88 0f       	add	r24, r24
    6d24:	99 1f       	adc	r25, r25
    6d26:	0a 94       	dec	r0
    6d28:	e2 f7       	brpl	.-8      	; 0x6d22 <Dio_vidSetPinPullUpRes+0x1be>
    6d2a:	84 2b       	or	r24, r20
    6d2c:	8c 93       	st	X, r24
    6d2e:	27 c0       	rjmp	.+78     	; 0x6d7e <Dio_vidSetPinPullUpRes+0x21a>
				case 3: SET_BIT(DIO_PORTC_REG,Local_U8_Pin); break;
    6d30:	a5 e3       	ldi	r26, 0x35	; 53
    6d32:	b0 e0       	ldi	r27, 0x00	; 0
    6d34:	e5 e3       	ldi	r30, 0x35	; 53
    6d36:	f0 e0       	ldi	r31, 0x00	; 0
    6d38:	80 81       	ld	r24, Z
    6d3a:	48 2f       	mov	r20, r24
    6d3c:	8a 81       	ldd	r24, Y+2	; 0x02
    6d3e:	28 2f       	mov	r18, r24
    6d40:	30 e0       	ldi	r19, 0x00	; 0
    6d42:	81 e0       	ldi	r24, 0x01	; 1
    6d44:	90 e0       	ldi	r25, 0x00	; 0
    6d46:	02 2e       	mov	r0, r18
    6d48:	02 c0       	rjmp	.+4      	; 0x6d4e <Dio_vidSetPinPullUpRes+0x1ea>
    6d4a:	88 0f       	add	r24, r24
    6d4c:	99 1f       	adc	r25, r25
    6d4e:	0a 94       	dec	r0
    6d50:	e2 f7       	brpl	.-8      	; 0x6d4a <Dio_vidSetPinPullUpRes+0x1e6>
    6d52:	84 2b       	or	r24, r20
    6d54:	8c 93       	st	X, r24
    6d56:	13 c0       	rjmp	.+38     	; 0x6d7e <Dio_vidSetPinPullUpRes+0x21a>
				case 4: SET_BIT(DIO_PORTD_REG,Local_U8_Pin); break;
    6d58:	a2 e3       	ldi	r26, 0x32	; 50
    6d5a:	b0 e0       	ldi	r27, 0x00	; 0
    6d5c:	e2 e3       	ldi	r30, 0x32	; 50
    6d5e:	f0 e0       	ldi	r31, 0x00	; 0
    6d60:	80 81       	ld	r24, Z
    6d62:	48 2f       	mov	r20, r24
    6d64:	8a 81       	ldd	r24, Y+2	; 0x02
    6d66:	28 2f       	mov	r18, r24
    6d68:	30 e0       	ldi	r19, 0x00	; 0
    6d6a:	81 e0       	ldi	r24, 0x01	; 1
    6d6c:	90 e0       	ldi	r25, 0x00	; 0
    6d6e:	02 2e       	mov	r0, r18
    6d70:	02 c0       	rjmp	.+4      	; 0x6d76 <Dio_vidSetPinPullUpRes+0x212>
    6d72:	88 0f       	add	r24, r24
    6d74:	99 1f       	adc	r25, r25
    6d76:	0a 94       	dec	r0
    6d78:	e2 f7       	brpl	.-8      	; 0x6d72 <Dio_vidSetPinPullUpRes+0x20e>
    6d7a:	84 2b       	or	r24, r20
    6d7c:	8c 93       	st	X, r24
				default:                                 break;
				}
				break;
				default:                                 break;
			}
}
    6d7e:	2a 96       	adiw	r28, 0x0a	; 10
    6d80:	0f b6       	in	r0, 0x3f	; 63
    6d82:	f8 94       	cli
    6d84:	de bf       	out	0x3e, r29	; 62
    6d86:	0f be       	out	0x3f, r0	; 63
    6d88:	cd bf       	out	0x3d, r28	; 61
    6d8a:	cf 91       	pop	r28
    6d8c:	df 91       	pop	r29
    6d8e:	08 95       	ret

00006d90 <Adc_vidInit>:
#include "Adc_Reg.h"
#include "Adc_Types.h"
#include "Bit_Math.h"

void Adc_vidInit(void)
{
    6d90:	df 93       	push	r29
    6d92:	cf 93       	push	r28
    6d94:	cd b7       	in	r28, 0x3d	; 61
    6d96:	de b7       	in	r29, 0x3e	; 62

	/*	Enable ADC	*/
	SET_BIT(ADC_ADCSRA_REG, 7);
    6d98:	a6 e2       	ldi	r26, 0x26	; 38
    6d9a:	b0 e0       	ldi	r27, 0x00	; 0
    6d9c:	e6 e2       	ldi	r30, 0x26	; 38
    6d9e:	f0 e0       	ldi	r31, 0x00	; 0
    6da0:	80 81       	ld	r24, Z
    6da2:	80 68       	ori	r24, 0x80	; 128
    6da4:	8c 93       	st	X, r24
	/*	Configure ADC prescaler	 /128	*/
	ADC_ADCSRA_REG |= 7 /*0000 0111*/;
    6da6:	a6 e2       	ldi	r26, 0x26	; 38
    6da8:	b0 e0       	ldi	r27, 0x00	; 0
    6daa:	e6 e2       	ldi	r30, 0x26	; 38
    6dac:	f0 e0       	ldi	r31, 0x00	; 0
    6dae:	80 81       	ld	r24, Z
    6db0:	87 60       	ori	r24, 0x07	; 7
    6db2:	8c 93       	st	X, r24
	/*	Select Vref +	AVCC	*/
	SET_BIT(ADC_ADMUX_REG,6);
    6db4:	a7 e2       	ldi	r26, 0x27	; 39
    6db6:	b0 e0       	ldi	r27, 0x00	; 0
    6db8:	e7 e2       	ldi	r30, 0x27	; 39
    6dba:	f0 e0       	ldi	r31, 0x00	; 0
    6dbc:	80 81       	ld	r24, Z
    6dbe:	80 64       	ori	r24, 0x40	; 64
    6dc0:	8c 93       	st	X, r24
}
    6dc2:	cf 91       	pop	r28
    6dc4:	df 91       	pop	r29
    6dc6:	08 95       	ret

00006dc8 <Adc_u16AdcRead>:

f64 Adc_u16AdcRead(adc_channlId_t channel)
{
    6dc8:	df 93       	push	r29
    6dca:	cf 93       	push	r28
    6dcc:	cd b7       	in	r28, 0x3d	; 61
    6dce:	de b7       	in	r29, 0x3e	; 62
    6dd0:	27 97       	sbiw	r28, 0x07	; 7
    6dd2:	0f b6       	in	r0, 0x3f	; 63
    6dd4:	f8 94       	cli
    6dd6:	de bf       	out	0x3e, r29	; 62
    6dd8:	0f be       	out	0x3f, r0	; 63
    6dda:	cd bf       	out	0x3d, r28	; 61
    6ddc:	8f 83       	std	Y+7, r24	; 0x07
	u16 loc_adcResult = 0;
    6dde:	1e 82       	std	Y+6, r1	; 0x06
    6de0:	1d 82       	std	Y+5, r1	; 0x05
	f64 loc_volt =0;
    6de2:	80 e0       	ldi	r24, 0x00	; 0
    6de4:	90 e0       	ldi	r25, 0x00	; 0
    6de6:	a0 e0       	ldi	r26, 0x00	; 0
    6de8:	b0 e0       	ldi	r27, 0x00	; 0
    6dea:	89 83       	std	Y+1, r24	; 0x01
    6dec:	9a 83       	std	Y+2, r25	; 0x02
    6dee:	ab 83       	std	Y+3, r26	; 0x03
    6df0:	bc 83       	std	Y+4, r27	; 0x04
	/*	select ADC channel	*/
	ADC_ADMUX_REG =  (ADC_ADMUX_REG & 0xF8)| channel;
    6df2:	a7 e2       	ldi	r26, 0x27	; 39
    6df4:	b0 e0       	ldi	r27, 0x00	; 0
    6df6:	e7 e2       	ldi	r30, 0x27	; 39
    6df8:	f0 e0       	ldi	r31, 0x00	; 0
    6dfa:	80 81       	ld	r24, Z
    6dfc:	98 2f       	mov	r25, r24
    6dfe:	98 7f       	andi	r25, 0xF8	; 248
    6e00:	8f 81       	ldd	r24, Y+7	; 0x07
    6e02:	89 2b       	or	r24, r25
    6e04:	8c 93       	st	X, r24
	/*	Start ADC conversion	*/
	SET_BIT(ADC_ADCSRA_REG,6);
    6e06:	a6 e2       	ldi	r26, 0x26	; 38
    6e08:	b0 e0       	ldi	r27, 0x00	; 0
    6e0a:	e6 e2       	ldi	r30, 0x26	; 38
    6e0c:	f0 e0       	ldi	r31, 0x00	; 0
    6e0e:	80 81       	ld	r24, Z
    6e10:	80 64       	ori	r24, 0x40	; 64
    6e12:	8c 93       	st	X, r24

	/*	wait until ADIF flag become 1 */
	while(CHECK_BIT(ADC_ADCSRA_REG,4) !=1)
    6e14:	e6 e2       	ldi	r30, 0x26	; 38
    6e16:	f0 e0       	ldi	r31, 0x00	; 0
    6e18:	80 81       	ld	r24, Z
    6e1a:	82 95       	swap	r24
    6e1c:	8f 70       	andi	r24, 0x0F	; 15
    6e1e:	88 2f       	mov	r24, r24
    6e20:	90 e0       	ldi	r25, 0x00	; 0
    6e22:	81 70       	andi	r24, 0x01	; 1
    6e24:	90 70       	andi	r25, 0x00	; 0
    6e26:	00 97       	sbiw	r24, 0x00	; 0
    6e28:	a9 f3       	breq	.-22     	; 0x6e14 <Adc_u16AdcRead+0x4c>
	{
		/*	Do Nothing	*/
	}

	/*	clear ADIF by writing 1 	*/
	SET_BIT(ADC_ADCSRA_REG,4);
    6e2a:	a6 e2       	ldi	r26, 0x26	; 38
    6e2c:	b0 e0       	ldi	r27, 0x00	; 0
    6e2e:	e6 e2       	ldi	r30, 0x26	; 38
    6e30:	f0 e0       	ldi	r31, 0x00	; 0
    6e32:	80 81       	ld	r24, Z
    6e34:	80 61       	ori	r24, 0x10	; 16
    6e36:	8c 93       	st	X, r24

	/*	read ADC result form ADCL, ADCH	*/
	loc_adcResult=(ADC_ADCL_REG|(ADC_ADCH_REG<<8));
    6e38:	e4 e2       	ldi	r30, 0x24	; 36
    6e3a:	f0 e0       	ldi	r31, 0x00	; 0
    6e3c:	80 81       	ld	r24, Z
    6e3e:	28 2f       	mov	r18, r24
    6e40:	30 e0       	ldi	r19, 0x00	; 0
    6e42:	e5 e2       	ldi	r30, 0x25	; 37
    6e44:	f0 e0       	ldi	r31, 0x00	; 0
    6e46:	80 81       	ld	r24, Z
    6e48:	88 2f       	mov	r24, r24
    6e4a:	90 e0       	ldi	r25, 0x00	; 0
    6e4c:	98 2f       	mov	r25, r24
    6e4e:	88 27       	eor	r24, r24
    6e50:	82 2b       	or	r24, r18
    6e52:	93 2b       	or	r25, r19
    6e54:	9e 83       	std	Y+6, r25	; 0x06
    6e56:	8d 83       	std	Y+5, r24	; 0x05

	loc_volt = loc_adcResult * ADC_STEP;
    6e58:	8d 81       	ldd	r24, Y+5	; 0x05
    6e5a:	9e 81       	ldd	r25, Y+6	; 0x06
    6e5c:	cc 01       	movw	r24, r24
    6e5e:	a0 e0       	ldi	r26, 0x00	; 0
    6e60:	b0 e0       	ldi	r27, 0x00	; 0
    6e62:	bc 01       	movw	r22, r24
    6e64:	cd 01       	movw	r24, r26
    6e66:	0e 94 26 05 	call	0xa4c	; 0xa4c <__floatunsisf>
    6e6a:	dc 01       	movw	r26, r24
    6e6c:	cb 01       	movw	r24, r22
    6e6e:	bc 01       	movw	r22, r24
    6e70:	cd 01       	movw	r24, r26
    6e72:	2a e9       	ldi	r18, 0x9A	; 154
    6e74:	39 e9       	ldi	r19, 0x99	; 153
    6e76:	49 e9       	ldi	r20, 0x99	; 153
    6e78:	50 e4       	ldi	r21, 0x40	; 64
    6e7a:	0e 94 9c 02 	call	0x538	; 0x538 <__mulsf3>
    6e7e:	dc 01       	movw	r26, r24
    6e80:	cb 01       	movw	r24, r22
    6e82:	89 83       	std	Y+1, r24	; 0x01
    6e84:	9a 83       	std	Y+2, r25	; 0x02
    6e86:	ab 83       	std	Y+3, r26	; 0x03
    6e88:	bc 83       	std	Y+4, r27	; 0x04
	return loc_volt;
    6e8a:	89 81       	ldd	r24, Y+1	; 0x01
    6e8c:	9a 81       	ldd	r25, Y+2	; 0x02
    6e8e:	ab 81       	ldd	r26, Y+3	; 0x03
    6e90:	bc 81       	ldd	r27, Y+4	; 0x04
}
    6e92:	bc 01       	movw	r22, r24
    6e94:	cd 01       	movw	r24, r26
    6e96:	27 96       	adiw	r28, 0x07	; 7
    6e98:	0f b6       	in	r0, 0x3f	; 63
    6e9a:	f8 94       	cli
    6e9c:	de bf       	out	0x3e, r29	; 62
    6e9e:	0f be       	out	0x3f, r0	; 63
    6ea0:	cd bf       	out	0x3d, r28	; 61
    6ea2:	cf 91       	pop	r28
    6ea4:	df 91       	pop	r29
    6ea6:	08 95       	ret

00006ea8 <__udivmodqi4>:
    6ea8:	99 1b       	sub	r25, r25
    6eaa:	79 e0       	ldi	r23, 0x09	; 9
    6eac:	04 c0       	rjmp	.+8      	; 0x6eb6 <__udivmodqi4_ep>

00006eae <__udivmodqi4_loop>:
    6eae:	99 1f       	adc	r25, r25
    6eb0:	96 17       	cp	r25, r22
    6eb2:	08 f0       	brcs	.+2      	; 0x6eb6 <__udivmodqi4_ep>
    6eb4:	96 1b       	sub	r25, r22

00006eb6 <__udivmodqi4_ep>:
    6eb6:	88 1f       	adc	r24, r24
    6eb8:	7a 95       	dec	r23
    6eba:	c9 f7       	brne	.-14     	; 0x6eae <__udivmodqi4_loop>
    6ebc:	80 95       	com	r24
    6ebe:	08 95       	ret

00006ec0 <__udivmodsi4>:
    6ec0:	a1 e2       	ldi	r26, 0x21	; 33
    6ec2:	1a 2e       	mov	r1, r26
    6ec4:	aa 1b       	sub	r26, r26
    6ec6:	bb 1b       	sub	r27, r27
    6ec8:	fd 01       	movw	r30, r26
    6eca:	0d c0       	rjmp	.+26     	; 0x6ee6 <__udivmodsi4_ep>

00006ecc <__udivmodsi4_loop>:
    6ecc:	aa 1f       	adc	r26, r26
    6ece:	bb 1f       	adc	r27, r27
    6ed0:	ee 1f       	adc	r30, r30
    6ed2:	ff 1f       	adc	r31, r31
    6ed4:	a2 17       	cp	r26, r18
    6ed6:	b3 07       	cpc	r27, r19
    6ed8:	e4 07       	cpc	r30, r20
    6eda:	f5 07       	cpc	r31, r21
    6edc:	20 f0       	brcs	.+8      	; 0x6ee6 <__udivmodsi4_ep>
    6ede:	a2 1b       	sub	r26, r18
    6ee0:	b3 0b       	sbc	r27, r19
    6ee2:	e4 0b       	sbc	r30, r20
    6ee4:	f5 0b       	sbc	r31, r21

00006ee6 <__udivmodsi4_ep>:
    6ee6:	66 1f       	adc	r22, r22
    6ee8:	77 1f       	adc	r23, r23
    6eea:	88 1f       	adc	r24, r24
    6eec:	99 1f       	adc	r25, r25
    6eee:	1a 94       	dec	r1
    6ef0:	69 f7       	brne	.-38     	; 0x6ecc <__udivmodsi4_loop>
    6ef2:	60 95       	com	r22
    6ef4:	70 95       	com	r23
    6ef6:	80 95       	com	r24
    6ef8:	90 95       	com	r25
    6efa:	9b 01       	movw	r18, r22
    6efc:	ac 01       	movw	r20, r24
    6efe:	bd 01       	movw	r22, r26
    6f00:	cf 01       	movw	r24, r30
    6f02:	08 95       	ret

00006f04 <__prologue_saves__>:
    6f04:	2f 92       	push	r2
    6f06:	3f 92       	push	r3
    6f08:	4f 92       	push	r4
    6f0a:	5f 92       	push	r5
    6f0c:	6f 92       	push	r6
    6f0e:	7f 92       	push	r7
    6f10:	8f 92       	push	r8
    6f12:	9f 92       	push	r9
    6f14:	af 92       	push	r10
    6f16:	bf 92       	push	r11
    6f18:	cf 92       	push	r12
    6f1a:	df 92       	push	r13
    6f1c:	ef 92       	push	r14
    6f1e:	ff 92       	push	r15
    6f20:	0f 93       	push	r16
    6f22:	1f 93       	push	r17
    6f24:	cf 93       	push	r28
    6f26:	df 93       	push	r29
    6f28:	cd b7       	in	r28, 0x3d	; 61
    6f2a:	de b7       	in	r29, 0x3e	; 62
    6f2c:	ca 1b       	sub	r28, r26
    6f2e:	db 0b       	sbc	r29, r27
    6f30:	0f b6       	in	r0, 0x3f	; 63
    6f32:	f8 94       	cli
    6f34:	de bf       	out	0x3e, r29	; 62
    6f36:	0f be       	out	0x3f, r0	; 63
    6f38:	cd bf       	out	0x3d, r28	; 61
    6f3a:	09 94       	ijmp

00006f3c <__epilogue_restores__>:
    6f3c:	2a 88       	ldd	r2, Y+18	; 0x12
    6f3e:	39 88       	ldd	r3, Y+17	; 0x11
    6f40:	48 88       	ldd	r4, Y+16	; 0x10
    6f42:	5f 84       	ldd	r5, Y+15	; 0x0f
    6f44:	6e 84       	ldd	r6, Y+14	; 0x0e
    6f46:	7d 84       	ldd	r7, Y+13	; 0x0d
    6f48:	8c 84       	ldd	r8, Y+12	; 0x0c
    6f4a:	9b 84       	ldd	r9, Y+11	; 0x0b
    6f4c:	aa 84       	ldd	r10, Y+10	; 0x0a
    6f4e:	b9 84       	ldd	r11, Y+9	; 0x09
    6f50:	c8 84       	ldd	r12, Y+8	; 0x08
    6f52:	df 80       	ldd	r13, Y+7	; 0x07
    6f54:	ee 80       	ldd	r14, Y+6	; 0x06
    6f56:	fd 80       	ldd	r15, Y+5	; 0x05
    6f58:	0c 81       	ldd	r16, Y+4	; 0x04
    6f5a:	1b 81       	ldd	r17, Y+3	; 0x03
    6f5c:	aa 81       	ldd	r26, Y+2	; 0x02
    6f5e:	b9 81       	ldd	r27, Y+1	; 0x01
    6f60:	ce 0f       	add	r28, r30
    6f62:	d1 1d       	adc	r29, r1
    6f64:	0f b6       	in	r0, 0x3f	; 63
    6f66:	f8 94       	cli
    6f68:	de bf       	out	0x3e, r29	; 62
    6f6a:	0f be       	out	0x3f, r0	; 63
    6f6c:	cd bf       	out	0x3d, r28	; 61
    6f6e:	ed 01       	movw	r28, r26
    6f70:	08 95       	ret

00006f72 <dtostrf>:
    6f72:	ef 92       	push	r14
    6f74:	ff 92       	push	r15
    6f76:	0f 93       	push	r16
    6f78:	1f 93       	push	r17
    6f7a:	f2 2f       	mov	r31, r18
    6f7c:	f0 2e       	mov	r15, r16
    6f7e:	47 fd       	sbrc	r20, 7
    6f80:	02 c0       	rjmp	.+4      	; 0x6f86 <dtostrf+0x14>
    6f82:	e4 e0       	ldi	r30, 0x04	; 4
    6f84:	01 c0       	rjmp	.+2      	; 0x6f88 <dtostrf+0x16>
    6f86:	e4 e1       	ldi	r30, 0x14	; 20
    6f88:	24 2f       	mov	r18, r20
    6f8a:	33 27       	eor	r19, r19
    6f8c:	27 fd       	sbrc	r18, 7
    6f8e:	30 95       	com	r19
    6f90:	37 ff       	sbrs	r19, 7
    6f92:	03 c0       	rjmp	.+6      	; 0x6f9a <dtostrf+0x28>
    6f94:	30 95       	com	r19
    6f96:	21 95       	neg	r18
    6f98:	3f 4f       	sbci	r19, 0xFF	; 255
    6f9a:	4f 2d       	mov	r20, r15
    6f9c:	51 2f       	mov	r21, r17
    6f9e:	0f 2f       	mov	r16, r31
    6fa0:	ee 2e       	mov	r14, r30
    6fa2:	0e 94 db 39 	call	0x73b6	; 0x73b6 <dtoa_prf>
    6fa6:	8f 2d       	mov	r24, r15
    6fa8:	91 2f       	mov	r25, r17
    6faa:	1f 91       	pop	r17
    6fac:	0f 91       	pop	r16
    6fae:	ff 90       	pop	r15
    6fb0:	ef 90       	pop	r14
    6fb2:	08 95       	ret

00006fb4 <sprintf>:
    6fb4:	ae e0       	ldi	r26, 0x0E	; 14
    6fb6:	b0 e0       	ldi	r27, 0x00	; 0
    6fb8:	e0 ee       	ldi	r30, 0xE0	; 224
    6fba:	f7 e3       	ldi	r31, 0x37	; 55
    6fbc:	0c 94 90 37 	jmp	0x6f20	; 0x6f20 <__prologue_saves__+0x1c>
    6fc0:	0d 89       	ldd	r16, Y+21	; 0x15
    6fc2:	1e 89       	ldd	r17, Y+22	; 0x16
    6fc4:	86 e0       	ldi	r24, 0x06	; 6
    6fc6:	8c 83       	std	Y+4, r24	; 0x04
    6fc8:	1a 83       	std	Y+2, r17	; 0x02
    6fca:	09 83       	std	Y+1, r16	; 0x01
    6fcc:	8f ef       	ldi	r24, 0xFF	; 255
    6fce:	9f e7       	ldi	r25, 0x7F	; 127
    6fd0:	9e 83       	std	Y+6, r25	; 0x06
    6fd2:	8d 83       	std	Y+5, r24	; 0x05
    6fd4:	9e 01       	movw	r18, r28
    6fd6:	27 5e       	subi	r18, 0xE7	; 231
    6fd8:	3f 4f       	sbci	r19, 0xFF	; 255
    6fda:	ce 01       	movw	r24, r28
    6fdc:	01 96       	adiw	r24, 0x01	; 1
    6fde:	6f 89       	ldd	r22, Y+23	; 0x17
    6fe0:	78 8d       	ldd	r23, Y+24	; 0x18
    6fe2:	a9 01       	movw	r20, r18
    6fe4:	0e 94 fe 37 	call	0x6ffc	; 0x6ffc <vfprintf>
    6fe8:	2f 81       	ldd	r18, Y+7	; 0x07
    6fea:	38 85       	ldd	r19, Y+8	; 0x08
    6fec:	02 0f       	add	r16, r18
    6fee:	13 1f       	adc	r17, r19
    6ff0:	f8 01       	movw	r30, r16
    6ff2:	10 82       	st	Z, r1
    6ff4:	2e 96       	adiw	r28, 0x0e	; 14
    6ff6:	e4 e0       	ldi	r30, 0x04	; 4
    6ff8:	0c 94 ac 37 	jmp	0x6f58	; 0x6f58 <__epilogue_restores__+0x1c>

00006ffc <vfprintf>:
    6ffc:	ab e0       	ldi	r26, 0x0B	; 11
    6ffe:	b0 e0       	ldi	r27, 0x00	; 0
    7000:	e4 e0       	ldi	r30, 0x04	; 4
    7002:	f8 e3       	ldi	r31, 0x38	; 56
    7004:	0c 94 82 37 	jmp	0x6f04	; 0x6f04 <__prologue_saves__>
    7008:	3c 01       	movw	r6, r24
    700a:	2b 01       	movw	r4, r22
    700c:	5a 01       	movw	r10, r20
    700e:	fc 01       	movw	r30, r24
    7010:	17 82       	std	Z+7, r1	; 0x07
    7012:	16 82       	std	Z+6, r1	; 0x06
    7014:	83 81       	ldd	r24, Z+3	; 0x03
    7016:	81 fd       	sbrc	r24, 1
    7018:	03 c0       	rjmp	.+6      	; 0x7020 <vfprintf+0x24>
    701a:	6f ef       	ldi	r22, 0xFF	; 255
    701c:	7f ef       	ldi	r23, 0xFF	; 255
    701e:	c6 c1       	rjmp	.+908    	; 0x73ac <vfprintf+0x3b0>
    7020:	9a e0       	ldi	r25, 0x0A	; 10
    7022:	89 2e       	mov	r8, r25
    7024:	1e 01       	movw	r2, r28
    7026:	08 94       	sec
    7028:	21 1c       	adc	r2, r1
    702a:	31 1c       	adc	r3, r1
    702c:	f3 01       	movw	r30, r6
    702e:	23 81       	ldd	r18, Z+3	; 0x03
    7030:	f2 01       	movw	r30, r4
    7032:	23 fd       	sbrc	r18, 3
    7034:	85 91       	lpm	r24, Z+
    7036:	23 ff       	sbrs	r18, 3
    7038:	81 91       	ld	r24, Z+
    703a:	2f 01       	movw	r4, r30
    703c:	88 23       	and	r24, r24
    703e:	09 f4       	brne	.+2      	; 0x7042 <vfprintf+0x46>
    7040:	b2 c1       	rjmp	.+868    	; 0x73a6 <vfprintf+0x3aa>
    7042:	85 32       	cpi	r24, 0x25	; 37
    7044:	39 f4       	brne	.+14     	; 0x7054 <vfprintf+0x58>
    7046:	23 fd       	sbrc	r18, 3
    7048:	85 91       	lpm	r24, Z+
    704a:	23 ff       	sbrs	r18, 3
    704c:	81 91       	ld	r24, Z+
    704e:	2f 01       	movw	r4, r30
    7050:	85 32       	cpi	r24, 0x25	; 37
    7052:	29 f4       	brne	.+10     	; 0x705e <vfprintf+0x62>
    7054:	90 e0       	ldi	r25, 0x00	; 0
    7056:	b3 01       	movw	r22, r6
    7058:	0e 94 2b 3c 	call	0x7856	; 0x7856 <fputc>
    705c:	e7 cf       	rjmp	.-50     	; 0x702c <vfprintf+0x30>
    705e:	98 2f       	mov	r25, r24
    7060:	ff 24       	eor	r15, r15
    7062:	ee 24       	eor	r14, r14
    7064:	99 24       	eor	r9, r9
    7066:	ff e1       	ldi	r31, 0x1F	; 31
    7068:	ff 15       	cp	r31, r15
    706a:	d0 f0       	brcs	.+52     	; 0x70a0 <vfprintf+0xa4>
    706c:	9b 32       	cpi	r25, 0x2B	; 43
    706e:	69 f0       	breq	.+26     	; 0x708a <vfprintf+0x8e>
    7070:	9c 32       	cpi	r25, 0x2C	; 44
    7072:	28 f4       	brcc	.+10     	; 0x707e <vfprintf+0x82>
    7074:	90 32       	cpi	r25, 0x20	; 32
    7076:	59 f0       	breq	.+22     	; 0x708e <vfprintf+0x92>
    7078:	93 32       	cpi	r25, 0x23	; 35
    707a:	91 f4       	brne	.+36     	; 0x70a0 <vfprintf+0xa4>
    707c:	0e c0       	rjmp	.+28     	; 0x709a <vfprintf+0x9e>
    707e:	9d 32       	cpi	r25, 0x2D	; 45
    7080:	49 f0       	breq	.+18     	; 0x7094 <vfprintf+0x98>
    7082:	90 33       	cpi	r25, 0x30	; 48
    7084:	69 f4       	brne	.+26     	; 0x70a0 <vfprintf+0xa4>
    7086:	41 e0       	ldi	r20, 0x01	; 1
    7088:	24 c0       	rjmp	.+72     	; 0x70d2 <vfprintf+0xd6>
    708a:	52 e0       	ldi	r21, 0x02	; 2
    708c:	f5 2a       	or	r15, r21
    708e:	84 e0       	ldi	r24, 0x04	; 4
    7090:	f8 2a       	or	r15, r24
    7092:	28 c0       	rjmp	.+80     	; 0x70e4 <vfprintf+0xe8>
    7094:	98 e0       	ldi	r25, 0x08	; 8
    7096:	f9 2a       	or	r15, r25
    7098:	25 c0       	rjmp	.+74     	; 0x70e4 <vfprintf+0xe8>
    709a:	e0 e1       	ldi	r30, 0x10	; 16
    709c:	fe 2a       	or	r15, r30
    709e:	22 c0       	rjmp	.+68     	; 0x70e4 <vfprintf+0xe8>
    70a0:	f7 fc       	sbrc	r15, 7
    70a2:	29 c0       	rjmp	.+82     	; 0x70f6 <vfprintf+0xfa>
    70a4:	89 2f       	mov	r24, r25
    70a6:	80 53       	subi	r24, 0x30	; 48
    70a8:	8a 30       	cpi	r24, 0x0A	; 10
    70aa:	70 f4       	brcc	.+28     	; 0x70c8 <vfprintf+0xcc>
    70ac:	f6 fe       	sbrs	r15, 6
    70ae:	05 c0       	rjmp	.+10     	; 0x70ba <vfprintf+0xbe>
    70b0:	98 9c       	mul	r9, r8
    70b2:	90 2c       	mov	r9, r0
    70b4:	11 24       	eor	r1, r1
    70b6:	98 0e       	add	r9, r24
    70b8:	15 c0       	rjmp	.+42     	; 0x70e4 <vfprintf+0xe8>
    70ba:	e8 9c       	mul	r14, r8
    70bc:	e0 2c       	mov	r14, r0
    70be:	11 24       	eor	r1, r1
    70c0:	e8 0e       	add	r14, r24
    70c2:	f0 e2       	ldi	r31, 0x20	; 32
    70c4:	ff 2a       	or	r15, r31
    70c6:	0e c0       	rjmp	.+28     	; 0x70e4 <vfprintf+0xe8>
    70c8:	9e 32       	cpi	r25, 0x2E	; 46
    70ca:	29 f4       	brne	.+10     	; 0x70d6 <vfprintf+0xda>
    70cc:	f6 fc       	sbrc	r15, 6
    70ce:	6b c1       	rjmp	.+726    	; 0x73a6 <vfprintf+0x3aa>
    70d0:	40 e4       	ldi	r20, 0x40	; 64
    70d2:	f4 2a       	or	r15, r20
    70d4:	07 c0       	rjmp	.+14     	; 0x70e4 <vfprintf+0xe8>
    70d6:	9c 36       	cpi	r25, 0x6C	; 108
    70d8:	19 f4       	brne	.+6      	; 0x70e0 <vfprintf+0xe4>
    70da:	50 e8       	ldi	r21, 0x80	; 128
    70dc:	f5 2a       	or	r15, r21
    70de:	02 c0       	rjmp	.+4      	; 0x70e4 <vfprintf+0xe8>
    70e0:	98 36       	cpi	r25, 0x68	; 104
    70e2:	49 f4       	brne	.+18     	; 0x70f6 <vfprintf+0xfa>
    70e4:	f2 01       	movw	r30, r4
    70e6:	23 fd       	sbrc	r18, 3
    70e8:	95 91       	lpm	r25, Z+
    70ea:	23 ff       	sbrs	r18, 3
    70ec:	91 91       	ld	r25, Z+
    70ee:	2f 01       	movw	r4, r30
    70f0:	99 23       	and	r25, r25
    70f2:	09 f0       	breq	.+2      	; 0x70f6 <vfprintf+0xfa>
    70f4:	b8 cf       	rjmp	.-144    	; 0x7066 <vfprintf+0x6a>
    70f6:	89 2f       	mov	r24, r25
    70f8:	85 54       	subi	r24, 0x45	; 69
    70fa:	83 30       	cpi	r24, 0x03	; 3
    70fc:	18 f0       	brcs	.+6      	; 0x7104 <vfprintf+0x108>
    70fe:	80 52       	subi	r24, 0x20	; 32
    7100:	83 30       	cpi	r24, 0x03	; 3
    7102:	38 f4       	brcc	.+14     	; 0x7112 <vfprintf+0x116>
    7104:	44 e0       	ldi	r20, 0x04	; 4
    7106:	50 e0       	ldi	r21, 0x00	; 0
    7108:	a4 0e       	add	r10, r20
    710a:	b5 1e       	adc	r11, r21
    710c:	5f e3       	ldi	r21, 0x3F	; 63
    710e:	59 83       	std	Y+1, r21	; 0x01
    7110:	0f c0       	rjmp	.+30     	; 0x7130 <vfprintf+0x134>
    7112:	93 36       	cpi	r25, 0x63	; 99
    7114:	31 f0       	breq	.+12     	; 0x7122 <vfprintf+0x126>
    7116:	93 37       	cpi	r25, 0x73	; 115
    7118:	79 f0       	breq	.+30     	; 0x7138 <vfprintf+0x13c>
    711a:	93 35       	cpi	r25, 0x53	; 83
    711c:	09 f0       	breq	.+2      	; 0x7120 <vfprintf+0x124>
    711e:	56 c0       	rjmp	.+172    	; 0x71cc <vfprintf+0x1d0>
    7120:	20 c0       	rjmp	.+64     	; 0x7162 <vfprintf+0x166>
    7122:	f5 01       	movw	r30, r10
    7124:	80 81       	ld	r24, Z
    7126:	89 83       	std	Y+1, r24	; 0x01
    7128:	42 e0       	ldi	r20, 0x02	; 2
    712a:	50 e0       	ldi	r21, 0x00	; 0
    712c:	a4 0e       	add	r10, r20
    712e:	b5 1e       	adc	r11, r21
    7130:	61 01       	movw	r12, r2
    7132:	01 e0       	ldi	r16, 0x01	; 1
    7134:	10 e0       	ldi	r17, 0x00	; 0
    7136:	12 c0       	rjmp	.+36     	; 0x715c <vfprintf+0x160>
    7138:	f5 01       	movw	r30, r10
    713a:	c0 80       	ld	r12, Z
    713c:	d1 80       	ldd	r13, Z+1	; 0x01
    713e:	f6 fc       	sbrc	r15, 6
    7140:	03 c0       	rjmp	.+6      	; 0x7148 <vfprintf+0x14c>
    7142:	6f ef       	ldi	r22, 0xFF	; 255
    7144:	7f ef       	ldi	r23, 0xFF	; 255
    7146:	02 c0       	rjmp	.+4      	; 0x714c <vfprintf+0x150>
    7148:	69 2d       	mov	r22, r9
    714a:	70 e0       	ldi	r23, 0x00	; 0
    714c:	42 e0       	ldi	r20, 0x02	; 2
    714e:	50 e0       	ldi	r21, 0x00	; 0
    7150:	a4 0e       	add	r10, r20
    7152:	b5 1e       	adc	r11, r21
    7154:	c6 01       	movw	r24, r12
    7156:	0e 94 20 3c 	call	0x7840	; 0x7840 <strnlen>
    715a:	8c 01       	movw	r16, r24
    715c:	5f e7       	ldi	r21, 0x7F	; 127
    715e:	f5 22       	and	r15, r21
    7160:	14 c0       	rjmp	.+40     	; 0x718a <vfprintf+0x18e>
    7162:	f5 01       	movw	r30, r10
    7164:	c0 80       	ld	r12, Z
    7166:	d1 80       	ldd	r13, Z+1	; 0x01
    7168:	f6 fc       	sbrc	r15, 6
    716a:	03 c0       	rjmp	.+6      	; 0x7172 <vfprintf+0x176>
    716c:	6f ef       	ldi	r22, 0xFF	; 255
    716e:	7f ef       	ldi	r23, 0xFF	; 255
    7170:	02 c0       	rjmp	.+4      	; 0x7176 <vfprintf+0x17a>
    7172:	69 2d       	mov	r22, r9
    7174:	70 e0       	ldi	r23, 0x00	; 0
    7176:	42 e0       	ldi	r20, 0x02	; 2
    7178:	50 e0       	ldi	r21, 0x00	; 0
    717a:	a4 0e       	add	r10, r20
    717c:	b5 1e       	adc	r11, r21
    717e:	c6 01       	movw	r24, r12
    7180:	0e 94 15 3c 	call	0x782a	; 0x782a <strnlen_P>
    7184:	8c 01       	movw	r16, r24
    7186:	50 e8       	ldi	r21, 0x80	; 128
    7188:	f5 2a       	or	r15, r21
    718a:	f3 fe       	sbrs	r15, 3
    718c:	07 c0       	rjmp	.+14     	; 0x719c <vfprintf+0x1a0>
    718e:	1a c0       	rjmp	.+52     	; 0x71c4 <vfprintf+0x1c8>
    7190:	80 e2       	ldi	r24, 0x20	; 32
    7192:	90 e0       	ldi	r25, 0x00	; 0
    7194:	b3 01       	movw	r22, r6
    7196:	0e 94 2b 3c 	call	0x7856	; 0x7856 <fputc>
    719a:	ea 94       	dec	r14
    719c:	8e 2d       	mov	r24, r14
    719e:	90 e0       	ldi	r25, 0x00	; 0
    71a0:	08 17       	cp	r16, r24
    71a2:	19 07       	cpc	r17, r25
    71a4:	a8 f3       	brcs	.-22     	; 0x7190 <vfprintf+0x194>
    71a6:	0e c0       	rjmp	.+28     	; 0x71c4 <vfprintf+0x1c8>
    71a8:	f6 01       	movw	r30, r12
    71aa:	f7 fc       	sbrc	r15, 7
    71ac:	85 91       	lpm	r24, Z+
    71ae:	f7 fe       	sbrs	r15, 7
    71b0:	81 91       	ld	r24, Z+
    71b2:	6f 01       	movw	r12, r30
    71b4:	90 e0       	ldi	r25, 0x00	; 0
    71b6:	b3 01       	movw	r22, r6
    71b8:	0e 94 2b 3c 	call	0x7856	; 0x7856 <fputc>
    71bc:	e1 10       	cpse	r14, r1
    71be:	ea 94       	dec	r14
    71c0:	01 50       	subi	r16, 0x01	; 1
    71c2:	10 40       	sbci	r17, 0x00	; 0
    71c4:	01 15       	cp	r16, r1
    71c6:	11 05       	cpc	r17, r1
    71c8:	79 f7       	brne	.-34     	; 0x71a8 <vfprintf+0x1ac>
    71ca:	ea c0       	rjmp	.+468    	; 0x73a0 <vfprintf+0x3a4>
    71cc:	94 36       	cpi	r25, 0x64	; 100
    71ce:	11 f0       	breq	.+4      	; 0x71d4 <vfprintf+0x1d8>
    71d0:	99 36       	cpi	r25, 0x69	; 105
    71d2:	69 f5       	brne	.+90     	; 0x722e <vfprintf+0x232>
    71d4:	f7 fe       	sbrs	r15, 7
    71d6:	08 c0       	rjmp	.+16     	; 0x71e8 <vfprintf+0x1ec>
    71d8:	f5 01       	movw	r30, r10
    71da:	20 81       	ld	r18, Z
    71dc:	31 81       	ldd	r19, Z+1	; 0x01
    71de:	42 81       	ldd	r20, Z+2	; 0x02
    71e0:	53 81       	ldd	r21, Z+3	; 0x03
    71e2:	84 e0       	ldi	r24, 0x04	; 4
    71e4:	90 e0       	ldi	r25, 0x00	; 0
    71e6:	0a c0       	rjmp	.+20     	; 0x71fc <vfprintf+0x200>
    71e8:	f5 01       	movw	r30, r10
    71ea:	80 81       	ld	r24, Z
    71ec:	91 81       	ldd	r25, Z+1	; 0x01
    71ee:	9c 01       	movw	r18, r24
    71f0:	44 27       	eor	r20, r20
    71f2:	37 fd       	sbrc	r19, 7
    71f4:	40 95       	com	r20
    71f6:	54 2f       	mov	r21, r20
    71f8:	82 e0       	ldi	r24, 0x02	; 2
    71fa:	90 e0       	ldi	r25, 0x00	; 0
    71fc:	a8 0e       	add	r10, r24
    71fe:	b9 1e       	adc	r11, r25
    7200:	9f e6       	ldi	r25, 0x6F	; 111
    7202:	f9 22       	and	r15, r25
    7204:	57 ff       	sbrs	r21, 7
    7206:	09 c0       	rjmp	.+18     	; 0x721a <vfprintf+0x21e>
    7208:	50 95       	com	r21
    720a:	40 95       	com	r20
    720c:	30 95       	com	r19
    720e:	21 95       	neg	r18
    7210:	3f 4f       	sbci	r19, 0xFF	; 255
    7212:	4f 4f       	sbci	r20, 0xFF	; 255
    7214:	5f 4f       	sbci	r21, 0xFF	; 255
    7216:	e0 e8       	ldi	r30, 0x80	; 128
    7218:	fe 2a       	or	r15, r30
    721a:	ca 01       	movw	r24, r20
    721c:	b9 01       	movw	r22, r18
    721e:	a1 01       	movw	r20, r2
    7220:	2a e0       	ldi	r18, 0x0A	; 10
    7222:	30 e0       	ldi	r19, 0x00	; 0
    7224:	0e 94 57 3c 	call	0x78ae	; 0x78ae <__ultoa_invert>
    7228:	d8 2e       	mov	r13, r24
    722a:	d2 18       	sub	r13, r2
    722c:	40 c0       	rjmp	.+128    	; 0x72ae <vfprintf+0x2b2>
    722e:	95 37       	cpi	r25, 0x75	; 117
    7230:	29 f4       	brne	.+10     	; 0x723c <vfprintf+0x240>
    7232:	1f 2d       	mov	r17, r15
    7234:	1f 7e       	andi	r17, 0xEF	; 239
    7236:	2a e0       	ldi	r18, 0x0A	; 10
    7238:	30 e0       	ldi	r19, 0x00	; 0
    723a:	1d c0       	rjmp	.+58     	; 0x7276 <vfprintf+0x27a>
    723c:	1f 2d       	mov	r17, r15
    723e:	19 7f       	andi	r17, 0xF9	; 249
    7240:	9f 36       	cpi	r25, 0x6F	; 111
    7242:	61 f0       	breq	.+24     	; 0x725c <vfprintf+0x260>
    7244:	90 37       	cpi	r25, 0x70	; 112
    7246:	20 f4       	brcc	.+8      	; 0x7250 <vfprintf+0x254>
    7248:	98 35       	cpi	r25, 0x58	; 88
    724a:	09 f0       	breq	.+2      	; 0x724e <vfprintf+0x252>
    724c:	ac c0       	rjmp	.+344    	; 0x73a6 <vfprintf+0x3aa>
    724e:	0f c0       	rjmp	.+30     	; 0x726e <vfprintf+0x272>
    7250:	90 37       	cpi	r25, 0x70	; 112
    7252:	39 f0       	breq	.+14     	; 0x7262 <vfprintf+0x266>
    7254:	98 37       	cpi	r25, 0x78	; 120
    7256:	09 f0       	breq	.+2      	; 0x725a <vfprintf+0x25e>
    7258:	a6 c0       	rjmp	.+332    	; 0x73a6 <vfprintf+0x3aa>
    725a:	04 c0       	rjmp	.+8      	; 0x7264 <vfprintf+0x268>
    725c:	28 e0       	ldi	r18, 0x08	; 8
    725e:	30 e0       	ldi	r19, 0x00	; 0
    7260:	0a c0       	rjmp	.+20     	; 0x7276 <vfprintf+0x27a>
    7262:	10 61       	ori	r17, 0x10	; 16
    7264:	14 fd       	sbrc	r17, 4
    7266:	14 60       	ori	r17, 0x04	; 4
    7268:	20 e1       	ldi	r18, 0x10	; 16
    726a:	30 e0       	ldi	r19, 0x00	; 0
    726c:	04 c0       	rjmp	.+8      	; 0x7276 <vfprintf+0x27a>
    726e:	14 fd       	sbrc	r17, 4
    7270:	16 60       	ori	r17, 0x06	; 6
    7272:	20 e1       	ldi	r18, 0x10	; 16
    7274:	32 e0       	ldi	r19, 0x02	; 2
    7276:	17 ff       	sbrs	r17, 7
    7278:	08 c0       	rjmp	.+16     	; 0x728a <vfprintf+0x28e>
    727a:	f5 01       	movw	r30, r10
    727c:	60 81       	ld	r22, Z
    727e:	71 81       	ldd	r23, Z+1	; 0x01
    7280:	82 81       	ldd	r24, Z+2	; 0x02
    7282:	93 81       	ldd	r25, Z+3	; 0x03
    7284:	44 e0       	ldi	r20, 0x04	; 4
    7286:	50 e0       	ldi	r21, 0x00	; 0
    7288:	08 c0       	rjmp	.+16     	; 0x729a <vfprintf+0x29e>
    728a:	f5 01       	movw	r30, r10
    728c:	80 81       	ld	r24, Z
    728e:	91 81       	ldd	r25, Z+1	; 0x01
    7290:	bc 01       	movw	r22, r24
    7292:	80 e0       	ldi	r24, 0x00	; 0
    7294:	90 e0       	ldi	r25, 0x00	; 0
    7296:	42 e0       	ldi	r20, 0x02	; 2
    7298:	50 e0       	ldi	r21, 0x00	; 0
    729a:	a4 0e       	add	r10, r20
    729c:	b5 1e       	adc	r11, r21
    729e:	a1 01       	movw	r20, r2
    72a0:	0e 94 57 3c 	call	0x78ae	; 0x78ae <__ultoa_invert>
    72a4:	d8 2e       	mov	r13, r24
    72a6:	d2 18       	sub	r13, r2
    72a8:	8f e7       	ldi	r24, 0x7F	; 127
    72aa:	f8 2e       	mov	r15, r24
    72ac:	f1 22       	and	r15, r17
    72ae:	f6 fe       	sbrs	r15, 6
    72b0:	0b c0       	rjmp	.+22     	; 0x72c8 <vfprintf+0x2cc>
    72b2:	5e ef       	ldi	r21, 0xFE	; 254
    72b4:	f5 22       	and	r15, r21
    72b6:	d9 14       	cp	r13, r9
    72b8:	38 f4       	brcc	.+14     	; 0x72c8 <vfprintf+0x2cc>
    72ba:	f4 fe       	sbrs	r15, 4
    72bc:	07 c0       	rjmp	.+14     	; 0x72cc <vfprintf+0x2d0>
    72be:	f2 fc       	sbrc	r15, 2
    72c0:	05 c0       	rjmp	.+10     	; 0x72cc <vfprintf+0x2d0>
    72c2:	8f ee       	ldi	r24, 0xEF	; 239
    72c4:	f8 22       	and	r15, r24
    72c6:	02 c0       	rjmp	.+4      	; 0x72cc <vfprintf+0x2d0>
    72c8:	1d 2d       	mov	r17, r13
    72ca:	01 c0       	rjmp	.+2      	; 0x72ce <vfprintf+0x2d2>
    72cc:	19 2d       	mov	r17, r9
    72ce:	f4 fe       	sbrs	r15, 4
    72d0:	0d c0       	rjmp	.+26     	; 0x72ec <vfprintf+0x2f0>
    72d2:	fe 01       	movw	r30, r28
    72d4:	ed 0d       	add	r30, r13
    72d6:	f1 1d       	adc	r31, r1
    72d8:	80 81       	ld	r24, Z
    72da:	80 33       	cpi	r24, 0x30	; 48
    72dc:	19 f4       	brne	.+6      	; 0x72e4 <vfprintf+0x2e8>
    72de:	99 ee       	ldi	r25, 0xE9	; 233
    72e0:	f9 22       	and	r15, r25
    72e2:	08 c0       	rjmp	.+16     	; 0x72f4 <vfprintf+0x2f8>
    72e4:	1f 5f       	subi	r17, 0xFF	; 255
    72e6:	f2 fe       	sbrs	r15, 2
    72e8:	05 c0       	rjmp	.+10     	; 0x72f4 <vfprintf+0x2f8>
    72ea:	03 c0       	rjmp	.+6      	; 0x72f2 <vfprintf+0x2f6>
    72ec:	8f 2d       	mov	r24, r15
    72ee:	86 78       	andi	r24, 0x86	; 134
    72f0:	09 f0       	breq	.+2      	; 0x72f4 <vfprintf+0x2f8>
    72f2:	1f 5f       	subi	r17, 0xFF	; 255
    72f4:	0f 2d       	mov	r16, r15
    72f6:	f3 fc       	sbrc	r15, 3
    72f8:	14 c0       	rjmp	.+40     	; 0x7322 <vfprintf+0x326>
    72fa:	f0 fe       	sbrs	r15, 0
    72fc:	0f c0       	rjmp	.+30     	; 0x731c <vfprintf+0x320>
    72fe:	1e 15       	cp	r17, r14
    7300:	10 f0       	brcs	.+4      	; 0x7306 <vfprintf+0x30a>
    7302:	9d 2c       	mov	r9, r13
    7304:	0b c0       	rjmp	.+22     	; 0x731c <vfprintf+0x320>
    7306:	9d 2c       	mov	r9, r13
    7308:	9e 0c       	add	r9, r14
    730a:	91 1a       	sub	r9, r17
    730c:	1e 2d       	mov	r17, r14
    730e:	06 c0       	rjmp	.+12     	; 0x731c <vfprintf+0x320>
    7310:	80 e2       	ldi	r24, 0x20	; 32
    7312:	90 e0       	ldi	r25, 0x00	; 0
    7314:	b3 01       	movw	r22, r6
    7316:	0e 94 2b 3c 	call	0x7856	; 0x7856 <fputc>
    731a:	1f 5f       	subi	r17, 0xFF	; 255
    731c:	1e 15       	cp	r17, r14
    731e:	c0 f3       	brcs	.-16     	; 0x7310 <vfprintf+0x314>
    7320:	04 c0       	rjmp	.+8      	; 0x732a <vfprintf+0x32e>
    7322:	1e 15       	cp	r17, r14
    7324:	10 f4       	brcc	.+4      	; 0x732a <vfprintf+0x32e>
    7326:	e1 1a       	sub	r14, r17
    7328:	01 c0       	rjmp	.+2      	; 0x732c <vfprintf+0x330>
    732a:	ee 24       	eor	r14, r14
    732c:	04 ff       	sbrs	r16, 4
    732e:	0f c0       	rjmp	.+30     	; 0x734e <vfprintf+0x352>
    7330:	80 e3       	ldi	r24, 0x30	; 48
    7332:	90 e0       	ldi	r25, 0x00	; 0
    7334:	b3 01       	movw	r22, r6
    7336:	0e 94 2b 3c 	call	0x7856	; 0x7856 <fputc>
    733a:	02 ff       	sbrs	r16, 2
    733c:	1d c0       	rjmp	.+58     	; 0x7378 <vfprintf+0x37c>
    733e:	01 fd       	sbrc	r16, 1
    7340:	03 c0       	rjmp	.+6      	; 0x7348 <vfprintf+0x34c>
    7342:	88 e7       	ldi	r24, 0x78	; 120
    7344:	90 e0       	ldi	r25, 0x00	; 0
    7346:	0e c0       	rjmp	.+28     	; 0x7364 <vfprintf+0x368>
    7348:	88 e5       	ldi	r24, 0x58	; 88
    734a:	90 e0       	ldi	r25, 0x00	; 0
    734c:	0b c0       	rjmp	.+22     	; 0x7364 <vfprintf+0x368>
    734e:	80 2f       	mov	r24, r16
    7350:	86 78       	andi	r24, 0x86	; 134
    7352:	91 f0       	breq	.+36     	; 0x7378 <vfprintf+0x37c>
    7354:	01 ff       	sbrs	r16, 1
    7356:	02 c0       	rjmp	.+4      	; 0x735c <vfprintf+0x360>
    7358:	8b e2       	ldi	r24, 0x2B	; 43
    735a:	01 c0       	rjmp	.+2      	; 0x735e <vfprintf+0x362>
    735c:	80 e2       	ldi	r24, 0x20	; 32
    735e:	f7 fc       	sbrc	r15, 7
    7360:	8d e2       	ldi	r24, 0x2D	; 45
    7362:	90 e0       	ldi	r25, 0x00	; 0
    7364:	b3 01       	movw	r22, r6
    7366:	0e 94 2b 3c 	call	0x7856	; 0x7856 <fputc>
    736a:	06 c0       	rjmp	.+12     	; 0x7378 <vfprintf+0x37c>
    736c:	80 e3       	ldi	r24, 0x30	; 48
    736e:	90 e0       	ldi	r25, 0x00	; 0
    7370:	b3 01       	movw	r22, r6
    7372:	0e 94 2b 3c 	call	0x7856	; 0x7856 <fputc>
    7376:	9a 94       	dec	r9
    7378:	d9 14       	cp	r13, r9
    737a:	c0 f3       	brcs	.-16     	; 0x736c <vfprintf+0x370>
    737c:	da 94       	dec	r13
    737e:	f1 01       	movw	r30, r2
    7380:	ed 0d       	add	r30, r13
    7382:	f1 1d       	adc	r31, r1
    7384:	80 81       	ld	r24, Z
    7386:	90 e0       	ldi	r25, 0x00	; 0
    7388:	b3 01       	movw	r22, r6
    738a:	0e 94 2b 3c 	call	0x7856	; 0x7856 <fputc>
    738e:	dd 20       	and	r13, r13
    7390:	a9 f7       	brne	.-22     	; 0x737c <vfprintf+0x380>
    7392:	06 c0       	rjmp	.+12     	; 0x73a0 <vfprintf+0x3a4>
    7394:	80 e2       	ldi	r24, 0x20	; 32
    7396:	90 e0       	ldi	r25, 0x00	; 0
    7398:	b3 01       	movw	r22, r6
    739a:	0e 94 2b 3c 	call	0x7856	; 0x7856 <fputc>
    739e:	ea 94       	dec	r14
    73a0:	ee 20       	and	r14, r14
    73a2:	c1 f7       	brne	.-16     	; 0x7394 <vfprintf+0x398>
    73a4:	43 ce       	rjmp	.-890    	; 0x702c <vfprintf+0x30>
    73a6:	f3 01       	movw	r30, r6
    73a8:	66 81       	ldd	r22, Z+6	; 0x06
    73aa:	77 81       	ldd	r23, Z+7	; 0x07
    73ac:	cb 01       	movw	r24, r22
    73ae:	2b 96       	adiw	r28, 0x0b	; 11
    73b0:	e2 e1       	ldi	r30, 0x12	; 18
    73b2:	0c 94 9e 37 	jmp	0x6f3c	; 0x6f3c <__epilogue_restores__>

000073b6 <dtoa_prf>:
    73b6:	a9 e0       	ldi	r26, 0x09	; 9
    73b8:	b0 e0       	ldi	r27, 0x00	; 0
    73ba:	e1 ee       	ldi	r30, 0xE1	; 225
    73bc:	f9 e3       	ldi	r31, 0x39	; 57
    73be:	0c 94 86 37 	jmp	0x6f0c	; 0x6f0c <__prologue_saves__+0x8>
    73c2:	6a 01       	movw	r12, r20
    73c4:	12 2f       	mov	r17, r18
    73c6:	a0 2e       	mov	r10, r16
    73c8:	be 2c       	mov	r11, r14
    73ca:	2b e3       	ldi	r18, 0x3B	; 59
    73cc:	20 17       	cp	r18, r16
    73ce:	18 f4       	brcc	.+6      	; 0x73d6 <dtoa_prf+0x20>
    73d0:	2c e3       	ldi	r18, 0x3C	; 60
    73d2:	92 2e       	mov	r9, r18
    73d4:	02 c0       	rjmp	.+4      	; 0x73da <dtoa_prf+0x24>
    73d6:	90 2e       	mov	r9, r16
    73d8:	93 94       	inc	r9
    73da:	ae 01       	movw	r20, r28
    73dc:	4f 5f       	subi	r20, 0xFF	; 255
    73de:	5f 4f       	sbci	r21, 0xFF	; 255
    73e0:	27 e0       	ldi	r18, 0x07	; 7
    73e2:	09 2d       	mov	r16, r9
    73e4:	0e 94 3d 3b 	call	0x767a	; 0x767a <__ftoa_engine>
    73e8:	bc 01       	movw	r22, r24
    73ea:	89 81       	ldd	r24, Y+1	; 0x01
    73ec:	e8 2e       	mov	r14, r24
    73ee:	ff 24       	eor	r15, r15
    73f0:	c7 01       	movw	r24, r14
    73f2:	89 70       	andi	r24, 0x09	; 9
    73f4:	90 70       	andi	r25, 0x00	; 0
    73f6:	01 97       	sbiw	r24, 0x01	; 1
    73f8:	11 f4       	brne	.+4      	; 0x73fe <dtoa_prf+0x48>
    73fa:	ad e2       	ldi	r26, 0x2D	; 45
    73fc:	09 c0       	rjmp	.+18     	; 0x7410 <dtoa_prf+0x5a>
    73fe:	b1 fe       	sbrs	r11, 1
    7400:	02 c0       	rjmp	.+4      	; 0x7406 <dtoa_prf+0x50>
    7402:	ab e2       	ldi	r26, 0x2B	; 43
    7404:	05 c0       	rjmp	.+10     	; 0x7410 <dtoa_prf+0x5a>
    7406:	b0 fc       	sbrc	r11, 0
    7408:	02 c0       	rjmp	.+4      	; 0x740e <dtoa_prf+0x58>
    740a:	a0 e0       	ldi	r26, 0x00	; 0
    740c:	01 c0       	rjmp	.+2      	; 0x7410 <dtoa_prf+0x5a>
    740e:	a0 e2       	ldi	r26, 0x20	; 32
    7410:	e3 fe       	sbrs	r14, 3
    7412:	3b c0       	rjmp	.+118    	; 0x748a <dtoa_prf+0xd4>
    7414:	aa 23       	and	r26, r26
    7416:	11 f4       	brne	.+4      	; 0x741c <dtoa_prf+0x66>
    7418:	23 e0       	ldi	r18, 0x03	; 3
    741a:	01 c0       	rjmp	.+2      	; 0x741e <dtoa_prf+0x68>
    741c:	24 e0       	ldi	r18, 0x04	; 4
    741e:	21 17       	cp	r18, r17
    7420:	10 f0       	brcs	.+4      	; 0x7426 <dtoa_prf+0x70>
    7422:	20 e0       	ldi	r18, 0x00	; 0
    7424:	02 c0       	rjmp	.+4      	; 0x742a <dtoa_prf+0x74>
    7426:	12 1b       	sub	r17, r18
    7428:	21 2f       	mov	r18, r17
    742a:	eb 2c       	mov	r14, r11
    742c:	b4 fe       	sbrs	r11, 4
    742e:	02 c0       	rjmp	.+4      	; 0x7434 <dtoa_prf+0x7e>
    7430:	32 2f       	mov	r19, r18
    7432:	0a c0       	rjmp	.+20     	; 0x7448 <dtoa_prf+0x92>
    7434:	f6 01       	movw	r30, r12
    7436:	32 2f       	mov	r19, r18
    7438:	80 e2       	ldi	r24, 0x20	; 32
    743a:	02 c0       	rjmp	.+4      	; 0x7440 <dtoa_prf+0x8a>
    743c:	81 93       	st	Z+, r24
    743e:	31 50       	subi	r19, 0x01	; 1
    7440:	33 23       	and	r19, r19
    7442:	e1 f7       	brne	.-8      	; 0x743c <dtoa_prf+0x86>
    7444:	c2 0e       	add	r12, r18
    7446:	d1 1c       	adc	r13, r1
    7448:	aa 23       	and	r26, r26
    744a:	19 f0       	breq	.+6      	; 0x7452 <dtoa_prf+0x9c>
    744c:	f6 01       	movw	r30, r12
    744e:	a1 93       	st	Z+, r26
    7450:	6f 01       	movw	r12, r30
    7452:	f6 01       	movw	r30, r12
    7454:	31 96       	adiw	r30, 0x01	; 1
    7456:	e2 fe       	sbrs	r14, 2
    7458:	05 c0       	rjmp	.+10     	; 0x7464 <dtoa_prf+0xae>
    745a:	9e e4       	ldi	r25, 0x4E	; 78
    745c:	d6 01       	movw	r26, r12
    745e:	9c 93       	st	X, r25
    7460:	81 e4       	ldi	r24, 0x41	; 65
    7462:	04 c0       	rjmp	.+8      	; 0x746c <dtoa_prf+0xb6>
    7464:	9e e6       	ldi	r25, 0x6E	; 110
    7466:	d6 01       	movw	r26, r12
    7468:	9c 93       	st	X, r25
    746a:	81 e6       	ldi	r24, 0x61	; 97
    746c:	11 96       	adiw	r26, 0x01	; 1
    746e:	8c 93       	st	X, r24
    7470:	91 83       	std	Z+1, r25	; 0x01
    7472:	32 96       	adiw	r30, 0x02	; 2
    7474:	df 01       	movw	r26, r30
    7476:	83 2f       	mov	r24, r19
    7478:	90 e2       	ldi	r25, 0x20	; 32
    747a:	02 c0       	rjmp	.+4      	; 0x7480 <dtoa_prf+0xca>
    747c:	9d 93       	st	X+, r25
    747e:	81 50       	subi	r24, 0x01	; 1
    7480:	88 23       	and	r24, r24
    7482:	e1 f7       	brne	.-8      	; 0x747c <dtoa_prf+0xc6>
    7484:	e3 0f       	add	r30, r19
    7486:	f1 1d       	adc	r31, r1
    7488:	40 c0       	rjmp	.+128    	; 0x750a <dtoa_prf+0x154>
    748a:	e2 fe       	sbrs	r14, 2
    748c:	42 c0       	rjmp	.+132    	; 0x7512 <dtoa_prf+0x15c>
    748e:	aa 23       	and	r26, r26
    7490:	11 f4       	brne	.+4      	; 0x7496 <dtoa_prf+0xe0>
    7492:	23 e0       	ldi	r18, 0x03	; 3
    7494:	01 c0       	rjmp	.+2      	; 0x7498 <dtoa_prf+0xe2>
    7496:	24 e0       	ldi	r18, 0x04	; 4
    7498:	21 17       	cp	r18, r17
    749a:	10 f0       	brcs	.+4      	; 0x74a0 <dtoa_prf+0xea>
    749c:	20 e0       	ldi	r18, 0x00	; 0
    749e:	02 c0       	rjmp	.+4      	; 0x74a4 <dtoa_prf+0xee>
    74a0:	12 1b       	sub	r17, r18
    74a2:	21 2f       	mov	r18, r17
    74a4:	eb 2c       	mov	r14, r11
    74a6:	b4 fe       	sbrs	r11, 4
    74a8:	02 c0       	rjmp	.+4      	; 0x74ae <dtoa_prf+0xf8>
    74aa:	92 2f       	mov	r25, r18
    74ac:	0a c0       	rjmp	.+20     	; 0x74c2 <dtoa_prf+0x10c>
    74ae:	f6 01       	movw	r30, r12
    74b0:	92 2f       	mov	r25, r18
    74b2:	80 e2       	ldi	r24, 0x20	; 32
    74b4:	02 c0       	rjmp	.+4      	; 0x74ba <dtoa_prf+0x104>
    74b6:	81 93       	st	Z+, r24
    74b8:	91 50       	subi	r25, 0x01	; 1
    74ba:	99 23       	and	r25, r25
    74bc:	e1 f7       	brne	.-8      	; 0x74b6 <dtoa_prf+0x100>
    74be:	c2 0e       	add	r12, r18
    74c0:	d1 1c       	adc	r13, r1
    74c2:	aa 23       	and	r26, r26
    74c4:	19 f0       	breq	.+6      	; 0x74cc <dtoa_prf+0x116>
    74c6:	f6 01       	movw	r30, r12
    74c8:	a1 93       	st	Z+, r26
    74ca:	6f 01       	movw	r12, r30
    74cc:	f6 01       	movw	r30, r12
    74ce:	31 96       	adiw	r30, 0x01	; 1
    74d0:	e2 fe       	sbrs	r14, 2
    74d2:	08 c0       	rjmp	.+16     	; 0x74e4 <dtoa_prf+0x12e>
    74d4:	89 e4       	ldi	r24, 0x49	; 73
    74d6:	d6 01       	movw	r26, r12
    74d8:	8c 93       	st	X, r24
    74da:	8e e4       	ldi	r24, 0x4E	; 78
    74dc:	11 96       	adiw	r26, 0x01	; 1
    74de:	8c 93       	st	X, r24
    74e0:	86 e4       	ldi	r24, 0x46	; 70
    74e2:	07 c0       	rjmp	.+14     	; 0x74f2 <dtoa_prf+0x13c>
    74e4:	89 e6       	ldi	r24, 0x69	; 105
    74e6:	d6 01       	movw	r26, r12
    74e8:	8c 93       	st	X, r24
    74ea:	8e e6       	ldi	r24, 0x6E	; 110
    74ec:	11 96       	adiw	r26, 0x01	; 1
    74ee:	8c 93       	st	X, r24
    74f0:	86 e6       	ldi	r24, 0x66	; 102
    74f2:	81 83       	std	Z+1, r24	; 0x01
    74f4:	32 96       	adiw	r30, 0x02	; 2
    74f6:	df 01       	movw	r26, r30
    74f8:	89 2f       	mov	r24, r25
    74fa:	20 e2       	ldi	r18, 0x20	; 32
    74fc:	02 c0       	rjmp	.+4      	; 0x7502 <dtoa_prf+0x14c>
    74fe:	2d 93       	st	X+, r18
    7500:	81 50       	subi	r24, 0x01	; 1
    7502:	88 23       	and	r24, r24
    7504:	e1 f7       	brne	.-8      	; 0x74fe <dtoa_prf+0x148>
    7506:	e9 0f       	add	r30, r25
    7508:	f1 1d       	adc	r31, r1
    750a:	10 82       	st	Z, r1
    750c:	2e ef       	ldi	r18, 0xFE	; 254
    750e:	3f ef       	ldi	r19, 0xFF	; 255
    7510:	af c0       	rjmp	.+350    	; 0x7670 <dtoa_prf+0x2ba>
    7512:	16 16       	cp	r1, r22
    7514:	17 06       	cpc	r1, r23
    7516:	1c f0       	brlt	.+6      	; 0x751e <dtoa_prf+0x168>
    7518:	41 e0       	ldi	r20, 0x01	; 1
    751a:	50 e0       	ldi	r21, 0x00	; 0
    751c:	03 c0       	rjmp	.+6      	; 0x7524 <dtoa_prf+0x16e>
    751e:	ab 01       	movw	r20, r22
    7520:	4f 5f       	subi	r20, 0xFF	; 255
    7522:	5f 4f       	sbci	r21, 0xFF	; 255
    7524:	aa 20       	and	r10, r10
    7526:	19 f4       	brne	.+6      	; 0x752e <dtoa_prf+0x178>
    7528:	80 e0       	ldi	r24, 0x00	; 0
    752a:	90 e0       	ldi	r25, 0x00	; 0
    752c:	03 c0       	rjmp	.+6      	; 0x7534 <dtoa_prf+0x17e>
    752e:	8a 2d       	mov	r24, r10
    7530:	90 e0       	ldi	r25, 0x00	; 0
    7532:	01 96       	adiw	r24, 0x01	; 1
    7534:	20 e0       	ldi	r18, 0x00	; 0
    7536:	30 e0       	ldi	r19, 0x00	; 0
    7538:	aa 23       	and	r26, r26
    753a:	11 f0       	breq	.+4      	; 0x7540 <dtoa_prf+0x18a>
    753c:	21 e0       	ldi	r18, 0x01	; 1
    753e:	30 e0       	ldi	r19, 0x00	; 0
    7540:	24 0f       	add	r18, r20
    7542:	35 1f       	adc	r19, r21
    7544:	28 0f       	add	r18, r24
    7546:	39 1f       	adc	r19, r25
    7548:	81 2f       	mov	r24, r17
    754a:	90 e0       	ldi	r25, 0x00	; 0
    754c:	28 17       	cp	r18, r24
    754e:	39 07       	cpc	r19, r25
    7550:	14 f0       	brlt	.+4      	; 0x7556 <dtoa_prf+0x1a0>
    7552:	20 e0       	ldi	r18, 0x00	; 0
    7554:	02 c0       	rjmp	.+4      	; 0x755a <dtoa_prf+0x1a4>
    7556:	12 1b       	sub	r17, r18
    7558:	21 2f       	mov	r18, r17
    755a:	4b 2d       	mov	r20, r11
    755c:	50 e0       	ldi	r21, 0x00	; 0
    755e:	ca 01       	movw	r24, r20
    7560:	80 71       	andi	r24, 0x10	; 16
    7562:	90 70       	andi	r25, 0x00	; 0
    7564:	b4 fc       	sbrc	r11, 4
    7566:	0d c0       	rjmp	.+26     	; 0x7582 <dtoa_prf+0x1cc>
    7568:	b3 fc       	sbrc	r11, 3
    756a:	0b c0       	rjmp	.+22     	; 0x7582 <dtoa_prf+0x1cc>
    756c:	f6 01       	movw	r30, r12
    756e:	32 2f       	mov	r19, r18
    7570:	40 e2       	ldi	r20, 0x20	; 32
    7572:	02 c0       	rjmp	.+4      	; 0x7578 <dtoa_prf+0x1c2>
    7574:	41 93       	st	Z+, r20
    7576:	31 50       	subi	r19, 0x01	; 1
    7578:	33 23       	and	r19, r19
    757a:	e1 f7       	brne	.-8      	; 0x7574 <dtoa_prf+0x1be>
    757c:	c2 0e       	add	r12, r18
    757e:	d1 1c       	adc	r13, r1
    7580:	01 c0       	rjmp	.+2      	; 0x7584 <dtoa_prf+0x1ce>
    7582:	32 2f       	mov	r19, r18
    7584:	aa 23       	and	r26, r26
    7586:	19 f0       	breq	.+6      	; 0x758e <dtoa_prf+0x1d8>
    7588:	f6 01       	movw	r30, r12
    758a:	a1 93       	st	Z+, r26
    758c:	6f 01       	movw	r12, r30
    758e:	89 2b       	or	r24, r25
    7590:	11 f0       	breq	.+4      	; 0x7596 <dtoa_prf+0x1e0>
    7592:	13 2f       	mov	r17, r19
    7594:	0a c0       	rjmp	.+20     	; 0x75aa <dtoa_prf+0x1f4>
    7596:	f6 01       	movw	r30, r12
    7598:	13 2f       	mov	r17, r19
    759a:	80 e3       	ldi	r24, 0x30	; 48
    759c:	02 c0       	rjmp	.+4      	; 0x75a2 <dtoa_prf+0x1ec>
    759e:	81 93       	st	Z+, r24
    75a0:	11 50       	subi	r17, 0x01	; 1
    75a2:	11 23       	and	r17, r17
    75a4:	e1 f7       	brne	.-8      	; 0x759e <dtoa_prf+0x1e8>
    75a6:	c3 0e       	add	r12, r19
    75a8:	d1 1c       	adc	r13, r1
    75aa:	09 2d       	mov	r16, r9
    75ac:	06 0f       	add	r16, r22
    75ae:	ba 80       	ldd	r11, Y+2	; 0x02
    75b0:	90 e1       	ldi	r25, 0x10	; 16
    75b2:	89 2e       	mov	r8, r25
    75b4:	91 2c       	mov	r9, r1
    75b6:	8e 20       	and	r8, r14
    75b8:	9f 20       	and	r9, r15
    75ba:	e4 fe       	sbrs	r14, 4
    75bc:	04 c0       	rjmp	.+8      	; 0x75c6 <dtoa_prf+0x210>
    75be:	f1 e3       	ldi	r31, 0x31	; 49
    75c0:	bf 16       	cp	r11, r31
    75c2:	09 f4       	brne	.+2      	; 0x75c6 <dtoa_prf+0x210>
    75c4:	01 50       	subi	r16, 0x01	; 1
    75c6:	10 16       	cp	r1, r16
    75c8:	14 f0       	brlt	.+4      	; 0x75ce <dtoa_prf+0x218>
    75ca:	01 e0       	ldi	r16, 0x01	; 1
    75cc:	03 c0       	rjmp	.+6      	; 0x75d4 <dtoa_prf+0x21e>
    75ce:	09 30       	cpi	r16, 0x09	; 9
    75d0:	08 f0       	brcs	.+2      	; 0x75d4 <dtoa_prf+0x21e>
    75d2:	08 e0       	ldi	r16, 0x08	; 8
    75d4:	9b 01       	movw	r18, r22
    75d6:	77 ff       	sbrs	r23, 7
    75d8:	02 c0       	rjmp	.+4      	; 0x75de <dtoa_prf+0x228>
    75da:	20 e0       	ldi	r18, 0x00	; 0
    75dc:	30 e0       	ldi	r19, 0x00	; 0
    75de:	cb 01       	movw	r24, r22
    75e0:	01 96       	adiw	r24, 0x01	; 1
    75e2:	82 1b       	sub	r24, r18
    75e4:	93 0b       	sbc	r25, r19
    75e6:	fe 01       	movw	r30, r28
    75e8:	31 96       	adiw	r30, 0x01	; 1
    75ea:	e8 0f       	add	r30, r24
    75ec:	f9 1f       	adc	r31, r25
    75ee:	8e e2       	ldi	r24, 0x2E	; 46
    75f0:	f8 2e       	mov	r15, r24
    75f2:	3b 01       	movw	r6, r22
    75f4:	60 1a       	sub	r6, r16
    75f6:	71 08       	sbc	r7, r1
    75f8:	8a 2d       	mov	r24, r10
    75fa:	90 e0       	ldi	r25, 0x00	; 0
    75fc:	44 27       	eor	r20, r20
    75fe:	55 27       	eor	r21, r21
    7600:	48 1b       	sub	r20, r24
    7602:	59 0b       	sbc	r21, r25
    7604:	8f ef       	ldi	r24, 0xFF	; 255
    7606:	2f 3f       	cpi	r18, 0xFF	; 255
    7608:	38 07       	cpc	r19, r24
    760a:	19 f4       	brne	.+6      	; 0x7612 <dtoa_prf+0x25c>
    760c:	d6 01       	movw	r26, r12
    760e:	fd 92       	st	X+, r15
    7610:	6d 01       	movw	r12, r26
    7612:	62 17       	cp	r22, r18
    7614:	73 07       	cpc	r23, r19
    7616:	2c f0       	brlt	.+10     	; 0x7622 <dtoa_prf+0x26c>
    7618:	62 16       	cp	r6, r18
    761a:	73 06       	cpc	r7, r19
    761c:	14 f4       	brge	.+4      	; 0x7622 <dtoa_prf+0x26c>
    761e:	80 81       	ld	r24, Z
    7620:	01 c0       	rjmp	.+2      	; 0x7624 <dtoa_prf+0x26e>
    7622:	80 e3       	ldi	r24, 0x30	; 48
    7624:	21 50       	subi	r18, 0x01	; 1
    7626:	30 40       	sbci	r19, 0x00	; 0
    7628:	31 96       	adiw	r30, 0x01	; 1
    762a:	24 17       	cp	r18, r20
    762c:	35 07       	cpc	r19, r21
    762e:	24 f0       	brlt	.+8      	; 0x7638 <dtoa_prf+0x282>
    7630:	d6 01       	movw	r26, r12
    7632:	8d 93       	st	X+, r24
    7634:	6d 01       	movw	r12, r26
    7636:	e6 cf       	rjmp	.-52     	; 0x7604 <dtoa_prf+0x24e>
    7638:	26 17       	cp	r18, r22
    763a:	37 07       	cpc	r19, r23
    763c:	49 f4       	brne	.+18     	; 0x7650 <dtoa_prf+0x29a>
    763e:	b5 e3       	ldi	r27, 0x35	; 53
    7640:	bb 15       	cp	r27, r11
    7642:	28 f0       	brcs	.+10     	; 0x764e <dtoa_prf+0x298>
    7644:	bb 16       	cp	r11, r27
    7646:	21 f4       	brne	.+8      	; 0x7650 <dtoa_prf+0x29a>
    7648:	81 14       	cp	r8, r1
    764a:	91 04       	cpc	r9, r1
    764c:	09 f4       	brne	.+2      	; 0x7650 <dtoa_prf+0x29a>
    764e:	81 e3       	ldi	r24, 0x31	; 49
    7650:	f6 01       	movw	r30, r12
    7652:	81 93       	st	Z+, r24
    7654:	d6 01       	movw	r26, r12
    7656:	81 2f       	mov	r24, r17
    7658:	90 e2       	ldi	r25, 0x20	; 32
    765a:	02 c0       	rjmp	.+4      	; 0x7660 <dtoa_prf+0x2aa>
    765c:	9c 93       	st	X, r25
    765e:	81 50       	subi	r24, 0x01	; 1
    7660:	11 96       	adiw	r26, 0x01	; 1
    7662:	88 23       	and	r24, r24
    7664:	d9 f7       	brne	.-10     	; 0x765c <dtoa_prf+0x2a6>
    7666:	e1 0f       	add	r30, r17
    7668:	f1 1d       	adc	r31, r1
    766a:	10 82       	st	Z, r1
    766c:	20 e0       	ldi	r18, 0x00	; 0
    766e:	30 e0       	ldi	r19, 0x00	; 0
    7670:	c9 01       	movw	r24, r18
    7672:	29 96       	adiw	r28, 0x09	; 9
    7674:	ee e0       	ldi	r30, 0x0E	; 14
    7676:	0c 94 a2 37 	jmp	0x6f44	; 0x6f44 <__epilogue_restores__+0x8>

0000767a <__ftoa_engine>:
    767a:	28 30       	cpi	r18, 0x08	; 8
    767c:	08 f0       	brcs	.+2      	; 0x7680 <__ftoa_engine+0x6>
    767e:	27 e0       	ldi	r18, 0x07	; 7
    7680:	33 27       	eor	r19, r19
    7682:	da 01       	movw	r26, r20
    7684:	99 0f       	add	r25, r25
    7686:	31 1d       	adc	r19, r1
    7688:	87 fd       	sbrc	r24, 7
    768a:	91 60       	ori	r25, 0x01	; 1
    768c:	00 96       	adiw	r24, 0x00	; 0
    768e:	61 05       	cpc	r22, r1
    7690:	71 05       	cpc	r23, r1
    7692:	39 f4       	brne	.+14     	; 0x76a2 <__ftoa_engine+0x28>
    7694:	32 60       	ori	r19, 0x02	; 2
    7696:	2e 5f       	subi	r18, 0xFE	; 254
    7698:	3d 93       	st	X+, r19
    769a:	30 e3       	ldi	r19, 0x30	; 48
    769c:	2a 95       	dec	r18
    769e:	e1 f7       	brne	.-8      	; 0x7698 <__ftoa_engine+0x1e>
    76a0:	08 95       	ret
    76a2:	9f 3f       	cpi	r25, 0xFF	; 255
    76a4:	30 f0       	brcs	.+12     	; 0x76b2 <__ftoa_engine+0x38>
    76a6:	80 38       	cpi	r24, 0x80	; 128
    76a8:	71 05       	cpc	r23, r1
    76aa:	61 05       	cpc	r22, r1
    76ac:	09 f0       	breq	.+2      	; 0x76b0 <__ftoa_engine+0x36>
    76ae:	3c 5f       	subi	r19, 0xFC	; 252
    76b0:	3c 5f       	subi	r19, 0xFC	; 252
    76b2:	3d 93       	st	X+, r19
    76b4:	91 30       	cpi	r25, 0x01	; 1
    76b6:	08 f0       	brcs	.+2      	; 0x76ba <__ftoa_engine+0x40>
    76b8:	80 68       	ori	r24, 0x80	; 128
    76ba:	91 1d       	adc	r25, r1
    76bc:	df 93       	push	r29
    76be:	cf 93       	push	r28
    76c0:	1f 93       	push	r17
    76c2:	0f 93       	push	r16
    76c4:	ff 92       	push	r15
    76c6:	ef 92       	push	r14
    76c8:	19 2f       	mov	r17, r25
    76ca:	98 7f       	andi	r25, 0xF8	; 248
    76cc:	96 95       	lsr	r25
    76ce:	e9 2f       	mov	r30, r25
    76d0:	96 95       	lsr	r25
    76d2:	96 95       	lsr	r25
    76d4:	e9 0f       	add	r30, r25
    76d6:	ff 27       	eor	r31, r31
    76d8:	e2 55       	subi	r30, 0x52	; 82
    76da:	ff 4f       	sbci	r31, 0xFF	; 255
    76dc:	99 27       	eor	r25, r25
    76de:	33 27       	eor	r19, r19
    76e0:	ee 24       	eor	r14, r14
    76e2:	ff 24       	eor	r15, r15
    76e4:	a7 01       	movw	r20, r14
    76e6:	e7 01       	movw	r28, r14
    76e8:	05 90       	lpm	r0, Z+
    76ea:	08 94       	sec
    76ec:	07 94       	ror	r0
    76ee:	28 f4       	brcc	.+10     	; 0x76fa <__ftoa_engine+0x80>
    76f0:	36 0f       	add	r19, r22
    76f2:	e7 1e       	adc	r14, r23
    76f4:	f8 1e       	adc	r15, r24
    76f6:	49 1f       	adc	r20, r25
    76f8:	51 1d       	adc	r21, r1
    76fa:	66 0f       	add	r22, r22
    76fc:	77 1f       	adc	r23, r23
    76fe:	88 1f       	adc	r24, r24
    7700:	99 1f       	adc	r25, r25
    7702:	06 94       	lsr	r0
    7704:	a1 f7       	brne	.-24     	; 0x76ee <__ftoa_engine+0x74>
    7706:	05 90       	lpm	r0, Z+
    7708:	07 94       	ror	r0
    770a:	28 f4       	brcc	.+10     	; 0x7716 <__ftoa_engine+0x9c>
    770c:	e7 0e       	add	r14, r23
    770e:	f8 1e       	adc	r15, r24
    7710:	49 1f       	adc	r20, r25
    7712:	56 1f       	adc	r21, r22
    7714:	c1 1d       	adc	r28, r1
    7716:	77 0f       	add	r23, r23
    7718:	88 1f       	adc	r24, r24
    771a:	99 1f       	adc	r25, r25
    771c:	66 1f       	adc	r22, r22
    771e:	06 94       	lsr	r0
    7720:	a1 f7       	brne	.-24     	; 0x770a <__ftoa_engine+0x90>
    7722:	05 90       	lpm	r0, Z+
    7724:	07 94       	ror	r0
    7726:	28 f4       	brcc	.+10     	; 0x7732 <__ftoa_engine+0xb8>
    7728:	f8 0e       	add	r15, r24
    772a:	49 1f       	adc	r20, r25
    772c:	56 1f       	adc	r21, r22
    772e:	c7 1f       	adc	r28, r23
    7730:	d1 1d       	adc	r29, r1
    7732:	88 0f       	add	r24, r24
    7734:	99 1f       	adc	r25, r25
    7736:	66 1f       	adc	r22, r22
    7738:	77 1f       	adc	r23, r23
    773a:	06 94       	lsr	r0
    773c:	a1 f7       	brne	.-24     	; 0x7726 <__ftoa_engine+0xac>
    773e:	05 90       	lpm	r0, Z+
    7740:	07 94       	ror	r0
    7742:	20 f4       	brcc	.+8      	; 0x774c <__ftoa_engine+0xd2>
    7744:	49 0f       	add	r20, r25
    7746:	56 1f       	adc	r21, r22
    7748:	c7 1f       	adc	r28, r23
    774a:	d8 1f       	adc	r29, r24
    774c:	99 0f       	add	r25, r25
    774e:	66 1f       	adc	r22, r22
    7750:	77 1f       	adc	r23, r23
    7752:	88 1f       	adc	r24, r24
    7754:	06 94       	lsr	r0
    7756:	a9 f7       	brne	.-22     	; 0x7742 <__ftoa_engine+0xc8>
    7758:	84 91       	lpm	r24, Z+
    775a:	10 95       	com	r17
    775c:	17 70       	andi	r17, 0x07	; 7
    775e:	41 f0       	breq	.+16     	; 0x7770 <__ftoa_engine+0xf6>
    7760:	d6 95       	lsr	r29
    7762:	c7 95       	ror	r28
    7764:	57 95       	ror	r21
    7766:	47 95       	ror	r20
    7768:	f7 94       	ror	r15
    776a:	e7 94       	ror	r14
    776c:	1a 95       	dec	r17
    776e:	c1 f7       	brne	.-16     	; 0x7760 <__ftoa_engine+0xe6>
    7770:	e4 e5       	ldi	r30, 0x54	; 84
    7772:	f0 e0       	ldi	r31, 0x00	; 0
    7774:	68 94       	set
    7776:	15 90       	lpm	r1, Z+
    7778:	15 91       	lpm	r17, Z+
    777a:	35 91       	lpm	r19, Z+
    777c:	65 91       	lpm	r22, Z+
    777e:	95 91       	lpm	r25, Z+
    7780:	05 90       	lpm	r0, Z+
    7782:	7f e2       	ldi	r23, 0x2F	; 47
    7784:	73 95       	inc	r23
    7786:	e1 18       	sub	r14, r1
    7788:	f1 0a       	sbc	r15, r17
    778a:	43 0b       	sbc	r20, r19
    778c:	56 0b       	sbc	r21, r22
    778e:	c9 0b       	sbc	r28, r25
    7790:	d0 09       	sbc	r29, r0
    7792:	c0 f7       	brcc	.-16     	; 0x7784 <__ftoa_engine+0x10a>
    7794:	e1 0c       	add	r14, r1
    7796:	f1 1e       	adc	r15, r17
    7798:	43 1f       	adc	r20, r19
    779a:	56 1f       	adc	r21, r22
    779c:	c9 1f       	adc	r28, r25
    779e:	d0 1d       	adc	r29, r0
    77a0:	7e f4       	brtc	.+30     	; 0x77c0 <__ftoa_engine+0x146>
    77a2:	70 33       	cpi	r23, 0x30	; 48
    77a4:	11 f4       	brne	.+4      	; 0x77aa <__ftoa_engine+0x130>
    77a6:	8a 95       	dec	r24
    77a8:	e6 cf       	rjmp	.-52     	; 0x7776 <__ftoa_engine+0xfc>
    77aa:	e8 94       	clt
    77ac:	01 50       	subi	r16, 0x01	; 1
    77ae:	30 f0       	brcs	.+12     	; 0x77bc <__ftoa_engine+0x142>
    77b0:	08 0f       	add	r16, r24
    77b2:	0a f4       	brpl	.+2      	; 0x77b6 <__ftoa_engine+0x13c>
    77b4:	00 27       	eor	r16, r16
    77b6:	02 17       	cp	r16, r18
    77b8:	08 f4       	brcc	.+2      	; 0x77bc <__ftoa_engine+0x142>
    77ba:	20 2f       	mov	r18, r16
    77bc:	23 95       	inc	r18
    77be:	02 2f       	mov	r16, r18
    77c0:	7a 33       	cpi	r23, 0x3A	; 58
    77c2:	28 f0       	brcs	.+10     	; 0x77ce <__ftoa_engine+0x154>
    77c4:	79 e3       	ldi	r23, 0x39	; 57
    77c6:	7d 93       	st	X+, r23
    77c8:	2a 95       	dec	r18
    77ca:	e9 f7       	brne	.-6      	; 0x77c6 <__ftoa_engine+0x14c>
    77cc:	10 c0       	rjmp	.+32     	; 0x77ee <__ftoa_engine+0x174>
    77ce:	7d 93       	st	X+, r23
    77d0:	2a 95       	dec	r18
    77d2:	89 f6       	brne	.-94     	; 0x7776 <__ftoa_engine+0xfc>
    77d4:	06 94       	lsr	r0
    77d6:	97 95       	ror	r25
    77d8:	67 95       	ror	r22
    77da:	37 95       	ror	r19
    77dc:	17 95       	ror	r17
    77de:	17 94       	ror	r1
    77e0:	e1 18       	sub	r14, r1
    77e2:	f1 0a       	sbc	r15, r17
    77e4:	43 0b       	sbc	r20, r19
    77e6:	56 0b       	sbc	r21, r22
    77e8:	c9 0b       	sbc	r28, r25
    77ea:	d0 09       	sbc	r29, r0
    77ec:	98 f0       	brcs	.+38     	; 0x7814 <__ftoa_engine+0x19a>
    77ee:	23 95       	inc	r18
    77f0:	7e 91       	ld	r23, -X
    77f2:	73 95       	inc	r23
    77f4:	7a 33       	cpi	r23, 0x3A	; 58
    77f6:	08 f0       	brcs	.+2      	; 0x77fa <__ftoa_engine+0x180>
    77f8:	70 e3       	ldi	r23, 0x30	; 48
    77fa:	7c 93       	st	X, r23
    77fc:	20 13       	cpse	r18, r16
    77fe:	b8 f7       	brcc	.-18     	; 0x77ee <__ftoa_engine+0x174>
    7800:	7e 91       	ld	r23, -X
    7802:	70 61       	ori	r23, 0x10	; 16
    7804:	7d 93       	st	X+, r23
    7806:	30 f0       	brcs	.+12     	; 0x7814 <__ftoa_engine+0x19a>
    7808:	83 95       	inc	r24
    780a:	71 e3       	ldi	r23, 0x31	; 49
    780c:	7d 93       	st	X+, r23
    780e:	70 e3       	ldi	r23, 0x30	; 48
    7810:	2a 95       	dec	r18
    7812:	e1 f7       	brne	.-8      	; 0x780c <__ftoa_engine+0x192>
    7814:	11 24       	eor	r1, r1
    7816:	ef 90       	pop	r14
    7818:	ff 90       	pop	r15
    781a:	0f 91       	pop	r16
    781c:	1f 91       	pop	r17
    781e:	cf 91       	pop	r28
    7820:	df 91       	pop	r29
    7822:	99 27       	eor	r25, r25
    7824:	87 fd       	sbrc	r24, 7
    7826:	90 95       	com	r25
    7828:	08 95       	ret

0000782a <strnlen_P>:
    782a:	fc 01       	movw	r30, r24
    782c:	05 90       	lpm	r0, Z+
    782e:	61 50       	subi	r22, 0x01	; 1
    7830:	70 40       	sbci	r23, 0x00	; 0
    7832:	01 10       	cpse	r0, r1
    7834:	d8 f7       	brcc	.-10     	; 0x782c <strnlen_P+0x2>
    7836:	80 95       	com	r24
    7838:	90 95       	com	r25
    783a:	8e 0f       	add	r24, r30
    783c:	9f 1f       	adc	r25, r31
    783e:	08 95       	ret

00007840 <strnlen>:
    7840:	fc 01       	movw	r30, r24
    7842:	61 50       	subi	r22, 0x01	; 1
    7844:	70 40       	sbci	r23, 0x00	; 0
    7846:	01 90       	ld	r0, Z+
    7848:	01 10       	cpse	r0, r1
    784a:	d8 f7       	brcc	.-10     	; 0x7842 <strnlen+0x2>
    784c:	80 95       	com	r24
    784e:	90 95       	com	r25
    7850:	8e 0f       	add	r24, r30
    7852:	9f 1f       	adc	r25, r31
    7854:	08 95       	ret

00007856 <fputc>:
    7856:	0f 93       	push	r16
    7858:	1f 93       	push	r17
    785a:	cf 93       	push	r28
    785c:	df 93       	push	r29
    785e:	8c 01       	movw	r16, r24
    7860:	eb 01       	movw	r28, r22
    7862:	8b 81       	ldd	r24, Y+3	; 0x03
    7864:	81 ff       	sbrs	r24, 1
    7866:	1b c0       	rjmp	.+54     	; 0x789e <fputc+0x48>
    7868:	82 ff       	sbrs	r24, 2
    786a:	0d c0       	rjmp	.+26     	; 0x7886 <fputc+0x30>
    786c:	2e 81       	ldd	r18, Y+6	; 0x06
    786e:	3f 81       	ldd	r19, Y+7	; 0x07
    7870:	8c 81       	ldd	r24, Y+4	; 0x04
    7872:	9d 81       	ldd	r25, Y+5	; 0x05
    7874:	28 17       	cp	r18, r24
    7876:	39 07       	cpc	r19, r25
    7878:	64 f4       	brge	.+24     	; 0x7892 <fputc+0x3c>
    787a:	e8 81       	ld	r30, Y
    787c:	f9 81       	ldd	r31, Y+1	; 0x01
    787e:	01 93       	st	Z+, r16
    7880:	f9 83       	std	Y+1, r31	; 0x01
    7882:	e8 83       	st	Y, r30
    7884:	06 c0       	rjmp	.+12     	; 0x7892 <fputc+0x3c>
    7886:	e8 85       	ldd	r30, Y+8	; 0x08
    7888:	f9 85       	ldd	r31, Y+9	; 0x09
    788a:	80 2f       	mov	r24, r16
    788c:	09 95       	icall
    788e:	89 2b       	or	r24, r25
    7890:	31 f4       	brne	.+12     	; 0x789e <fputc+0x48>
    7892:	8e 81       	ldd	r24, Y+6	; 0x06
    7894:	9f 81       	ldd	r25, Y+7	; 0x07
    7896:	01 96       	adiw	r24, 0x01	; 1
    7898:	9f 83       	std	Y+7, r25	; 0x07
    789a:	8e 83       	std	Y+6, r24	; 0x06
    789c:	02 c0       	rjmp	.+4      	; 0x78a2 <fputc+0x4c>
    789e:	0f ef       	ldi	r16, 0xFF	; 255
    78a0:	1f ef       	ldi	r17, 0xFF	; 255
    78a2:	c8 01       	movw	r24, r16
    78a4:	df 91       	pop	r29
    78a6:	cf 91       	pop	r28
    78a8:	1f 91       	pop	r17
    78aa:	0f 91       	pop	r16
    78ac:	08 95       	ret

000078ae <__ultoa_invert>:
    78ae:	fa 01       	movw	r30, r20
    78b0:	aa 27       	eor	r26, r26
    78b2:	28 30       	cpi	r18, 0x08	; 8
    78b4:	51 f1       	breq	.+84     	; 0x790a <__ultoa_invert+0x5c>
    78b6:	20 31       	cpi	r18, 0x10	; 16
    78b8:	81 f1       	breq	.+96     	; 0x791a <__ultoa_invert+0x6c>
    78ba:	e8 94       	clt
    78bc:	6f 93       	push	r22
    78be:	6e 7f       	andi	r22, 0xFE	; 254
    78c0:	6e 5f       	subi	r22, 0xFE	; 254
    78c2:	7f 4f       	sbci	r23, 0xFF	; 255
    78c4:	8f 4f       	sbci	r24, 0xFF	; 255
    78c6:	9f 4f       	sbci	r25, 0xFF	; 255
    78c8:	af 4f       	sbci	r26, 0xFF	; 255
    78ca:	b1 e0       	ldi	r27, 0x01	; 1
    78cc:	3e d0       	rcall	.+124    	; 0x794a <__ultoa_invert+0x9c>
    78ce:	b4 e0       	ldi	r27, 0x04	; 4
    78d0:	3c d0       	rcall	.+120    	; 0x794a <__ultoa_invert+0x9c>
    78d2:	67 0f       	add	r22, r23
    78d4:	78 1f       	adc	r23, r24
    78d6:	89 1f       	adc	r24, r25
    78d8:	9a 1f       	adc	r25, r26
    78da:	a1 1d       	adc	r26, r1
    78dc:	68 0f       	add	r22, r24
    78de:	79 1f       	adc	r23, r25
    78e0:	8a 1f       	adc	r24, r26
    78e2:	91 1d       	adc	r25, r1
    78e4:	a1 1d       	adc	r26, r1
    78e6:	6a 0f       	add	r22, r26
    78e8:	71 1d       	adc	r23, r1
    78ea:	81 1d       	adc	r24, r1
    78ec:	91 1d       	adc	r25, r1
    78ee:	a1 1d       	adc	r26, r1
    78f0:	20 d0       	rcall	.+64     	; 0x7932 <__ultoa_invert+0x84>
    78f2:	09 f4       	brne	.+2      	; 0x78f6 <__ultoa_invert+0x48>
    78f4:	68 94       	set
    78f6:	3f 91       	pop	r19
    78f8:	2a e0       	ldi	r18, 0x0A	; 10
    78fa:	26 9f       	mul	r18, r22
    78fc:	11 24       	eor	r1, r1
    78fe:	30 19       	sub	r19, r0
    7900:	30 5d       	subi	r19, 0xD0	; 208
    7902:	31 93       	st	Z+, r19
    7904:	de f6       	brtc	.-74     	; 0x78bc <__ultoa_invert+0xe>
    7906:	cf 01       	movw	r24, r30
    7908:	08 95       	ret
    790a:	46 2f       	mov	r20, r22
    790c:	47 70       	andi	r20, 0x07	; 7
    790e:	40 5d       	subi	r20, 0xD0	; 208
    7910:	41 93       	st	Z+, r20
    7912:	b3 e0       	ldi	r27, 0x03	; 3
    7914:	0f d0       	rcall	.+30     	; 0x7934 <__ultoa_invert+0x86>
    7916:	c9 f7       	brne	.-14     	; 0x790a <__ultoa_invert+0x5c>
    7918:	f6 cf       	rjmp	.-20     	; 0x7906 <__ultoa_invert+0x58>
    791a:	46 2f       	mov	r20, r22
    791c:	4f 70       	andi	r20, 0x0F	; 15
    791e:	40 5d       	subi	r20, 0xD0	; 208
    7920:	4a 33       	cpi	r20, 0x3A	; 58
    7922:	18 f0       	brcs	.+6      	; 0x792a <__ultoa_invert+0x7c>
    7924:	49 5d       	subi	r20, 0xD9	; 217
    7926:	31 fd       	sbrc	r19, 1
    7928:	40 52       	subi	r20, 0x20	; 32
    792a:	41 93       	st	Z+, r20
    792c:	02 d0       	rcall	.+4      	; 0x7932 <__ultoa_invert+0x84>
    792e:	a9 f7       	brne	.-22     	; 0x791a <__ultoa_invert+0x6c>
    7930:	ea cf       	rjmp	.-44     	; 0x7906 <__ultoa_invert+0x58>
    7932:	b4 e0       	ldi	r27, 0x04	; 4
    7934:	a6 95       	lsr	r26
    7936:	97 95       	ror	r25
    7938:	87 95       	ror	r24
    793a:	77 95       	ror	r23
    793c:	67 95       	ror	r22
    793e:	ba 95       	dec	r27
    7940:	c9 f7       	brne	.-14     	; 0x7934 <__ultoa_invert+0x86>
    7942:	00 97       	sbiw	r24, 0x00	; 0
    7944:	61 05       	cpc	r22, r1
    7946:	71 05       	cpc	r23, r1
    7948:	08 95       	ret
    794a:	9b 01       	movw	r18, r22
    794c:	ac 01       	movw	r20, r24
    794e:	0a 2e       	mov	r0, r26
    7950:	06 94       	lsr	r0
    7952:	57 95       	ror	r21
    7954:	47 95       	ror	r20
    7956:	37 95       	ror	r19
    7958:	27 95       	ror	r18
    795a:	ba 95       	dec	r27
    795c:	c9 f7       	brne	.-14     	; 0x7950 <__ultoa_invert+0xa2>
    795e:	62 0f       	add	r22, r18
    7960:	73 1f       	adc	r23, r19
    7962:	84 1f       	adc	r24, r20
    7964:	95 1f       	adc	r25, r21
    7966:	a0 1d       	adc	r26, r0
    7968:	08 95       	ret

0000796a <_exit>:
    796a:	f8 94       	cli

0000796c <__stop_program>:
    796c:	ff cf       	rjmp	.-2      	; 0x796c <__stop_program>
